(dp0
S'back_up'
p1
S'./Sergio-Yak/t0.pkl'
p2
sS'turns'
p3
(dp4
I0
(dp5
S'job'
p6
(lp7
S'start("Sergio-Yak")'
p8
asS'order'
p9
(lp10
S'Set User-Bot'
p11
aS'Sergio-Yak'
p12
asssS'bot'
p13
(dp14
S'name'
p15
S'Yak'
p16
ssS'user'
p17
(dp18
g15
S'Sergio'
p19
ss.