(dp0
S'status'
p1
S'READY'
p2
sS'savefile'
p3
S'./experiments/refinedSIR/graph.gpickle'
p4
sS'name'
p5
S'barabasi_albert_graph(10000,3)'
p6
sS'degree'
p7
(dp8
S'count'
p9
(lp10
I4028
aI1948
aI1158
aI744
aI455
aI339
aI231
aI192
aI139
aI106
aI89
aI77
aI59
aI67
aI43
aI29
aI19
aI20
aI23
aI23
aI21
aI11
aI12
aI13
aI6
aI14
aI2
aI5
aI12
aI5
aI6
aI5
aI3
aI4
aI4
aI4
aI8
aI3
aI2
aI2
aI3
aI4
aI3
aI2
aI1
aI1
aI1
aI2
aI2
aI2
aI2
aI2
aI3
aI1
aI1
aI1
aI2
aI1
aI1
aI4
aI1
aI2
aI1
aI2
aI1
aI1
aI1
aI1
aI1
aI1
aI2
aI1
aI1
aI1
aI1
aI1
aI1
aI1
aI1
aI1
aI1
aI1
aI1
aI1
aI1
aI1
aI1
asS'index'
p11
(lp12
I3
aI4
aI5
aI6
aI7
aI8
aI9
aI10
aI11
aI12
aI13
aI14
aI15
aI16
aI17
aI18
aI19
aI20
aI21
aI22
aI23
aI24
aI25
aI26
aI27
aI28
aI29
aI30
aI31
aI32
aI33
aI34
aI35
aI36
aI37
aI38
aI39
aI40
aI41
aI42
aI43
aI44
aI45
aI46
aI47
aI48
aI49
aI50
aI51
aI52
aI54
aI55
aI56
aI57
aI58
aI59
aI61
aI62
aI64
aI66
aI68
aI69
aI72
aI73
aI74
aI75
aI77
aI80
aI82
aI86
aI90
aI100
aI104
aI105
aI106
aI114
aI134
aI140
aI148
aI149
aI151
aI163
aI188
aI189
aI212
aI263
aI368
asS'BF'
p13
(dp14
S'degree_dist'
p15
cnumpy.core.multiarray
_reconstruct
p16
(cnumpy
ndarray
p17
(I0
tp18
S'b'
p19
tp20
Rp21
(I1
(I87
tp22
cnumpy
dtype
p23
(S'f8'
p24
I0
I1
tp25
Rp26
(I3
S'<'
p27
NNNI-1
I-1
I0
tp28
bI00
S'\x198\xf6\x14\xbc\xd0\xd9?yb\x0e80\x0e\xc9?I0M\xad\xa7\x99\xbc?\x15\xf0\xee|?\x16\xb2?/|\xbb\x19\r\x8e\xa8?\xdf{\xcd\xa1\xf1\x8d\xa1?B\xe0)\xcc\xed\x1c\x9a?\x9c\xde1\xf6\xbc\t\x94?\xd9A\xd6\x11\x17\x8a\x8f?L7\xe4\xba#X\x89?f0}\xcf\xd3\xb9\x84?qsW\xee*4\x81?*G\xa4\x94\x11\xee|?\xe0\x9a\x13\xae$\x99x?\xeb\xae\xb3\x170\x1fu?\xdfS\x8c\xb0\xa1Kr?\xbc\x94\x98\x83\x13\xf1o?z\xcb\xba\xf4\x0c\x14l?3)\xfdi\x86\xd6h?\xd362\xd2\xe9\x18f?\x11\xa3\x95\x93\xf2\xc2c?\xaa\x0b\x04\x88\xc1\xc1a?\xd6\x95\xec8\x80\x06`?\x9c=\xbd\xbc\xcb\n]?)\xc1\x96f\x00jZ?\x81\xa0\xc5%X\x1bX?\xcc\xb2\x80q`\x12V?\xec\xe9=i\xe1DT?S\xc9m\xe9h\xaaR?eZ\xaci\xf0;Q?wh%\xca-\xe7O?6\xaf\x07\xcb\xd3\x98M?J\xe6\xb20t\x84K?\xf4\xb5.\x82\xf1\xa2I?\nO\x96\x158\xeeG?\xb7\'Cl\x11aF?\x8c\x8f\xff\xfc\xff\xf6D?\xa3\xe6\xd8\xa9!\xacC?\x8c\x0c\xb0\x85\x17}B?\x82\x86\xfd\xda\xf1fA?l\xdd\x04\xa0\x1fg@?m\xa8Zc\xc1\xf6>?\xe4E\xba\xa1tC=?B\x87$\xf2\xda\xb0;?\xb1m\xd1w\xdd;:?\xe6\xf6]\xbb\xbe\xe18?\x1c$C\xf8\x0e\xa07??}^%\xa2t6?9/\xb4o\x87]5?\xa0\xc9\xb3\xeb\x01Y4?R\xa0\x07t\xa1\x812?\x1c\xb4\xfa\xc7\x1b\xac1?M\xc4\xac\x18\xcd\xe30?\x81\xffY\x19\xad\'0?(l\xe1\x90\x98\xed.?\xa7$\xe0w\xa2\xa0-?\xd5\x9e\xd9\xa5\x0e?+?\xab;]_\xc0\'*?\x1b\r,\xe9;&(?Y\xcf!;"Z&?\x0e\r\xe6\xb3\x84\xbc$?A\xb0P\x16F\xfd#?\xb2\xbf\xb2Z*\xf6!?\xc4\x14z\x87~Y!?~\xb5(m/\xc4 ?\x19\xfb\x87\xc6\xcc5 ?vx\x85\xc6fX\x1e?\x13}X\\\xe2\x90\x1b?\xbb\xed\xf4\xe9?\xe8\x19?\x92wD\xa7\x06\xfc\x16?\x80\xe9gk\xb4\x80\x14?\x93\xa4k7Gw\x0f?7\x88\x1a| \x83\x0c?A \xee\xee\xab\xd5\x0b?\xb8\x1f0\xa1\xec-\x0b?\xae\xb6:\xcc\x1e\xa3\x06?\x87\x1e\x01X\xc2(\xfe>/\xbcEf\xe8\x03\xfb>\x8dhI\xc7m~\xf7>\xc9\x83Or~\x19\xf7>>\x13\xd2U\x9cV\xf6>\xa35\xae\x1e\xb4n\xf2>\xdb\xad\x84\xa9P\xc1\xe9>4\xe2u:\xfdi\xe9>?\xa3\x91/\xe6\n\xe3>)\x96.I\x8e\'\xd6>\x83\xf9\xd9\x9c\x00\x0c\xc3>'
p29
tp30
bsS'uncorr_func'
p31
g16
(g17
(I0
tp32
g19
tp33
Rp34
(I1
(I87
tp35
g26
I00
S"\xfe9x\x9c\n:\xca?{3R\xa4h\x9b\xc0?\x8c\xb0cmLM\xb7?\xcc7\x05\xd0iq\xb1?\xa1Xqf=O\xab?\xf7\xfb\xceQ\x1a\x17\xa6?k\xd7\xfb\xb80R\xa2?9\xdd\x00\xc4\xde\xfe\x9e?=\xbb\x1fn\x1f\xa4\x9a?d\xea+\xfe\xc33\x97?ag\xb2\x0e\xa0n\x94?v\x82\x16'\xc6)\x92?\x13x\xdf*%G\x90?\xb8\x00\xe0\xb3Ab\x8d?\xb0\x02\x04[\xae\xaf\x8a?Z\n\xb3\xee\xc1^\x88?\xdc\xa1\xf8*V]\x86?\nG#\x7f^\x9d\x84?\xaa\x89\xef\xcc\xd4\x13\x83?\xe4\xbb\x10m\xf7\xb7\x81?\xe0z\xd0\x05\xbe\x82\x80?\xca<\xcf/\xe8\xdc~?\x8e1\x04\xe7\xdb\xec|?\xe6\xef\xbe\xef\xa0-{?\xa5\x00\xfb\xc9\xcc\x98y?1\xfaJ8\xff(x?\x1b\xca\x0bz\xaf\xd9v?\xd5F\x11\x8f\x04\xa7u?:[\xff\xd7\xb5\x8dt?y\xb3\x88\x1c\xf2\x8as?\x19-m\x82K\x9cr?\x08\x14z]\xa7\xbfq?$\x06\xd9\x041\xf3p?/v\r\x0cO5p?C\x02k\xc64\to?\xaa8\x0f\xfc\xad\xbfm?\x10R;l\xdb\x8bl?\xdcpaZ\xcekk?\xa5\xdf\x80\x00\xcf]j?\x95\x1aYLU`i?\x118k\xb7\x02rh?\x95xY\t\x9d\x91g?\xb1lc\xdd\t\xbef?]\x0b\x05\xcbJ\xf6e?\x883\x8d\x17z9e?\xa48'\xdb\xc7\x86d?!\x9b\x92\x87w\xddc?\x9f\xac\xcc\xc1\xdd<c?{Zg\x82^\xa4b?9\x11Lrk\x13b?RB`\x85,\x06a?\xfa\xf2\x1aZ\xfc\x88`?!\xd7\xbb\xa9\x8d\x11`?\xf2g\xbdY\x08?_?V\xbf\xc4\xbe\x15e^?\x10\x11c\xa2\xa6\x94]?\x1d'\xe0\xfd\x19\x0e\\?\xb3\x9d<(\xfaV[?#\xe2\xb7\xa1\xc6\xfeY?SL*UT\xc1X?.\xaa\xa9\xbb\xd6\x9bW?F\x01\x16\xa8M\x11W?\xc7\x9e\xe9\xd5J\x8fU?\x8cV\xa14\xaf\x17U?\x14Z\xdfQ>\xa4T?\xf7]YW\xc54T?U\x11\x84\xd2\xfe`S?i\x1b\xbb\xe4\xc5<R?\x163\xff\x983\x89Q?\xecct\x1c\x1dBP?\xac\xc7\xb2NO@N?\xaa\x1d-\xb1\xea\x96I?8\xe8\x03\nC\x0bH?$\x90F\xcch\xaeG?\x82\xdfza\xd1SG?\x96jO\xeb\n\xc8D?\x94:oWb\x13@?V\x95\xe9W\x93\xfd=?\xd0\xf8>8\xf3t;?\xcc\x8aO\xd4**;?M\xd7\xd6Wo\x98:?\xd1\x1a\xe2\xdc\xb3\x8d7?\xd5\xfc\xe3\xcf\xe0\xc62?a\xad\x03\x15\x8b\x9e2?\xff\xf0\x8f\xc2\x8a\x07/?\xe7\xe5\xcd\x1de\x08&?\x87\x89SJ*\xd8\x19?"
p36
tp37
bssS'Teo'
p38
(dp39
g15
g16
(g17
(I0
tp40
g19
tp41
Rp42
(I1
(I87
tp43
g26
I00
S'\'H.\x99\x0eR\xf5?\xe1\x0c?Q<\xfd\xe1?4c\x8e\xe2\xc2k\xd2?\'H.\x99\x0eR\xc5?\xbdC\xd9\x9dI\xda\xba?\xe1\x0c?Q<\xfd\xb1?\xcf\xbdo\xee\xceD\xa9?4c\x8e\xe2\xc2k\xa2?\xce\xc3\xdf\xdf\n\xae\x9b?\'H.\x99\x0eR\x95?\xb6\xed\xf3\xdf\xe8\xc4\x90?\xbdC\xd9\x9dI\xda\x8a?\xe8\xca\x95\xe6\x0c\xd5\x85?\xe1\x0c?Q<\xfd\x81?\x80\xaa\x14e\xd4\xfe}?\xcf\xbdo\xee\xceDy?N\xb3\x88Y;|u?4c\x8e\xe2\xc2kr?\x94\xb8\x8f\xc4M\xd3o?\xce\xc3\xdf\xdf\n\xaek?\x01L\x04\x11a9h?\'H.\x99\x0eRe?Z\x86\xb0\x85\xf0\xdcb?\xb6\xed\xf3\xdf\xe8\xc4`?K6\xf6\\\xbc\xf2]?\xbdC\xd9\x9dI\xdaZ?\xf2\xfd\xa3\xf3d+X?\xe8\xca\x95\xe6\x0c\xd5U?\xad\xba\x8b>o\xc9S?\xe1\x0c?Q<\xfdQ?\xb3\x1e{\xe3"gP?\x80\xaa\x14e\xd4\xfeM?\x97\xf9H=E\x7fK?\xcf\xbdo\xee\xceDI?\xe7\x99Q\xb7[FG?N\xb3\x88Y;|E?\\\xd7\xa5\x97\xe4\xdfC?4c\x8e\xe2\xc2kB?i\xc3`\x9a\r\x1bA?\x94\xb8\x8f\xc4M\xd3??\x08\x96\n\xf6\x00\xa8=?\xce\xc3\xdf\xdf\n\xae;?\x8f\xca,J\x0f\xe09?\x01L\x04\x11a98?s\xa1D\xa0\xe8\xb56?\'H.\x99\x0eR5?Kh\x08\xe2\xa9\n4?Z\x86\xb0\x85\xf0\xdc2?\xbd\xfc\x90\xe6j\xc61?\xb6\xed\xf3\xdf\xe8\xc40?K6\xf6\\\xbc\xf2-?\x12\xb6\xfd\x84\x1bX,?\xbdC\xd9\x9dI\xda*?\xf5\xf0\xc7\x14\xcbv)?\xf2\xfd\xa3\xf3d+(?\xe6p\xe8W\x15\xf6&?\xbd7E\x18\xa9\xc6$?\xad\xba\x8b>o\xc9#?\xe1\x0c?Q<\xfd!?\xb3\x1e{\xe3"g ?\x80\xaa\x14e\xd4\xfe\x1d?\xb5\x17\x05`\xc8\xb5\x1c?\xcf\xbdo\xee\xceD\x19?\n\x04>\x88\x97>\x18?\xe7\x99Q\xb7[F\x17?k@\xbe\x060[\x16?b-QE\xb5\xa8\x14?4c\x8e\xe2\xc2k\x12?i\xc3`\x9a\r\x1b\x11?\x08\x96\n\xf6\x00\xa8\r?\x8f\xca,J\x0f\xe0\t?Z\x86\xb0\x85\xf0\xdc\x02?\xb6\xed\xf3\xdf\xe8\xc4\x00?3\xfc\xaffkK\x00?\xbf2\xb6\x06\xf1\xac\xff>\xf5\xf0\xc7\x14\xcbv\xf9>\x11\xcb\x1b\xae\xd0[\xef>\x97\xf9H=E\x7f\xeb>\xe7\x99Q\xb7[F\xe7>+\x99\xb3\xd51\xcf\xe6>\x163\xeb\xb5;\xea\xe5>F\xe1@\t%l\xe1>s\xa1D\xa0\xe8\xb5\xd6>\xe9>\xee\xa1\x1cZ\xd6>\xbf2\xb6\x06\xf1\xac\xcf>2\xea4\xb07\x97\xc0>\x01L\x04\x11a9\xa8>'
p44
tp45
bsg31
g16
(g17
(I0
tp46
g19
tp47
Rp48
(I1
(I87
tp49
g26
I00
S'\x95\xa3&\xe7\xb1S\xe5?\x08x\x0b$(\xfe\xd7?(\x85\xb2\xf0\xf5\xb5\xce?\x95\xa3&\xe7\xb1S\xc5?3xw\xachV\xbf?\x08x\x0b$(\xfe\xb7?\xf6t\xe9\xe9\x0f\xf5\xb2?(\x85\xb2\xf0\xf5\xb5\xae?\xdaE\xb3\xf9|a\xa9?\x95\xa3&\xe7\xb1S\xa5?\x80\x97\x989\x0c,\xa2?3xw\xachV\x9f?\x96\x04\xf4\xd5hL\x9b?\x08x\x0b$(\xfe\x97?\xd2\xbb$\xa2\xcd@\x95?\xf6t\xe9\xe9\x0f\xf5\x92?\x03\x8b\x94*\xa8\x03\x91?(\x85\xb2\xf0\xf5\xb5\x8e?J\x87\xbf\xb5\x07\xdb\x8b?\xdaE\xb3\xf9|a\x89?\xa7G\x9c\x94\xc58\x87?\x95\xa3&\xe7\xb1S\x85?\xfaJI\xa4\xa7\xa7\x83?\x80\x97\x989\x0c,\x82?\xa2\x12\xb3A\xd5\xd9\x80?3xw\xachV\x7f?\x8c\xde\xdd\xad\xad6}?\x96\x04\xf4\xd5hL{?l\x06\xc8\xff\xd0\x90y?\x08x\x0b$(\xfew?\x88Z\x9f\x88\x8b\x8fv?\xd2\xbb$\xa2\xcd@u?ia\x9exW\x0et?\xf6t\xe9\xe9\x0f\xf5r?C\xd4\xd9\x89G\xf2q?\x03\x8b\x94*\xa8\x03q?\xe5\x14\xa4O\'\'p?(\x85\xb2\xf0\xf5\xb5n?I\xf6\xff\x9b ;m?J\x87\xbf\xb5\x07\xdbk?r?\xa6\x036\x93j?\xdaE\xb3\xf9|ai?\xa2\xe7\xd8h\xebCh?\xa7G\x9c\x94\xc58g?\x7fY<s~>f?\x95\xa3&\xe7\xb1Se?\xa5\x97r\xc9\x1fwd?\xfaJI\xa4\xa7\xa7c?d\xc3\xe7\x01E\xe4b?\x80\x97\x989\x0c,b?\xa2\x12\xb3A\xd5\xd9`?w"\xd9vd>`?3xw\xachV_?\xcc\xa1\xeb\xd9c?^?\x8c\xde\xdd\xad\xad6]?\x8fpv\xf5O;\\?\x0e\xa2\xa5\xd0(iZ?l\x06\xc8\xff\xd0\x90Y?\x08x\x0b$(\xfeW?\x88Z\x9f\x88\x8b\x8fV?\xd2\xbb$\xa2\xcd@U?\x94xn\xd9=\xa4T?\xf6t\xe9\xe9\x0f\xf5R?\xc1yz"\x03qR?C\xd4\xd9\x89G\xf2Q?\x18_\xcf\x03\x95xQ?\x06\xdao\xf1A\x93P?(\x85\xb2\xf0\xf5\xb5N?I\xf6\xff\x9b ;M?r?\xa6\x036\x93J?\xa2\xe7\xd8h\xebCH?\xfaJI\xa4\xa7\xa7C?\x80\x97\x989\x0c,B?\x96Vp\xf9\xdb\xd3A?\xe48\xd0\xa7\'~A?\xcc\xa1\xeb\xd9c?>?3\xb9\tem\xe45?ia\x9exW\x0e4?C\xd4\xd9\x89G\xf21?\xb8\xc0\x01v\xd1\xb41?4\xd9p\xeb\x89=1?\xcf\xbf\xb9\xfe9\x97-?\x7fY<s~>&?P\xe9\x18\xe8d\x02&?\xe48\xd0\xa7\'~!?S;[\x8e\x8c\xbb\x16?\xa7G\x9c\x94\xc58\x07?'
p50
tp51
bssS'k_mean'
p52
F5.998200000000003
sS'Exp'
p53
(dp54
g15
(lp55
cnumpy.core.multiarray
scalar
p56
(g26
S'\x0f\x0b\xb5\xa6y\xc7\xd9?'
p57
tp58
Rp59
ag56
(g26
S'\xe5a\xa1\xd64\xef\xc8?'
p60
tp61
Rp62
ag56
(g26
S'\xf7u\xe0\x9c\x11\xa5\xbd?'
p63
tp64
Rp65
ag56
(g26
S'\xce\x88\xd2\xde\xe0\x0b\xb3?'
p66
tp67
Rp68
ag56
(g26
S'\xb2\x9d\xef\xa7\xc6K\xa7?'
p69
tp70
Rp71
ag56
(g26
S'z6\xab>W[\xa1?'
p72
tp73
Rp74
ag56
(g26
S'\x9d\x80&\xc2\x86\xa7\x97?'
p75
tp76
Rp77
ag56
(g26
S'a2U0*\xa9\x93?'
p78
tp79
Rp80
ag56
(g26
S'\xf2\xb0Pk\x9aw\x8c?'
p81
tp82
Rp83
ag56
(g26
S'\xa1g\xb3\xeas\xb5\x85?'
p84
tp85
Rp86
ag56
(g26
S'\xb5\xa6y\xc7):\x82?'
p87
tp88
Rp89
ag56
(g26
S'\xd2\x00\xde\x02\t\x8a\x7f?'
p90
tp91
Rp92
ag56
(g26
S'\xed\r\xbe0\x99*x?'
p93
tp94
Rp95
ag56
(g26
S'S\x96!\x8euq{?'
p96
tp97
Rp98
ag56
(g26
S'"\xfd\xf6u\xe0\x9cq?'
p99
tp100
Rp101
ag56
(g26
S'\xe0\x9c\x11\xa5\xbd\xc1g?'
p102
tp103
Rp104
ag56
(g26
S'\xc5\x8f1w-!_?'
p105
tp106
Rp107
ag56
(g26
S'\xfc\xa9\xf1\xd2Mb`?'
p108
tp109
Rp110
ag56
(g26
S'HP\xfc\x18s\xd7b?'
p111
tp112
Rp113
ag56
(g26
S'HP\xfc\x18s\xd7b?'
p114
tp115
Rp116
ag56
(g26
S'\x15\x8cJ\xea\x044a?'
p117
tp118
Rp119
ag56
(g26
S'/n\xa3\x01\xbc\x05R?'
p120
tp121
Rp122
ag56
(g26
S'a2U0*\xa9S?'
p123
tp124
Rp125
ag56
(g26
S'\x94\xf6\x06_\x98LU?'
p126
tp127
Rp128
ag56
(g26
S'a2U0*\xa9C?'
p129
tp130
Rp131
ag56
(g26
S'\xc7\xba\xb8\x8d\x06\xf0V?'
p132
tp133
Rp134
ag56
(g26
S'-C\x1c\xeb\xe26*?'
p135
tp136
Rp137
ag56
(g26
S'\xfc\xa9\xf1\xd2Mb@?'
p138
tp139
Rp140
ag56
(g26
S'a2U0*\xa9S?'
p141
tp142
Rp143
ag56
(g26
S'\xfc\xa9\xf1\xd2Mb@?'
p144
tp145
Rp146
ag56
(g26
S'a2U0*\xa9C?'
p147
tp148
Rp149
ag56
(g26
S'\xfc\xa9\xf1\xd2Mb@?'
p150
tp151
Rp152
ag56
(g26
S'a2U0*\xa93?'
p153
tp154
Rp155
ag56
(g26
S'-C\x1c\xeb\xe26:?'
p156
tp157
Rp158
ag56
(g26
S'-C\x1c\xeb\xe26:?'
p159
tp160
Rp161
ag56
(g26
S'-C\x1c\xeb\xe26:?'
p162
tp163
Rp164
ag56
(g26
S'-C\x1c\xeb\xe26J?'
p165
tp166
Rp167
ag56
(g26
S'a2U0*\xa93?'
p168
tp169
Rp170
ag56
(g26
S'-C\x1c\xeb\xe26*?'
p171
tp172
Rp173
ag56
(g26
S'-C\x1c\xeb\xe26*?'
p174
tp175
Rp176
ag56
(g26
S'a2U0*\xa93?'
p177
tp178
Rp179
ag56
(g26
S'-C\x1c\xeb\xe26:?'
p180
tp181
Rp182
ag56
(g26
S'a2U0*\xa93?'
p183
tp184
Rp185
ag56
(g26
S'-C\x1c\xeb\xe26*?'
p186
tp187
Rp188
ag56
(g26
S'-C\x1c\xeb\xe26\x1a?'
p189
tp190
Rp191
ag56
(g26
S'-C\x1c\xeb\xe26\x1a?'
p192
tp193
Rp194
ag56
(g26
S'-C\x1c\xeb\xe26\x1a?'
p195
tp196
Rp197
ag56
(g26
S'-C\x1c\xeb\xe26*?'
p198
tp199
Rp200
ag56
(g26
S'-C\x1c\xeb\xe26*?'
p201
tp202
Rp203
ag56
(g26
S'-C\x1c\xeb\xe26*?'
p204
tp205
Rp206
ag56
(g26
S'-C\x1c\xeb\xe26*?'
p207
tp208
Rp209
ag56
(g26
S'-C\x1c\xeb\xe26*?'
p210
tp211
Rp212
ag56
(g26
S'a2U0*\xa93?'
p213
tp214
Rp215
ag56
(g26
S'-C\x1c\xeb\xe26\x1a?'
p216
tp217
Rp218
ag56
(g26
S'-C\x1c\xeb\xe26\x1a?'
p219
tp220
Rp221
ag56
(g26
S'-C\x1c\xeb\xe26\x1a?'
p222
tp223
Rp224
ag56
(g26
S'-C\x1c\xeb\xe26*?'
p225
tp226
Rp227
ag56
(g26
S'-C\x1c\xeb\xe26\x1a?'
p228
tp229
Rp230
ag56
(g26
S'-C\x1c\xeb\xe26\x1a?'
p231
tp232
Rp233
ag56
(g26
S'-C\x1c\xeb\xe26:?'
p234
tp235
Rp236
ag56
(g26
S'-C\x1c\xeb\xe26\x1a?'
p237
tp238
Rp239
ag56
(g26
S'-C\x1c\xeb\xe26*?'
p240
tp241
Rp242
ag56
(g26
S'-C\x1c\xeb\xe26\x1a?'
p243
tp244
Rp245
ag56
(g26
S'-C\x1c\xeb\xe26*?'
p246
tp247
Rp248
ag56
(g26
S'-C\x1c\xeb\xe26\x1a?'
p249
tp250
Rp251
ag56
(g26
S'-C\x1c\xeb\xe26\x1a?'
p252
tp253
Rp254
ag56
(g26
S'-C\x1c\xeb\xe26\x1a?'
p255
tp256
Rp257
ag56
(g26
S'-C\x1c\xeb\xe26\x1a?'
p258
tp259
Rp260
ag56
(g26
S'-C\x1c\xeb\xe26\x1a?'
p261
tp262
Rp263
ag56
(g26
S'-C\x1c\xeb\xe26\x1a?'
p264
tp265
Rp266
ag56
(g26
S'-C\x1c\xeb\xe26*?'
p267
tp268
Rp269
ag56
(g26
S'-C\x1c\xeb\xe26\x1a?'
p270
tp271
Rp272
ag56
(g26
S'-C\x1c\xeb\xe26\x1a?'
p273
tp274
Rp275
ag56
(g26
S'-C\x1c\xeb\xe26\x1a?'
p276
tp277
Rp278
ag56
(g26
S'-C\x1c\xeb\xe26\x1a?'
p279
tp280
Rp281
ag56
(g26
S'-C\x1c\xeb\xe26\x1a?'
p282
tp283
Rp284
ag56
(g26
S'-C\x1c\xeb\xe26\x1a?'
p285
tp286
Rp287
ag56
(g26
S'-C\x1c\xeb\xe26\x1a?'
p288
tp289
Rp290
ag56
(g26
S'-C\x1c\xeb\xe26\x1a?'
p291
tp292
Rp293
ag56
(g26
S'-C\x1c\xeb\xe26\x1a?'
p294
tp295
Rp296
ag56
(g26
S'-C\x1c\xeb\xe26\x1a?'
p297
tp298
Rp299
ag56
(g26
S'-C\x1c\xeb\xe26\x1a?'
p300
tp301
Rp302
ag56
(g26
S'-C\x1c\xeb\xe26\x1a?'
p303
tp304
Rp305
ag56
(g26
S'-C\x1c\xeb\xe26\x1a?'
p306
tp307
Rp308
ag56
(g26
S'-C\x1c\xeb\xe26\x1a?'
p309
tp310
Rp311
ag56
(g26
S'-C\x1c\xeb\xe26\x1a?'
p312
tp313
Rp314
ag56
(g26
S'-C\x1c\xeb\xe26\x1a?'
p315
tp316
Rp317
asS'corr_func'
p318
(dp319
I3
(lp320
F0.0
aF0.11055941741145316
aF0.11461436610393909
aF0.0979808010592519
aF0.07389937106918239
aF0.06049321416749421
aF0.049073154584574646
aF0.0451837140019861
aF0.037073816617014234
aF0.02896391923204237
aF0.0263985435286329
aF0.026067527308838132
aF0.019116186693147963
aF0.025074478649453825
aF0.0165508109897385
aF0.01166832174776564
aF0.009020191989407482
aF0.008771929824561403
aF0.011254551473022179
aF0.012578616352201259
aF0.011254551473022179
aF0.006620324395895399
aF0.006785832505792784
aF0.009185700099304866
aF0.003227408142999007
aF0.00802714333002317
aF0.0010758027143330023
aF0.003558424362793777
aF0.008109897384971863
aF0.003723932472691162
aF0.004468718967229395
aF0.003475670307845084
aF0.0026481297583581596
aF0.0029791459781529296
aF0.003392916252896392
aF0.003475670307845084
aF0.005544521681562397
aF0.0026481297583581596
aF0.0015723270440251573
aF0.0016550810989738498
aF0.0029791459781529296
aF0.004303210857332009
aF0.002565375703409467
aF0.0014895729890764648
aF0.0009930486593843098
aF0.0011585567692816948
aF0.0007447864945382324
aF0.0021516054286660046
aF0.0021516054286660046
aF0.001737835153922542
aF0.002730883813306852
aF0.0016550810989738498
aF0.005130751406818934
aF0.0010758027143330023
aF0.0009102946044356173
aF0.0013240648791790798
aF0.0026481297583581596
aF0.0009930486593843098
aF0.0014068189341277723
aF0.004799735187024164
aF0.0013240648791790798
aF0.003475670307845084
aF0.0020688513737173123
aF0.003641178417742469
aF0.0012413108242303873
aF0.0009930486593843098
aF0.0019860973187686196
aF0.0014895729890764648
aF0.0022343594836146973
aF0.0013240648791790798
aF0.0053790135716650115
aF0.0014068189341277723
aF0.0020688513737173123
aF0.0019860973187686196
aF0.0023171135385633896
aF0.0015723270440251573
aF0.002896391923204237
aF0.003061900033101622
aF0.0031446540880503146
aF0.003889440582588547
aF0.003475670307845084
aF0.003723932472691162
aF0.003227408142999007
aF0.003972194637537239
aF0.005213505461767627
aF0.006454816285998014
aF0.0057100297914597815
asI4
(lp321
F0.17145790554414783
aF0.09137577002053388
aF0.08046714579055442
aF0.07174024640657084
aF0.05479979466119096
aF0.052618069815195075
aF0.03747433264887064
aF0.03939938398357289
aF0.029774127310061602
aF0.02566735112936345
aF0.021560574948665298
aF0.02053388090349076
aF0.020662217659137578
aF0.02245893223819302
aF0.014117043121149897
aF0.008983572895277207
aF0.008983572895277207
aF0.008598562628336756
aF0.009111909650924024
aF0.010780287474332649
aF0.00936858316221766
aF0.004363449691991786
aF0.005518480492813142
aF0.006031827515400411
aF0.0033367556468172485
aF0.0077002053388090345
aF0.0011550308008213552
aF0.002566735112936345
aF0.00795687885010267
aF0.0026950718685831623
aF0.0042351129363449695
aF0.0038501026694045173
aF0.003208418891170431
aF0.002566735112936345
aF0.0029517453798767967
aF0.002438398357289528
aF0.007186858316221766
aF0.0023100616016427105
aF0.0017967145790554414
aF0.0026950718685831623
aF0.0026950718685831623
aF0.003593429158110883
aF0.0028234086242299797
aF0.0019250513347022586
aF0.0014117043121149898
aF0.0007700205338809035
aF0.0011550308008213552
aF0.0023100616016427105
aF0.001026694045174538
aF0.0016683778234086242
aF0.0014117043121149898
aF0.0019250513347022586
aF0.003978439425051335
aF0.001540041067761807
aF0.001540041067761807
aF0.0012833675564681724
aF0.002053388090349076
aF0.0011550308008213552
aF0.0019250513347022586
aF0.00513347022587269
aF0.0019250513347022586
aF0.003978439425051335
aF0.0012833675564681724
aF0.002438398357289528
aF0.0011550308008213552
aF0.0016683778234086242
aF0.001540041067761807
aF0.002438398357289528
aF0.0012833675564681724
aF0.0017967145790554414
aF0.003080082135523614
aF0.002438398357289528
aF0.001540041067761807
aF0.0017967145790554414
aF0.001540041067761807
aF0.0026950718685831623
aF0.0028234086242299797
aF0.003208418891170431
aF0.0029517453798767967
aF0.0023100616016427105
aF0.0037217659137577003
aF0.002566735112936345
aF0.003978439425051335
aF0.0029517453798767967
aF0.003593429158110883
aF0.004363449691991786
aF0.009111909650924024
asI5
(lp322
F0.2392055267702936
aF0.10829015544041451
aF0.08082901554404145
aF0.061139896373056994
aF0.047150259067357515
aF0.04006908462867012
aF0.03316062176165803
aF0.03316062176165803
aF0.02780656303972366
aF0.02366148531951641
aF0.020207253886010364
aF0.01934369602763385
aF0.013989637305699482
aF0.01848013816925734
aF0.014162348877374784
aF0.008981001727115717
aF0.0065630397236614854
aF0.006390328151986183
aF0.01070811744386874
aF0.01070811744386874
aF0.007081174438687392
aF0.0034542314335060447
aF0.004490500863557859
aF0.00466321243523316
aF0.0024179620034542313
aF0.008808290155440414
aF0.0010362694300518134
aF0.0018998272884283246
aF0.009499136442141624
aF0.0031088082901554403
aF0.003626943005181347
aF0.0037996545768566492
aF0.001381692573402418
aF0.0024179620034542313
aF0.0029360967184801382
aF0.0031088082901554403
aF0.0069084628670120895
aF0.0018998272884283246
aF0.0022452504317789293
aF0.001381692573402418
aF0.0015544041450777201
aF0.002072538860103627
aF0.003626943005181347
aF0.0018998272884283246
aF0.000690846286701209
aF0.0008635578583765112
aF0.000690846286701209
aF0.0024179620034542313
aF0.002763385146804836
aF0.0018998272884283246
aF0.0017271157167530224
aF0.0025906735751295338
aF0.002763385146804836
aF0.0003454231433506045
aF0.000690846286701209
aF0.0012089810017271157
aF0.0025906735751295338
aF0.0018998272884283246
aF0.001381692573402418
aF0.004145077720207254
aF0.001381692573402418
aF0.0017271157167530224
aF0.0012089810017271157
aF0.001381692573402418
aF0.0018998272884283246
aF0.0012089810017271157
aF0.0010362694300518134
aF0.001381692573402418
aF0.0012089810017271157
aF0.0015544041450777201
aF0.0031088082901554403
aF0.0015544041450777201
aF0.0025906735751295338
aF0.0024179620034542313
aF0.0018998272884283246
aF0.0022452504317789293
aF0.0024179620034542313
aF0.002072538860103627
aF0.0018998272884283246
aF0.0025906735751295338
aF0.0024179620034542313
aF0.002072538860103627
aF0.0032815198618307427
aF0.002763385146804836
aF0.0032815198618307427
aF0.003972366148531951
aF0.007426597582037997
asI6
(lp323
F0.26523297491039427
aF0.12522401433691757
aF0.0793010752688172
aF0.06137992831541219
aF0.039874551971326166
aF0.04233870967741935
aF0.029793906810035842
aF0.027777777777777776
aF0.02307347670250896
aF0.019489247311827957
aF0.018593189964157705
aF0.01724910394265233
aF0.012544802867383513
aF0.01635304659498208
aF0.013440860215053764
aF0.011200716845878136
aF0.005824372759856631
aF0.006720430107526882
aF0.008736559139784945
aF0.006944444444444444
aF0.008288530465949821
aF0.0031362007168458782
aF0.0031362007168458782
aF0.00492831541218638
aF0.0031362007168458782
aF0.0062724014336917565
aF0.0015681003584229391
aF0.0031362007168458782
aF0.007168458781362007
aF0.00246415770609319
aF0.002240143369175627
aF0.003360215053763441
aF0.0008960573476702509
aF0.003360215053763441
aF0.00246415770609319
aF0.002688172043010753
aF0.006496415770609319
aF0.0020161290322580645
aF0.0011200716845878136
aF0.0013440860215053765
aF0.002240143369175627
aF0.0020161290322580645
aF0.0015681003584229391
aF0.0013440860215053765
aF0.0013440860215053765
aF0.0008960573476702509
aF0.0008960573476702509
aF0.0020161290322580645
aF0.0017921146953405018
aF0.0031362007168458782
aF0.0006720430107526882
aF0.0031362007168458782
aF0.0017921146953405018
aF0.0013440860215053765
aF0.0008960573476702509
aF0.0020161290322580645
aF0.002240143369175627
aF0.0006720430107526882
aF0.0006720430107526882
aF0.006048387096774193
aF0.0013440860215053765
aF0.0020161290322580645
aF0.0006720430107526882
aF0.002688172043010753
aF0.0006720430107526882
aF0.0011200716845878136
aF0.0006720430107526882
aF0.0013440860215053765
aF0.002240143369175627
aF0.0008960573476702509
aF0.002688172043010753
aF0.0020161290322580645
aF0.0015681003584229391
aF0.0020161290322580645
aF0.0035842293906810036
aF0.0015681003584229391
aF0.0031362007168458782
aF0.0029121863799283156
aF0.00246415770609319
aF0.00246415770609319
aF0.0015681003584229391
aF0.002688172043010753
aF0.0029121863799283156
aF0.0035842293906810036
aF0.004704301075268817
aF0.0035842293906810036
aF0.005824372759856631
asI7
(lp324
F0.28037676609105183
aF0.13406593406593406
aF0.08571428571428572
aF0.05588697017268446
aF0.04270015698587127
aF0.038304552590266876
aF0.029199372056514912
aF0.021664050235478807
aF0.02040816326530612
aF0.017582417582417582
aF0.01726844583987441
aF0.0163265306122449
aF0.015070643642072213
aF0.01664050235478807
aF0.012558869701726845
aF0.006593406593406593
aF0.002511773940345369
aF0.00816326530612245
aF0.00816326530612245
aF0.00565149136577708
aF0.009105180533751962
aF0.006593406593406593
aF0.009419152276295133
aF0.003453689167974882
aF0.003453689167974882
aF0.004395604395604396
aF0.0012558869701726845
aF0.00282574568288854
aF0.0037676609105180532
aF0.002511773940345369
aF0.004709576138147566
aF0.0031397174254317113
aF0.0012558869701726845
aF0.00282574568288854
aF0.003453689167974882
aF0.005023547880690738
aF0.00565149136577708
aF0.0009419152276295133
aF0.0003139717425431711
aF0.0006279434850863422
aF0.002197802197802198
aF0.003453689167974882
aF0.0018838304552590266
aF0.0018838304552590266
aF0.0
aF0.0003139717425431711
aF0.0003139717425431711
aF0.0006279434850863422
aF0.0015698587127158557
aF0.0015698587127158557
aF0.002197802197802198
aF0.002197802197802198
aF0.0015698587127158557
aF0.0009419152276295133
aF0.002197802197802198
aF0.0
aF0.004081632653061225
aF0.0012558869701726845
aF0.0009419152276295133
aF0.0037676609105180532
aF0.0015698587127158557
aF0.0012558869701726845
aF0.002197802197802198
aF0.0015698587127158557
aF0.0012558869701726845
aF0.0012558869701726845
aF0.0003139717425431711
aF0.0015698587127158557
aF0.0015698587127158557
aF0.0006279434850863422
aF0.0015698587127158557
aF0.0015698587127158557
aF0.002511773940345369
aF0.0018838304552590266
aF0.0015698587127158557
aF0.002511773940345369
aF0.0012558869701726845
aF0.0009419152276295133
aF0.003453689167974882
aF0.00282574568288854
aF0.0018838304552590266
aF0.0031397174254317113
aF0.003453689167974882
aF0.0037676609105180532
aF0.002511773940345369
aF0.003453689167974882
aF0.005965463108320251
asI8
(lp325
F0.2695427728613569
aF0.15117994100294985
aF0.0855457227138643
aF0.06969026548672566
aF0.04498525073746313
aF0.033185840707964605
aF0.019174041297935103
aF0.022123893805309734
aF0.01991150442477876
aF0.018436578171091445
aF0.01696165191740413
aF0.012168141592920354
aF0.012536873156342183
aF0.015855457227138645
aF0.007743362831858407
aF0.008480825958702065
aF0.00663716814159292
aF0.0058997050147492625
aF0.00663716814159292
aF0.007005899705014749
aF0.004793510324483776
aF0.004793510324483776
aF0.00331858407079646
aF0.004793510324483776
aF0.0018436578171091445
aF0.005162241887905605
aF0.0011061946902654867
aF0.0025811209439528023
aF0.008112094395280236
aF0.0029498525073746312
aF0.004793510324483776
aF0.0025811209439528023
aF0.0022123893805309734
aF0.0029498525073746312
aF0.0025811209439528023
aF0.0018436578171091445
aF0.0029498525073746312
aF0.0018436578171091445
aF0.0025811209439528023
aF0.0007374631268436578
aF0.0011061946902654867
aF0.004056047197640118
aF0.0029498525073746312
aF0.0029498525073746312
aF0.0003687315634218289
aF0.0007374631268436578
aF0.0011061946902654867
aF0.0007374631268436578
aF0.0018436578171091445
aF0.0022123893805309734
aF0.00331858407079646
aF0.0011061946902654867
aF0.0014749262536873156
aF0.0011061946902654867
aF0.0003687315634218289
aF0.0
aF0.0025811209439528023
aF0.0014749262536873156
aF0.0003687315634218289
aF0.0058997050147492625
aF0.0011061946902654867
aF0.0018436578171091445
aF0.0003687315634218289
aF0.0011061946902654867
aF0.0025811209439528023
aF0.0003687315634218289
aF0.0025811209439528023
aF0.0003687315634218289
aF0.0018436578171091445
aF0.0014749262536873156
aF0.00331858407079646
aF0.0022123893805309734
aF0.0014749262536873156
aF0.0022123893805309734
aF0.0011061946902654867
aF0.0029498525073746312
aF0.00331858407079646
aF0.0018436578171091445
aF0.003687315634218289
aF0.0022123893805309734
aF0.004424778761061947
aF0.0025811209439528023
aF0.004424778761061947
aF0.0029498525073746312
aF0.003687315634218289
aF0.004793510324483776
aF0.005162241887905605
asI9
(lp326
F0.2852332852332852
aF0.14045214045214044
aF0.09235209235209235
aF0.06397306397306397
aF0.044733044733044736
aF0.025012025012025013
aF0.03367003367003367
aF0.021164021164021163
aF0.016835016835016835
aF0.015392015392015393
aF0.01827801827801828
aF0.016835016835016835
aF0.010582010582010581
aF0.01443001443001443
aF0.011063011063011063
aF0.008177008177008177
aF0.005772005772005772
aF0.005772005772005772
aF0.007215007215007215
aF0.008177008177008177
aF0.006734006734006734
aF0.003848003848003848
aF0.005291005291005291
aF0.003848003848003848
aF0.003367003367003367
aF0.008658008658008658
aF0.0
aF0.002405002405002405
aF0.005291005291005291
aF0.001924001924001924
aF0.003848003848003848
aF0.000481000481000481
aF0.000481000481000481
aF0.003367003367003367
aF0.002405002405002405
aF0.000962000962000962
aF0.004329004329004329
aF0.002405002405002405
aF0.001443001443001443
aF0.002405002405002405
aF0.001443001443001443
aF0.001924001924001924
aF0.001443001443001443
aF0.000962000962000962
aF0.000481000481000481
aF0.000481000481000481
aF0.000962000962000962
aF0.002405002405002405
aF0.003848003848003848
aF0.000962000962000962
aF0.000481000481000481
aF0.001924001924001924
aF0.000962000962000962
aF0.001443001443001443
aF0.000962000962000962
aF0.000962000962000962
aF0.000481000481000481
aF0.001924001924001924
aF0.001443001443001443
aF0.002405002405002405
aF0.000962000962000962
aF0.001924001924001924
aF0.000481000481000481
aF0.003848003848003848
aF0.000481000481000481
aF0.000481000481000481
aF0.000962000962000962
aF0.001443001443001443
aF0.000481000481000481
aF0.004329004329004329
aF0.001443001443001443
aF0.001924001924001924
aF0.002405002405002405
aF0.001924001924001924
aF0.001924001924001924
aF0.000962000962000962
aF0.000481000481000481
aF0.004329004329004329
aF0.001443001443001443
aF0.001443001443001443
aF0.000962000962000962
aF0.003848003848003848
aF0.002886002886002886
aF0.003848003848003848
aF0.00481000481000481
aF0.006253006253006253
aF0.007215007215007215
asI10
(lp327
F0.284375
aF0.15989583333333332
aF0.1
aF0.06458333333333334
aF0.0359375
aF0.03125
aF0.022916666666666665
aF0.03333333333333333
aF0.019791666666666666
aF0.016145833333333335
aF0.013020833333333334
aF0.013541666666666667
aF0.009895833333333333
aF0.015625
aF0.0078125
aF0.008854166666666666
aF0.004166666666666667
aF0.00625
aF0.0046875
aF0.0046875
aF0.0067708333333333336
aF0.0036458333333333334
aF0.004166666666666667
aF0.005208333333333333
aF0.0020833333333333333
aF0.005208333333333333
aF0.0015625
aF0.0020833333333333333
aF0.003125
aF0.0020833333333333333
aF0.0026041666666666665
aF0.0020833333333333333
aF0.0015625
aF0.0005208333333333333
aF0.0020833333333333333
aF0.003125
aF0.004166666666666667
aF0.0015625
aF0.0015625
aF0.0005208333333333333
aF0.0026041666666666665
aF0.003125
aF0.0010416666666666667
aF0.0
aF0.0
aF0.0
aF0.0015625
aF0.0010416666666666667
aF0.0026041666666666665
aF0.0020833333333333333
aF0.0010416666666666667
aF0.0010416666666666667
aF0.003125
aF0.0005208333333333333
aF0.0020833333333333333
aF0.0015625
aF0.0036458333333333334
aF0.0005208333333333333
aF0.0005208333333333333
aF0.005729166666666666
aF0.0
aF0.0010416666666666667
aF0.0
aF0.003125
aF0.0015625
aF0.0015625
aF0.0010416666666666667
aF0.0005208333333333333
aF0.0005208333333333333
aF0.0010416666666666667
aF0.004166666666666667
aF0.0020833333333333333
aF0.0020833333333333333
aF0.0010416666666666667
aF0.0015625
aF0.0015625
aF0.0026041666666666665
aF0.0
aF0.0026041666666666665
aF0.003125
aF0.003125
aF0.0015625
aF0.003125
aF0.003125
aF0.0020833333333333333
aF0.0036458333333333334
aF0.005729166666666666
asI11
(lp328
F0.29300196206671025
aF0.15173315892740352
aF0.105297580117724
aF0.06736429038587312
aF0.04251144538914323
aF0.03531720078482668
aF0.02289077828646174
aF0.02485284499672989
aF0.011772400261608895
aF0.011118378024852845
aF0.010464355788096796
aF0.013734466971877043
aF0.010464355788096796
aF0.013080444735120994
aF0.007194244604316547
aF0.007194244604316547
aF0.004578155657292348
aF0.006540222367560497
aF0.004578155657292348
aF0.005886200130804447
aF0.002616088947024199
aF0.002616088947024199
aF0.005232177894048398
aF0.007194244604316547
aF0.003924133420536298
aF0.004578155657292348
aF0.001962066710268149
aF0.001962066710268149
aF0.005232177894048398
aF0.002616088947024199
aF0.001962066710268149
aF0.001962066710268149
aF0.001962066710268149
aF0.0013080444735120995
aF0.0013080444735120995
aF0.002616088947024199
aF0.001962066710268149
aF0.001962066710268149
aF0.0013080444735120995
aF0.0013080444735120995
aF0.0013080444735120995
aF0.005232177894048398
aF0.0013080444735120995
aF0.0013080444735120995
aF0.0013080444735120995
aF0.0013080444735120995
aF0.0013080444735120995
aF0.001962066710268149
aF0.0013080444735120995
aF0.0013080444735120995
aF0.0006540222367560497
aF0.0013080444735120995
aF0.002616088947024199
aF0.001962066710268149
aF0.0
aF0.0
aF0.0013080444735120995
aF0.0013080444735120995
aF0.0006540222367560497
aF0.001962066710268149
aF0.0
aF0.0013080444735120995
aF0.0013080444735120995
aF0.002616088947024199
aF0.001962066710268149
aF0.0013080444735120995
aF0.0013080444735120995
aF0.001962066710268149
aF0.0006540222367560497
aF0.001962066710268149
aF0.001962066710268149
aF0.003924133420536298
aF0.002616088947024199
aF0.002616088947024199
aF0.001962066710268149
aF0.0013080444735120995
aF0.0013080444735120995
aF0.0032701111837802484
aF0.003924133420536298
aF0.0013080444735120995
aF0.001962066710268149
aF0.0032701111837802484
aF0.002616088947024199
aF0.0032701111837802484
aF0.003924133420536298
aF0.004578155657292348
aF0.007194244604316547
asI12
(lp329
F0.2751572327044025
aF0.15723270440251572
aF0.10770440251572327
aF0.06839622641509434
aF0.0440251572327044
aF0.03930817610062893
aF0.025157232704402517
aF0.02437106918238994
aF0.013364779874213837
aF0.01729559748427673
aF0.012578616352201259
aF0.006289308176100629
aF0.012578616352201259
aF0.0110062893081761
aF0.009433962264150943
aF0.007861635220125786
aF0.0031446540880503146
aF0.006289308176100629
aF0.003930817610062893
aF0.007861635220125786
aF0.010220125786163521
aF0.0015723270440251573
aF0.00550314465408805
aF0.00550314465408805
aF0.0031446540880503146
aF0.007075471698113208
aF0.0007861635220125787
aF0.0007861635220125787
aF0.003930817610062893
aF0.0047169811320754715
aF0.0047169811320754715
aF0.0031446540880503146
aF0.0023584905660377358
aF0.0031446540880503146
aF0.0007861635220125787
aF0.0007861635220125787
aF0.003930817610062893
aF0.0015723270440251573
aF0.0
aF0.0007861635220125787
aF0.003930817610062893
aF0.003930817610062893
aF0.0047169811320754715
aF0.0
aF0.0
aF0.0007861635220125787
aF0.0
aF0.0015723270440251573
aF0.0007861635220125787
aF0.0023584905660377358
aF0.0
aF0.0015723270440251573
aF0.0007861635220125787
aF0.0015723270440251573
aF0.0
aF0.0007861635220125787
aF0.0007861635220125787
aF0.0007861635220125787
aF0.0015723270440251573
aF0.007075471698113208
aF0.0023584905660377358
aF0.0023584905660377358
aF0.0007861635220125787
aF0.0031446540880503146
aF0.0007861635220125787
aF0.0023584905660377358
aF0.0007861635220125787
aF0.0
aF0.0007861635220125787
aF0.0
aF0.0023584905660377358
aF0.0
aF0.0007861635220125787
aF0.0023584905660377358
aF0.0007861635220125787
aF0.0023584905660377358
aF0.0007861635220125787
aF0.0007861635220125787
aF0.0
aF0.0031446540880503146
aF0.0007861635220125787
aF0.0031446540880503146
aF0.0031446540880503146
aF0.003930817610062893
aF0.0031446540880503146
aF0.0023584905660377358
aF0.006289308176100629
asI13
(lp330
F0.2757130509939499
aF0.14520311149524634
aF0.10112359550561797
aF0.07173725151253241
aF0.04753673292999136
aF0.03975799481417459
aF0.032843560933448576
aF0.021607605877268798
aF0.013828867761452032
aF0.013828867761452032
aF0.013828867761452032
aF0.00950734658599827
aF0.01296456352636128
aF0.011235955056179775
aF0.015557476231633534
aF0.006050129645635264
aF0.006914433880726016
aF0.001728608470181504
aF0.003457216940363008
aF0.006914433880726016
aF0.00950734658599827
aF0.005185825410544511
aF0.005185825410544511
aF0.0025929127052722557
aF0.003457216940363008
aF0.006050129645635264
aF0.0
aF0.0025929127052722557
aF0.006914433880726016
aF0.003457216940363008
aF0.000864304235090752
aF0.0025929127052722557
aF0.0025929127052722557
aF0.001728608470181504
aF0.000864304235090752
aF0.005185825410544511
aF0.003457216940363008
aF0.0025929127052722557
aF0.000864304235090752
aF0.0
aF0.001728608470181504
aF0.003457216940363008
aF0.0025929127052722557
aF0.0025929127052722557
aF0.0
aF0.001728608470181504
aF0.001728608470181504
aF0.000864304235090752
aF0.000864304235090752
aF0.00432152117545376
aF0.001728608470181504
aF0.0025929127052722557
aF0.00432152117545376
aF0.0
aF0.000864304235090752
aF0.000864304235090752
aF0.0025929127052722557
aF0.0
aF0.000864304235090752
aF0.0025929127052722557
aF0.0
aF0.000864304235090752
aF0.000864304235090752
aF0.0025929127052722557
aF0.0
aF0.001728608470181504
aF0.0025929127052722557
aF0.000864304235090752
aF0.001728608470181504
aF0.001728608470181504
aF0.001728608470181504
aF0.0
aF0.001728608470181504
aF0.0
aF0.001728608470181504
aF0.0025929127052722557
aF0.000864304235090752
aF0.0
aF0.003457216940363008
aF0.001728608470181504
aF0.0025929127052722557
aF0.0025929127052722557
aF0.001728608470181504
aF0.003457216940363008
aF0.00432152117545376
aF0.0025929127052722557
aF0.0025929127052722557
asI14
(lp331
F0.2922077922077922
aF0.14842300556586271
aF0.1038961038961039
aF0.07142857142857142
aF0.04823747680890538
aF0.030612244897959183
aF0.032467532467532464
aF0.02411873840445269
aF0.01948051948051948
aF0.0074211502782931356
aF0.01020408163265306
aF0.02040816326530612
aF0.008348794063079777
aF0.012987012987012988
aF0.01020408163265306
aF0.0027829313543599257
aF0.0018552875695732839
aF0.008348794063079777
aF0.0009276437847866419
aF0.0055658627087198514
aF0.0074211502782931356
aF0.0027829313543599257
aF0.00463821892393321
aF0.00463821892393321
aF0.0027829313543599257
aF0.0018552875695732839
aF0.0
aF0.0
aF0.00463821892393321
aF0.0018552875695732839
aF0.0018552875695732839
aF0.0018552875695732839
aF0.0
aF0.0027829313543599257
aF0.0027829313543599257
aF0.0018552875695732839
aF0.0037105751391465678
aF0.0037105751391465678
aF0.0018552875695732839
aF0.0
aF0.0
aF0.0009276437847866419
aF0.0009276437847866419
aF0.0018552875695732839
aF0.0037105751391465678
aF0.0018552875695732839
aF0.0
aF0.0018552875695732839
aF0.0018552875695732839
aF0.0018552875695732839
aF0.0027829313543599257
aF0.0018552875695732839
aF0.0
aF0.0
aF0.0009276437847866419
aF0.0009276437847866419
aF0.00463821892393321
aF0.0027829313543599257
aF0.0009276437847866419
aF0.006493506493506494
aF0.0009276437847866419
aF0.0009276437847866419
aF0.0009276437847866419
aF0.0018552875695732839
aF0.0009276437847866419
aF0.00463821892393321
aF0.0
aF0.0018552875695732839
aF0.0009276437847866419
aF0.0009276437847866419
aF0.0027829313543599257
aF0.0009276437847866419
aF0.0037105751391465678
aF0.0009276437847866419
aF0.0018552875695732839
aF0.0
aF0.0037105751391465678
aF0.0018552875695732839
aF0.0037105751391465678
aF0.0009276437847866419
aF0.0009276437847866419
aF0.0037105751391465678
aF0.0018552875695732839
aF0.0018552875695732839
aF0.0009276437847866419
aF0.0074211502782931356
aF0.0018552875695732839
asI15
(lp332
F0.26101694915254237
aF0.18192090395480226
aF0.09152542372881356
aF0.06327683615819209
aF0.05423728813559322
aF0.0384180790960452
aF0.024858757062146894
aF0.021468926553672316
aF0.01807909604519774
aF0.01807909604519774
aF0.01694915254237288
aF0.010169491525423728
aF0.01807909604519774
aF0.013559322033898305
aF0.010169491525423728
aF0.006779661016949152
aF0.004519774011299435
aF0.0011299435028248588
aF0.006779661016949152
aF0.004519774011299435
aF0.011299435028248588
aF0.0022598870056497176
aF0.007909604519774011
aF0.006779661016949152
aF0.0022598870056497176
aF0.0022598870056497176
aF0.0
aF0.003389830508474576
aF0.004519774011299435
aF0.0022598870056497176
aF0.0022598870056497176
aF0.006779661016949152
aF0.0
aF0.0
aF0.0011299435028248588
aF0.0
aF0.0022598870056497176
aF0.0
aF0.0011299435028248588
aF0.0022598870056497176
aF0.0022598870056497176
aF0.0011299435028248588
aF0.0011299435028248588
aF0.0011299435028248588
aF0.0011299435028248588
aF0.0
aF0.0011299435028248588
aF0.003389830508474576
aF0.0022598870056497176
aF0.0
aF0.005649717514124294
aF0.003389830508474576
aF0.0022598870056497176
aF0.0
aF0.0
aF0.0
aF0.0011299435028248588
aF0.0
aF0.0
aF0.003389830508474576
aF0.003389830508474576
aF0.0011299435028248588
aF0.0
aF0.003389830508474576
aF0.0022598870056497176
aF0.0
aF0.0011299435028248588
aF0.0
aF0.0
aF0.0011299435028248588
aF0.0
aF0.0
aF0.0
aF0.0011299435028248588
aF0.0011299435028248588
aF0.0022598870056497176
aF0.0011299435028248588
aF0.006779661016949152
aF0.0011299435028248588
aF0.0011299435028248588
aF0.004519774011299435
aF0.0022598870056497176
aF0.0
aF0.0
aF0.003389830508474576
aF0.0022598870056497176
aF0.006779661016949152
asI16
(lp333
F0.2826492537313433
aF0.16324626865671643
aF0.09981343283582089
aF0.06809701492537314
aF0.049440298507462684
aF0.04011194029850746
aF0.027985074626865673
aF0.027985074626865673
aF0.018656716417910446
aF0.013059701492537313
aF0.012126865671641791
aF0.013059701492537313
aF0.011194029850746268
aF0.009328358208955223
aF0.012126865671641791
aF0.005597014925373134
aF0.0065298507462686565
aF0.002798507462686567
aF0.005597014925373134
aF0.010261194029850746
aF0.0046641791044776115
aF0.0018656716417910447
aF0.0065298507462686565
aF0.0065298507462686565
aF0.002798507462686567
aF0.008395522388059701
aF0.0
aF0.0009328358208955224
aF0.0009328358208955224
aF0.0009328358208955224
aF0.0009328358208955224
aF0.0018656716417910447
aF0.0009328358208955224
aF0.0009328358208955224
aF0.0018656716417910447
aF0.0009328358208955224
aF0.0046641791044776115
aF0.0009328358208955224
aF0.0018656716417910447
aF0.002798507462686567
aF0.002798507462686567
aF0.0
aF0.0046641791044776115
aF0.0009328358208955224
aF0.0009328358208955224
aF0.0009328358208955224
aF0.0018656716417910447
aF0.0
aF0.0009328358208955224
aF0.0009328358208955224
aF0.0009328358208955224
aF0.0009328358208955224
aF0.002798507462686567
aF0.0009328358208955224
aF0.0
aF0.0009328358208955224
aF0.0009328358208955224
aF0.0
aF0.0009328358208955224
aF0.0046641791044776115
aF0.0
aF0.002798507462686567
aF0.0
aF0.002798507462686567
aF0.0
aF0.0
aF0.0
aF0.0009328358208955224
aF0.0009328358208955224
aF0.002798507462686567
aF0.0
aF0.0009328358208955224
aF0.0037313432835820895
aF0.0009328358208955224
aF0.0
aF0.0018656716417910447
aF0.0009328358208955224
aF0.0
aF0.002798507462686567
aF0.0009328358208955224
aF0.0
aF0.0009328358208955224
aF0.0018656716417910447
aF0.0037313432835820895
aF0.002798507462686567
aF0.0065298507462686565
aF0.0037313432835820895
asI17
(lp334
F0.27359781121751026
aF0.15047879616963064
aF0.1121751025991792
aF0.08207934336525308
aF0.05471956224350205
aF0.028727770177838577
aF0.03146374829001368
aF0.02051983584131327
aF0.015047879616963064
aF0.016415868673050615
aF0.024623803009575923
aF0.015047879616963064
aF0.012311901504787962
aF0.017783857729138167
aF0.0027359781121751026
aF0.006839945280437756
aF0.0013679890560875513
aF0.005471956224350205
aF0.004103967168262654
aF0.005471956224350205
aF0.008207934336525308
aF0.0
aF0.005471956224350205
aF0.0013679890560875513
aF0.0
aF0.009575923392612859
aF0.0
aF0.0027359781121751026
aF0.0027359781121751026
aF0.0027359781121751026
aF0.0027359781121751026
aF0.0
aF0.004103967168262654
aF0.0013679890560875513
aF0.0
aF0.0027359781121751026
aF0.004103967168262654
aF0.0013679890560875513
aF0.0
aF0.0
aF0.0027359781121751026
aF0.0013679890560875513
aF0.0013679890560875513
aF0.0
aF0.0
aF0.0
aF0.0013679890560875513
aF0.0013679890560875513
aF0.0013679890560875513
aF0.0013679890560875513
aF0.0013679890560875513
aF0.0027359781121751026
aF0.0013679890560875513
aF0.0
aF0.0013679890560875513
aF0.0
aF0.0
aF0.0
aF0.0
aF0.004103967168262654
aF0.0013679890560875513
aF0.004103967168262654
aF0.0013679890560875513
aF0.0013679890560875513
aF0.0
aF0.0
aF0.0027359781121751026
aF0.0027359781121751026
aF0.0
aF0.0
aF0.0013679890560875513
aF0.0027359781121751026
aF0.0
aF0.0013679890560875513
aF0.0027359781121751026
aF0.0
aF0.0027359781121751026
aF0.0027359781121751026
aF0.0
aF0.004103967168262654
aF0.0013679890560875513
aF0.004103967168262654
aF0.004103967168262654
aF0.0013679890560875513
aF0.0013679890560875513
aF0.0
aF0.004103967168262654
asI18
(lp335
F0.27011494252873564
aF0.13409961685823754
aF0.09961685823754789
aF0.09578544061302682
aF0.040229885057471264
aF0.044061302681992334
aF0.032567049808429116
aF0.032567049808429116
aF0.0210727969348659
aF0.019157088122605363
aF0.013409961685823755
aF0.005747126436781609
aF0.011494252873563218
aF0.011494252873563218
aF0.009578544061302681
aF0.007662835249042145
aF0.0019157088122605363
aF0.0019157088122605363
aF0.005747126436781609
aF0.005747126436781609
aF0.0
aF0.007662835249042145
aF0.0038314176245210726
aF0.0038314176245210726
aF0.0
aF0.0038314176245210726
aF0.0
aF0.0019157088122605363
aF0.0019157088122605363
aF0.005747126436781609
aF0.0038314176245210726
aF0.0019157088122605363
aF0.0019157088122605363
aF0.0019157088122605363
aF0.005747126436781609
aF0.0
aF0.009578544061302681
aF0.0019157088122605363
aF0.0019157088122605363
aF0.0
aF0.0019157088122605363
aF0.0019157088122605363
aF0.0038314176245210726
aF0.0019157088122605363
aF0.0038314176245210726
aF0.0
aF0.0019157088122605363
aF0.0
aF0.0
aF0.0
aF0.0
aF0.0
aF0.0
aF0.0019157088122605363
aF0.0
aF0.0
aF0.0019157088122605363
aF0.0
aF0.0019157088122605363
aF0.011494252873563218
aF0.0
aF0.0
aF0.0019157088122605363
aF0.0019157088122605363
aF0.0019157088122605363
aF0.0019157088122605363
aF0.0
aF0.0019157088122605363
aF0.0019157088122605363
aF0.0038314176245210726
aF0.0019157088122605363
aF0.0
aF0.0038314176245210726
aF0.0
aF0.0019157088122605363
aF0.0019157088122605363
aF0.0
aF0.0
aF0.0
aF0.0038314176245210726
aF0.0019157088122605363
aF0.0038314176245210726
aF0.0019157088122605363
aF0.0019157088122605363
aF0.0019157088122605363
aF0.0019157088122605363
aF0.0038314176245210726
asI19
(lp336
F0.30193905817174516
aF0.19390581717451524
aF0.10526315789473684
aF0.07202216066481995
aF0.0221606648199446
aF0.04986149584487535
aF0.0332409972299169
aF0.0221606648199446
aF0.019390581717451522
aF0.0110803324099723
aF0.0221606648199446
aF0.00554016620498615
aF0.0110803324099723
aF0.019390581717451522
aF0.002770083102493075
aF0.002770083102493075
aF0.0
aF0.002770083102493075
aF0.00554016620498615
aF0.00554016620498615
aF0.002770083102493075
aF0.002770083102493075
aF0.00554016620498615
aF0.0
aF0.002770083102493075
aF0.0
aF0.0
aF0.0
aF0.0
aF0.0
aF0.0
aF0.00554016620498615
aF0.0
aF0.0
aF0.002770083102493075
aF0.0
aF0.002770083102493075
aF0.002770083102493075
aF0.002770083102493075
aF0.0
aF0.0
aF0.0
aF0.0
aF0.0
aF0.0
aF0.0
aF0.0
aF0.002770083102493075
aF0.002770083102493075
aF0.002770083102493075
aF0.002770083102493075
aF0.002770083102493075
aF0.002770083102493075
aF0.002770083102493075
aF0.0
aF0.0
aF0.0
aF0.0
aF0.0
aF0.0
aF0.002770083102493075
aF0.0
aF0.002770083102493075
aF0.0
aF0.0
aF0.002770083102493075
aF0.002770083102493075
aF0.002770083102493075
aF0.0
aF0.0
aF0.002770083102493075
aF0.002770083102493075
aF0.0
aF0.0
aF0.0
aF0.002770083102493075
aF0.0
aF0.00554016620498615
aF0.0
aF0.0
aF0.0
aF0.0
aF0.00554016620498615
aF0.00554016620498615
aF0.0
aF0.002770083102493075
aF0.0
asI20
(lp337
F0.265
aF0.1675
aF0.0925
aF0.075
aF0.065
aF0.04
aF0.03
aF0.03
aF0.025
aF0.02
aF0.005
aF0.0225
aF0.0025
aF0.0075
aF0.01
aF0.0025
aF0.0025
aF0.005
aF0.005
aF0.0
aF0.0
aF0.005
aF0.0025
aF0.0025
aF0.0
aF0.0075
aF0.0
aF0.0025
aF0.0075
aF0.0
aF0.0025
aF0.0
aF0.0
aF0.0
aF0.005
aF0.0025
aF0.0025
aF0.0
aF0.0
aF0.0
aF0.0
aF0.0
aF0.0025
aF0.0025
aF0.0
aF0.0025
aF0.0
aF0.0025
aF0.0025
aF0.005
aF0.0
aF0.0
aF0.0025
aF0.0
aF0.0
aF0.0025
aF0.0025
aF0.0
aF0.0
aF0.0025
aF0.0
aF0.0075
aF0.0
aF0.0025
aF0.005
aF0.0
aF0.0025
aF0.0
aF0.0
aF0.0
aF0.005
aF0.0025
aF0.0
aF0.0025
aF0.0025
aF0.0
aF0.0
aF0.0
aF0.0
aF0.0025
aF0.0
aF0.0025
aF0.0025
aF0.0025
aF0.0025
aF0.005
aF0.0125
asI21
(lp338
F0.2815734989648033
aF0.14699792960662525
aF0.12836438923395446
aF0.08074534161490683
aF0.053830227743271224
aF0.037267080745341616
aF0.031055900621118012
aF0.018633540372670808
aF0.014492753623188406
aF0.010351966873706004
aF0.008281573498964804
aF0.002070393374741201
aF0.012422360248447204
aF0.012422360248447204
aF0.006211180124223602
aF0.006211180124223602
aF0.004140786749482402
aF0.004140786749482402
aF0.004140786749482402
aF0.002070393374741201
aF0.008281573498964804
aF0.006211180124223602
aF0.0
aF0.004140786749482402
aF0.002070393374741201
aF0.002070393374741201
aF0.0
aF0.002070393374741201
aF0.004140786749482402
aF0.0
aF0.002070393374741201
aF0.002070393374741201
aF0.0
aF0.004140786749482402
aF0.0
aF0.0
aF0.010351966873706004
aF0.002070393374741201
aF0.0
aF0.0
aF0.0
aF0.002070393374741201
aF0.002070393374741201
aF0.002070393374741201
aF0.0
aF0.002070393374741201
aF0.0
aF0.0
aF0.0
aF0.002070393374741201
aF0.0
aF0.002070393374741201
aF0.0
aF0.0
aF0.002070393374741201
aF0.002070393374741201
aF0.0
aF0.002070393374741201
aF0.0
aF0.0
aF0.0
aF0.002070393374741201
aF0.0
aF0.002070393374741201
aF0.004140786749482402
aF0.002070393374741201
aF0.0
aF0.0
aF0.004140786749482402
aF0.004140786749482402
aF0.004140786749482402
aF0.0
aF0.002070393374741201
aF0.004140786749482402
aF0.0
aF0.0
aF0.0
aF0.012422360248447204
aF0.0
aF0.006211180124223602
aF0.002070393374741201
aF0.002070393374741201
aF0.002070393374741201
aF0.004140786749482402
aF0.0
aF0.004140786749482402
aF0.004140786749482402
asI22
(lp339
F0.30039525691699603
aF0.16600790513833993
aF0.1225296442687747
aF0.06126482213438735
aF0.03557312252964427
aF0.037549407114624504
aF0.03359683794466403
aF0.017786561264822136
aF0.017786561264822136
aF0.019762845849802372
aF0.015810276679841896
aF0.011857707509881422
aF0.007905138339920948
aF0.021739130434782608
aF0.007905138339920948
aF0.005928853754940711
aF0.003952569169960474
aF0.0
aF0.001976284584980237
aF0.0
aF0.005928853754940711
aF0.001976284584980237
aF0.0
aF0.001976284584980237
aF0.0
aF0.001976284584980237
aF0.0
aF0.003952569169960474
aF0.0
aF0.001976284584980237
aF0.003952569169960474
aF0.0
aF0.005928853754940711
aF0.001976284584980237
aF0.001976284584980237
aF0.003952569169960474
aF0.003952569169960474
aF0.001976284584980237
aF0.0
aF0.0
aF0.0
aF0.001976284584980237
aF0.0
aF0.0
aF0.0
aF0.0
aF0.0
aF0.001976284584980237
aF0.0
aF0.001976284584980237
aF0.003952569169960474
aF0.0
aF0.0
aF0.0
aF0.003952569169960474
aF0.001976284584980237
aF0.0
aF0.0
aF0.003952569169960474
aF0.003952569169960474
aF0.0
aF0.0
aF0.001976284584980237
aF0.001976284584980237
aF0.0
aF0.003952569169960474
aF0.0
aF0.001976284584980237
aF0.001976284584980237
aF0.003952569169960474
aF0.0
aF0.001976284584980237
aF0.001976284584980237
aF0.0
aF0.0
aF0.003952569169960474
aF0.003952569169960474
aF0.0
aF0.0
aF0.001976284584980237
aF0.001976284584980237
aF0.0
aF0.003952569169960474
aF0.001976284584980237
aF0.001976284584980237
aF0.001976284584980237
aF0.003952569169960474
asI23
(lp340
F0.2815734989648033
aF0.15113871635610765
aF0.08488612836438923
aF0.07660455486542443
aF0.060041407867494824
aF0.026915113871635612
aF0.028985507246376812
aF0.026915113871635612
aF0.008281573498964804
aF0.026915113871635612
aF0.022774327122153208
aF0.016563146997929608
aF0.020703933747412008
aF0.010351966873706004
aF0.012422360248447204
aF0.0
aF0.002070393374741201
aF0.0
aF0.008281573498964804
aF0.006211180124223602
aF0.008281573498964804
aF0.008281573498964804
aF0.008281573498964804
aF0.004140786749482402
aF0.0
aF0.008281573498964804
aF0.002070393374741201
aF0.0
aF0.002070393374741201
aF0.0
aF0.0
aF0.0
aF0.0
aF0.002070393374741201
aF0.002070393374741201
aF0.0
aF0.0
aF0.0
aF0.002070393374741201
aF0.0
aF0.002070393374741201
aF0.002070393374741201
aF0.002070393374741201
aF0.002070393374741201
aF0.0
aF0.0
aF0.0
aF0.0
aF0.0
aF0.002070393374741201
aF0.0
aF0.002070393374741201
aF0.0
aF0.0
aF0.004140786749482402
aF0.0
aF0.0
aF0.0
aF0.0
aF0.0
aF0.0
aF0.002070393374741201
aF0.002070393374741201
aF0.004140786749482402
aF0.004140786749482402
aF0.002070393374741201
aF0.0
aF0.0
aF0.002070393374741201
aF0.004140786749482402
aF0.008281573498964804
aF0.002070393374741201
aF0.0
aF0.0
aF0.002070393374741201
aF0.002070393374741201
aF0.0
aF0.002070393374741201
aF0.0
aF0.0
aF0.0
aF0.002070393374741201
aF0.006211180124223602
aF0.0
aF0.002070393374741201
aF0.008281573498964804
aF0.008281573498964804
asI24
(lp341
F0.30303030303030304
aF0.12878787878787878
aF0.07575757575757576
aF0.05303030303030303
aF0.07954545454545454
aF0.04924242424242424
aF0.030303030303030304
aF0.026515151515151516
aF0.015151515151515152
aF0.007575757575757576
aF0.022727272727272728
aF0.011363636363636364
aF0.007575757575757576
aF0.007575757575757576
aF0.0
aF0.015151515151515152
aF0.003787878787878788
aF0.007575757575757576
aF0.011363636363636364
aF0.003787878787878788
aF0.015151515151515152
aF0.007575757575757576
aF0.003787878787878788
aF0.007575757575757576
aF0.0
aF0.003787878787878788
aF0.0
aF0.0
aF0.0
aF0.0
aF0.0
aF0.003787878787878788
aF0.0
aF0.0
aF0.0
aF0.0
aF0.003787878787878788
aF0.0
aF0.0
aF0.0
aF0.0
aF0.0
aF0.003787878787878788
aF0.0
aF0.0
aF0.0
aF0.0
aF0.0
aF0.0
aF0.0
aF0.0
aF0.0
aF0.003787878787878788
aF0.0
aF0.0
aF0.0
aF0.003787878787878788
aF0.0
aF0.0
aF0.003787878787878788
aF0.003787878787878788
aF0.003787878787878788
aF0.0
aF0.003787878787878788
aF0.0
aF0.0
aF0.0
aF0.003787878787878788
aF0.0
aF0.0
aF0.007575757575757576
aF0.0
aF0.0
aF0.0
aF0.0
aF0.0
aF0.003787878787878788
aF0.0
aF0.011363636363636364
aF0.0
aF0.011363636363636364
aF0.007575757575757576
aF0.003787878787878788
aF0.0
aF0.003787878787878788
aF0.011363636363636364
aF0.003787878787878788
asI25
(lp342
F0.2733333333333333
aF0.14333333333333334
aF0.08666666666666667
aF0.04666666666666667
aF0.1
aF0.03
aF0.03666666666666667
aF0.02666666666666667
aF0.02666666666666667
aF0.023333333333333334
aF0.02
aF0.016666666666666666
aF0.023333333333333334
aF0.023333333333333334
aF0.013333333333333334
aF0.006666666666666667
aF0.006666666666666667
aF0.0033333333333333335
aF0.0
aF0.0
aF0.013333333333333334
aF0.0033333333333333335
aF0.0
aF0.0
aF0.0
aF0.006666666666666667
aF0.0
aF0.0
aF0.0
aF0.0
aF0.0033333333333333335
aF0.0033333333333333335
aF0.0
aF0.0033333333333333335
aF0.0
aF0.0033333333333333335
aF0.0
aF0.0
aF0.0
aF0.0033333333333333335
aF0.0
aF0.006666666666666667
aF0.0
aF0.0
aF0.0
aF0.0
aF0.0
aF0.0
aF0.0
aF0.0
aF0.0
aF0.0
aF0.0033333333333333335
aF0.0
aF0.0
aF0.0
aF0.0
aF0.0
aF0.0
aF0.0
aF0.0
aF0.0033333333333333335
aF0.0033333333333333335
aF0.0
aF0.0033333333333333335
aF0.0
aF0.0033333333333333335
aF0.0033333333333333335
aF0.0
aF0.0
aF0.0
aF0.0
aF0.0
aF0.0033333333333333335
aF0.0
aF0.0033333333333333335
aF0.0
aF0.0033333333333333335
aF0.0033333333333333335
aF0.0
aF0.0
aF0.0
aF0.0033333333333333335
aF0.0
aF0.0
aF0.0
aF0.01
asI26
(lp343
F0.32840236686390534
aF0.1390532544378698
aF0.07988165680473373
aF0.0650887573964497
aF0.03254437869822485
aF0.038461538461538464
aF0.023668639053254437
aF0.029585798816568046
aF0.03254437869822485
aF0.020710059171597635
aF0.008875739644970414
aF0.014792899408284023
aF0.01775147928994083
aF0.020710059171597635
aF0.0029585798816568047
aF0.005917159763313609
aF0.0
aF0.0029585798816568047
aF0.005917159763313609
aF0.0029585798816568047
aF0.005917159763313609
aF0.005917159763313609
aF0.0
aF0.005917159763313609
aF0.0029585798816568047
aF0.0029585798816568047
aF0.0
aF0.005917159763313609
aF0.0029585798816568047
aF0.0
aF0.0
aF0.005917159763313609
aF0.0
aF0.0029585798816568047
aF0.005917159763313609
aF0.0029585798816568047
aF0.0
aF0.0029585798816568047
aF0.0
aF0.0029585798816568047
aF0.0
aF0.0
aF0.0
aF0.0
aF0.0
aF0.0
aF0.0
aF0.0
aF0.005917159763313609
aF0.0
aF0.005917159763313609
aF0.0
aF0.0029585798816568047
aF0.0
aF0.0
aF0.0029585798816568047
aF0.0
aF0.0
aF0.0
aF0.0029585798816568047
aF0.0
aF0.0029585798816568047
aF0.0029585798816568047
aF0.0
aF0.0
aF0.0
aF0.0029585798816568047
aF0.0
aF0.005917159763313609
aF0.0
aF0.0029585798816568047
aF0.0
aF0.0
aF0.0
aF0.0
aF0.0029585798816568047
aF0.005917159763313609
aF0.0
aF0.0029585798816568047
aF0.0
aF0.0
aF0.0029585798816568047
aF0.0029585798816568047
aF0.005917159763313609
aF0.0029585798816568047
aF0.0
aF0.005917159763313609
asI27
(lp344
F0.24074074074074073
aF0.16049382716049382
aF0.08641975308641975
aF0.08641975308641975
aF0.06790123456790123
aF0.030864197530864196
aF0.043209876543209874
aF0.024691358024691357
aF0.037037037037037035
aF0.024691358024691357
aF0.024691358024691357
aF0.018518518518518517
aF0.012345679012345678
aF0.018518518518518517
aF0.0
aF0.0
aF0.006172839506172839
aF0.0
aF0.006172839506172839
aF0.0
aF0.0
aF0.0
aF0.0
aF0.006172839506172839
aF0.0
aF0.006172839506172839
aF0.0
aF0.0
aF0.0
aF0.0
aF0.0
aF0.0
aF0.006172839506172839
aF0.0
aF0.0
aF0.0
aF0.006172839506172839
aF0.0
aF0.0
aF0.0
aF0.0
aF0.0
aF0.006172839506172839
aF0.0
aF0.0
aF0.0
aF0.0
aF0.0
aF0.0
aF0.0
aF0.0
aF0.0
aF0.0
aF0.0
aF0.0
aF0.0
aF0.0
aF0.0
aF0.0
aF0.006172839506172839
aF0.0
aF0.0
aF0.0
aF0.006172839506172839
aF0.0
aF0.0
aF0.0
aF0.006172839506172839
aF0.0
aF0.006172839506172839
aF0.012345679012345678
aF0.0
aF0.0
aF0.0
aF0.006172839506172839
aF0.006172839506172839
aF0.0
aF0.0
aF0.0
aF0.006172839506172839
aF0.0
aF0.012345679012345678
aF0.006172839506172839
aF0.006172839506172839
aF0.0
aF0.0
aF0.0
asI28
(lp345
F0.24744897959183673
aF0.15306122448979592
aF0.13010204081632654
aF0.07142857142857142
aF0.03571428571428571
aF0.03571428571428571
aF0.04591836734693878
aF0.025510204081632654
aF0.017857142857142856
aF0.02295918367346939
aF0.017857142857142856
aF0.00510204081632653
aF0.00510204081632653
aF0.02295918367346939
aF0.017857142857142856
aF0.00510204081632653
aF0.0
aF0.007653061224489796
aF0.002551020408163265
aF0.002551020408163265
aF0.01020408163265306
aF0.002551020408163265
aF0.00510204081632653
aF0.002551020408163265
aF0.002551020408163265
aF0.0
aF0.002551020408163265
aF0.00510204081632653
aF0.002551020408163265
aF0.0
aF0.002551020408163265
aF0.0
aF0.0
aF0.0
aF0.0
aF0.0
aF0.01020408163265306
aF0.01020408163265306
aF0.0
aF0.002551020408163265
aF0.00510204081632653
aF0.002551020408163265
aF0.002551020408163265
aF0.002551020408163265
aF0.002551020408163265
aF0.002551020408163265
aF0.0
aF0.0
aF0.0
aF0.0
aF0.002551020408163265
aF0.0
aF0.0
aF0.002551020408163265
aF0.0
aF0.0
aF0.0
aF0.002551020408163265
aF0.0
aF0.002551020408163265
aF0.00510204081632653
aF0.0
aF0.0
aF0.0
aF0.0
aF0.0
aF0.0
aF0.0
aF0.002551020408163265
aF0.00510204081632653
aF0.0
aF0.002551020408163265
aF0.0
aF0.0
aF0.0
aF0.00510204081632653
aF0.0
aF0.0
aF0.0
aF0.00510204081632653
aF0.0
aF0.00510204081632653
aF0.002551020408163265
aF0.0
aF0.0
aF0.00510204081632653
aF0.002551020408163265
asI29
(lp346
F0.22413793103448276
aF0.15517241379310345
aF0.10344827586206896
aF0.1206896551724138
aF0.06896551724137931
aF0.05172413793103448
aF0.0
aF0.05172413793103448
aF0.05172413793103448
aF0.017241379310344827
aF0.0
aF0.0
aF0.0
aF0.0
aF0.0
aF0.0
aF0.0
aF0.0
aF0.0
aF0.0
aF0.017241379310344827
aF0.0
aF0.0
aF0.0
aF0.0
aF0.017241379310344827
aF0.0
aF0.0
aF0.0
aF0.0
aF0.017241379310344827
aF0.017241379310344827
aF0.0
aF0.017241379310344827
aF0.0
aF0.0
aF0.017241379310344827
aF0.0
aF0.0
aF0.0
aF0.0
aF0.0
aF0.0
aF0.0
aF0.0
aF0.0
aF0.0
aF0.0
aF0.0
aF0.0
aF0.0
aF0.0
aF0.0
aF0.0
aF0.0
aF0.017241379310344827
aF0.0
aF0.0
aF0.0
aF0.017241379310344827
aF0.0
aF0.0
aF0.0
aF0.0
aF0.0
aF0.0
aF0.0
aF0.0
aF0.0
aF0.0
aF0.0
aF0.0
aF0.0
aF0.0
aF0.0
aF0.0
aF0.0
aF0.0
aF0.0
aF0.017241379310344827
aF0.0
aF0.0
aF0.0
aF0.0
aF0.0
aF0.0
aF0.0
asI30
(lp347
F0.2866666666666667
aF0.13333333333333333
aF0.07333333333333333
aF0.09333333333333334
aF0.06
aF0.04666666666666667
aF0.03333333333333333
aF0.02666666666666667
aF0.02
aF0.006666666666666667
aF0.02
aF0.0
aF0.02
aF0.006666666666666667
aF0.013333333333333334
aF0.006666666666666667
aF0.0
aF0.006666666666666667
aF0.006666666666666667
aF0.013333333333333334
aF0.0
aF0.0
aF0.0
aF0.013333333333333334
aF0.0
aF0.013333333333333334
aF0.0
aF0.0
aF0.0
aF0.006666666666666667
aF0.0
aF0.0
aF0.0
aF0.0
aF0.0
aF0.0
aF0.006666666666666667
aF0.0
aF0.0
aF0.0
aF0.006666666666666667
aF0.006666666666666667
aF0.0
aF0.0
aF0.0
aF0.0
aF0.0
aF0.0
aF0.0
aF0.006666666666666667
aF0.0
aF0.0
aF0.0
aF0.0
aF0.0
aF0.0
aF0.0
aF0.0
aF0.006666666666666667
aF0.013333333333333334
aF0.0
aF0.0
aF0.0
aF0.0
aF0.0
aF0.0
aF0.0
aF0.0
aF0.0
aF0.0
aF0.0
aF0.006666666666666667
aF0.0
aF0.0
aF0.0
aF0.0
aF0.0
aF0.0
aF0.0
aF0.006666666666666667
aF0.0
aF0.006666666666666667
aF0.006666666666666667
aF0.0
aF0.006666666666666667
aF0.0
aF0.013333333333333334
asI31
(lp348
F0.26344086021505375
aF0.16666666666666666
aF0.1478494623655914
aF0.08602150537634409
aF0.03225806451612903
aF0.05913978494623656
aF0.02956989247311828
aF0.016129032258064516
aF0.021505376344086023
aF0.013440860215053764
aF0.021505376344086023
aF0.013440860215053764
aF0.010752688172043012
aF0.002688172043010753
aF0.005376344086021506
aF0.002688172043010753
aF0.0
aF0.008064516129032258
aF0.005376344086021506
aF0.0
aF0.002688172043010753
aF0.0
aF0.0
aF0.002688172043010753
aF0.0
aF0.002688172043010753
aF0.0
aF0.0
aF0.0
aF0.0
aF0.0
aF0.002688172043010753
aF0.0
aF0.002688172043010753
aF0.0
aF0.0
aF0.005376344086021506
aF0.002688172043010753
aF0.0
aF0.0
aF0.0
aF0.0
aF0.002688172043010753
aF0.002688172043010753
aF0.0
aF0.0
aF0.002688172043010753
aF0.002688172043010753
aF0.0
aF0.0
aF0.0
aF0.005376344086021506
aF0.002688172043010753
aF0.002688172043010753
aF0.002688172043010753
aF0.002688172043010753
aF0.0
aF0.0
aF0.0
aF0.0
aF0.0
aF0.0
aF0.0
aF0.0
aF0.0
aF0.002688172043010753
aF0.0
aF0.0
aF0.0
aF0.0
aF0.0
aF0.0
aF0.0
aF0.002688172043010753
aF0.0
aF0.0
aF0.005376344086021506
aF0.0
aF0.002688172043010753
aF0.0
aF0.0
aF0.0
aF0.010752688172043012
aF0.005376344086021506
aF0.005376344086021506
aF0.005376344086021506
aF0.005376344086021506
asI32
(lp349
F0.28125
aF0.13125
aF0.1125
aF0.06875
aF0.05
aF0.05
aF0.025
aF0.025
aF0.025
aF0.0375
aF0.025
aF0.0125
aF0.0125
aF0.00625
aF0.0125
aF0.01875
aF0.0
aF0.0
aF0.0
aF0.00625
aF0.0
aF0.0
aF0.0
aF0.0
aF0.0
aF0.0
aF0.0
aF0.00625
aF0.0
aF0.0
aF0.0
aF0.0
aF0.00625
aF0.0
aF0.0
aF0.0
aF0.0125
aF0.0125
aF0.0
aF0.0
aF0.0
aF0.00625
aF0.0
aF0.0
aF0.0
aF0.0
aF0.0
aF0.0
aF0.0
aF0.0
aF0.00625
aF0.00625
aF0.0
aF0.0
aF0.0
aF0.0
aF0.0
aF0.0
aF0.0
aF0.0
aF0.0
aF0.0
aF0.0
aF0.0
aF0.0
aF0.0
aF0.0
aF0.0
aF0.0
aF0.0
aF0.0
aF0.0
aF0.00625
aF0.0
aF0.0
aF0.0
aF0.00625
aF0.0
aF0.0
aF0.00625
aF0.0125
aF0.0
aF0.0
aF0.0
aF0.00625
aF0.0
aF0.00625
asI33
(lp350
F0.2727272727272727
aF0.16666666666666666
aF0.10606060606060606
aF0.050505050505050504
aF0.07575757575757576
aF0.06565656565656566
aF0.04040404040404041
aF0.025252525252525252
aF0.015151515151515152
aF0.030303030303030304
aF0.005050505050505051
aF0.010101010101010102
aF0.010101010101010102
aF0.005050505050505051
aF0.010101010101010102
aF0.010101010101010102
aF0.0
aF0.005050505050505051
aF0.005050505050505051
aF0.010101010101010102
aF0.0
aF0.0
aF0.005050505050505051
aF0.0
aF0.0
aF0.005050505050505051
aF0.005050505050505051
aF0.0
aF0.0
aF0.0
aF0.0
aF0.0
aF0.0
aF0.0
aF0.0
aF0.0
aF0.010101010101010102
aF0.0
aF0.0
aF0.0
aF0.0
aF0.0
aF0.0
aF0.0
aF0.0
aF0.0
aF0.0
aF0.0
aF0.0
aF0.0
aF0.005050505050505051
aF0.0
aF0.0
aF0.005050505050505051
aF0.0
aF0.005050505050505051
aF0.005050505050505051
aF0.005050505050505051
aF0.0
aF0.005050505050505051
aF0.0
aF0.0
aF0.0
aF0.0
aF0.0
aF0.0
aF0.0
aF0.005050505050505051
aF0.0
aF0.0
aF0.0
aF0.0
aF0.0
aF0.0
aF0.0
aF0.005050505050505051
aF0.005050505050505051
aF0.0
aF0.0
aF0.0
aF0.0
aF0.0
aF0.005050505050505051
aF0.0
aF0.0
aF0.0
aF0.005050505050505051
asI34
(lp351
F0.24705882352941178
aF0.17647058823529413
aF0.12941176470588237
aF0.08823529411764706
aF0.058823529411764705
aF0.041176470588235294
aF0.0058823529411764705
aF0.023529411764705882
aF0.01764705882352941
aF0.023529411764705882
aF0.01764705882352941
aF0.011764705882352941
aF0.03529411764705882
aF0.011764705882352941
aF0.0
aF0.0058823529411764705
aF0.011764705882352941
aF0.0
aF0.0058823529411764705
aF0.0
aF0.0
aF0.0058823529411764705
aF0.0058823529411764705
aF0.011764705882352941
aF0.0
aF0.0
aF0.0058823529411764705
aF0.0
aF0.0058823529411764705
aF0.0
aF0.0
aF0.0
aF0.0
aF0.0
aF0.0
aF0.0
aF0.0
aF0.0
aF0.0
aF0.0
aF0.0
aF0.0
aF0.0058823529411764705
aF0.0
aF0.0
aF0.0
aF0.0
aF0.0
aF0.0
aF0.0
aF0.0058823529411764705
aF0.0058823529411764705
aF0.0
aF0.0
aF0.0
aF0.0
aF0.0
aF0.0
aF0.0
aF0.0
aF0.0
aF0.0
aF0.0058823529411764705
aF0.0
aF0.0
aF0.0058823529411764705
aF0.0
aF0.0
aF0.0
aF0.0
aF0.0
aF0.0
aF0.0
aF0.0058823529411764705
aF0.0
aF0.0
aF0.0
aF0.0
aF0.0
aF0.0
aF0.0
aF0.0058823529411764705
aF0.0
aF0.0058823529411764705
aF0.0058823529411764705
aF0.0
aF0.0
asI35
(lp352
F0.3047619047619048
aF0.23809523809523808
aF0.0761904761904762
aF0.0380952380952381
aF0.0380952380952381
aF0.05714285714285714
aF0.009523809523809525
aF0.02857142857142857
aF0.02857142857142857
aF0.02857142857142857
aF0.02857142857142857
aF0.0
aF0.0
aF0.009523809523809525
aF0.02857142857142857
aF0.009523809523809525
aF0.0
aF0.0
aF0.0
aF0.02857142857142857
aF0.0
aF0.0
aF0.0
aF0.0
aF0.009523809523809525
aF0.0
aF0.0
aF0.0
aF0.0
aF0.009523809523809525
aF0.0
aF0.0
aF0.0
aF0.0
aF0.0
aF0.0
aF0.0
aF0.0
aF0.0
aF0.0
aF0.0
aF0.0
aF0.0
aF0.009523809523809525
aF0.0
aF0.0
aF0.0
aF0.0
aF0.0
aF0.0
aF0.0
aF0.0
aF0.0
aF0.0
aF0.0
aF0.0
aF0.0
aF0.0
aF0.0
aF0.009523809523809525
aF0.0
aF0.0
aF0.0
aF0.0
aF0.0
aF0.0
aF0.009523809523809525
aF0.0
aF0.0
aF0.0
aF0.0
aF0.0
aF0.0
aF0.0
aF0.0
aF0.0
aF0.0
aF0.0
aF0.0
aF0.0
aF0.0
aF0.0
aF0.0
aF0.0
aF0.0
aF0.0
aF0.0
asI36
(lp353
F0.25
aF0.1388888888888889
aF0.09722222222222222
aF0.10416666666666667
aF0.0625
aF0.05555555555555555
aF0.04861111111111111
aF0.006944444444444444
aF0.013888888888888888
aF0.027777777777777776
aF0.013888888888888888
aF0.020833333333333332
aF0.0
aF0.006944444444444444
aF0.006944444444444444
aF0.006944444444444444
aF0.0
aF0.0
aF0.013888888888888888
aF0.006944444444444444
aF0.006944444444444444
aF0.0
aF0.006944444444444444
aF0.006944444444444444
aF0.0
aF0.0
aF0.006944444444444444
aF0.0
aF0.006944444444444444
aF0.0
aF0.0
aF0.0
aF0.0
aF0.013888888888888888
aF0.006944444444444444
aF0.0
aF0.0
aF0.0
aF0.0
aF0.006944444444444444
aF0.0
aF0.0
aF0.0
aF0.0
aF0.0
aF0.0
aF0.006944444444444444
aF0.0
aF0.0
aF0.0
aF0.0
aF0.0
aF0.0
aF0.0
aF0.006944444444444444
aF0.0
aF0.0
aF0.0
aF0.0
aF0.0
aF0.0
aF0.0
aF0.006944444444444444
aF0.006944444444444444
aF0.0
aF0.0
aF0.0
aF0.0
aF0.0
aF0.0
aF0.006944444444444444
aF0.0
aF0.0
aF0.0
aF0.006944444444444444
aF0.0
aF0.0
aF0.0
aF0.006944444444444444
aF0.0
aF0.0
aF0.0
aF0.0
aF0.0
aF0.0
aF0.0
aF0.006944444444444444
asI37
(lp354
F0.27702702702702703
aF0.1554054054054054
aF0.11486486486486487
aF0.07432432432432433
aF0.07432432432432433
aF0.0472972972972973
aF0.033783783783783786
aF0.02702702702702703
aF0.013513513513513514
aF0.006756756756756757
aF0.006756756756756757
aF0.02027027027027027
aF0.006756756756756757
aF0.013513513513513514
aF0.0
aF0.02027027027027027
aF0.006756756756756757
aF0.013513513513513514
aF0.0
aF0.006756756756756757
aF0.006756756756756757
aF0.0
aF0.0
aF0.013513513513513514
aF0.0
aF0.0
aF0.0
aF0.0
aF0.0
aF0.0
aF0.0
aF0.0
aF0.0
aF0.006756756756756757
aF0.0
aF0.0
aF0.0
aF0.0
aF0.0
aF0.0
aF0.0
aF0.0
aF0.0
aF0.0
aF0.0
aF0.0
aF0.0
aF0.0
aF0.0
aF0.0
aF0.0
aF0.0
aF0.006756756756756757
aF0.0
aF0.0
aF0.0
aF0.0
aF0.0
aF0.0
aF0.006756756756756757
aF0.0
aF0.0
aF0.006756756756756757
aF0.0
aF0.006756756756756757
aF0.006756756756756757
aF0.0
aF0.0
aF0.0
aF0.0
aF0.0
aF0.0
aF0.0
aF0.0
aF0.0
aF0.0
aF0.0
aF0.0
aF0.006756756756756757
aF0.0
aF0.006756756756756757
aF0.0
aF0.0
aF0.0
aF0.0
aF0.0
aF0.006756756756756757
asI38
(lp355
F0.27631578947368424
aF0.125
aF0.11842105263157894
aF0.07894736842105263
aF0.10526315789473684
aF0.03289473684210526
aF0.013157894736842105
aF0.039473684210526314
aF0.02631578947368421
aF0.006578947368421052
aF0.039473684210526314
aF0.013157894736842105
aF0.0
aF0.006578947368421052
aF0.013157894736842105
aF0.0
aF0.0
aF0.006578947368421052
aF0.0
aF0.013157894736842105
aF0.0
aF0.0
aF0.006578947368421052
aF0.006578947368421052
aF0.0
aF0.0
aF0.0
aF0.0
aF0.0
aF0.0
aF0.0
aF0.0
aF0.0
aF0.0
aF0.0
aF0.0
aF0.0
aF0.0
aF0.0
aF0.0
aF0.0
aF0.0
aF0.0
aF0.006578947368421052
aF0.0
aF0.0
aF0.0
aF0.0
aF0.0
aF0.0
aF0.013157894736842105
aF0.0
aF0.0
aF0.0
aF0.0
aF0.0
aF0.0
aF0.0
aF0.0
aF0.006578947368421052
aF0.0
aF0.0
aF0.0
aF0.006578947368421052
aF0.0
aF0.0
aF0.0
aF0.0
aF0.0
aF0.0
aF0.0
aF0.0
aF0.0
aF0.006578947368421052
aF0.006578947368421052
aF0.0
aF0.0
aF0.0
aF0.0
aF0.0
aF0.0
aF0.0
aF0.0
aF0.006578947368421052
aF0.013157894736842105
aF0.006578947368421052
aF0.0
asI39
(lp356
F0.21474358974358973
aF0.1794871794871795
aF0.1282051282051282
aF0.09294871794871795
aF0.057692307692307696
aF0.02564102564102564
aF0.028846153846153848
aF0.02564102564102564
aF0.009615384615384616
aF0.016025641025641024
aF0.01282051282051282
aF0.01282051282051282
aF0.00641025641025641
aF0.016025641025641024
aF0.009615384615384616
aF0.016025641025641024
aF0.003205128205128205
aF0.003205128205128205
aF0.016025641025641024
aF0.00641025641025641
aF0.0
aF0.003205128205128205
aF0.0
aF0.0
aF0.003205128205128205
aF0.01282051282051282
aF0.003205128205128205
aF0.003205128205128205
aF0.00641025641025641
aF0.00641025641025641
aF0.00641025641025641
aF0.0
aF0.0
aF0.0
aF0.0
aF0.0
aF0.00641025641025641
aF0.0
aF0.003205128205128205
aF0.003205128205128205
aF0.0
aF0.0
aF0.0
aF0.003205128205128205
aF0.0
aF0.00641025641025641
aF0.0
aF0.0
aF0.0
aF0.0
aF0.003205128205128205
aF0.0
aF0.0
aF0.003205128205128205
aF0.003205128205128205
aF0.0
aF0.0
aF0.003205128205128205
aF0.0
aF0.0
aF0.0
aF0.0
aF0.0
aF0.0
aF0.0
aF0.0
aF0.0
aF0.0
aF0.0
aF0.0
aF0.0
aF0.003205128205128205
aF0.003205128205128205
aF0.00641025641025641
aF0.003205128205128205
aF0.003205128205128205
aF0.003205128205128205
aF0.003205128205128205
aF0.0
aF0.0
aF0.0
aF0.0
aF0.003205128205128205
aF0.0
aF0.0
aF0.003205128205128205
aF0.00641025641025641
asI40
(lp357
F0.26666666666666666
aF0.15
aF0.09166666666666666
aF0.075
aF0.025
aF0.041666666666666664
aF0.041666666666666664
aF0.025
aF0.025
aF0.016666666666666666
aF0.025
aF0.03333333333333333
aF0.0
aF0.008333333333333333
aF0.008333333333333333
aF0.008333333333333333
aF0.008333333333333333
aF0.0
aF0.008333333333333333
aF0.008333333333333333
aF0.0
aF0.0
aF0.0
aF0.008333333333333333
aF0.0
aF0.03333333333333333
aF0.0
aF0.0
aF0.008333333333333333
aF0.016666666666666666
aF0.0
aF0.0
aF0.0
aF0.0
aF0.0
aF0.0
aF0.0
aF0.0
aF0.0
aF0.0
aF0.016666666666666666
aF0.0
aF0.0
aF0.0
aF0.0
aF0.0
aF0.0
aF0.0
aF0.0
aF0.0
aF0.008333333333333333
aF0.0
aF0.0
aF0.0
aF0.0
aF0.0
aF0.0
aF0.0
aF0.0
aF0.0
aF0.0
aF0.0
aF0.0
aF0.0
aF0.0
aF0.0
aF0.0
aF0.0
aF0.0
aF0.0
aF0.0
aF0.0
aF0.0
aF0.008333333333333333
aF0.0
aF0.0
aF0.0
aF0.008333333333333333
aF0.008333333333333333
aF0.0
aF0.0
aF0.0
aF0.0
aF0.0
aF0.008333333333333333
aF0.008333333333333333
aF0.0
asI41
(lp358
F0.23170731707317074
aF0.17073170731707318
aF0.15853658536585366
aF0.06097560975609756
aF0.012195121951219513
aF0.08536585365853659
aF0.036585365853658534
aF0.036585365853658534
aF0.024390243902439025
aF0.0
aF0.012195121951219513
aF0.024390243902439025
aF0.012195121951219513
aF0.024390243902439025
aF0.0
aF0.012195121951219513
aF0.012195121951219513
aF0.0
aF0.0
aF0.0
aF0.012195121951219513
aF0.0
aF0.0
aF0.0
aF0.0
aF0.0
aF0.0
aF0.0
aF0.0
aF0.0
aF0.0
aF0.0
aF0.0
aF0.0
aF0.0
aF0.0
aF0.012195121951219513
aF0.0
aF0.0
aF0.0
aF0.0
aF0.0
aF0.0
aF0.0
aF0.0
aF0.0
aF0.0
aF0.0
aF0.0
aF0.012195121951219513
aF0.0
aF0.0
aF0.012195121951219513
aF0.0
aF0.0
aF0.0
aF0.0
aF0.0
aF0.0
aF0.0
aF0.0
aF0.0
aF0.0
aF0.0
aF0.0
aF0.0
aF0.0
aF0.0
aF0.0
aF0.0
aF0.0
aF0.012195121951219513
aF0.0
aF0.0
aF0.0
aF0.0
aF0.0
aF0.012195121951219513
aF0.0
aF0.0
aF0.0
aF0.0
aF0.0
aF0.0
aF0.0
aF0.0
aF0.012195121951219513
asI42
(lp359
F0.23809523809523808
aF0.25
aF0.09523809523809523
aF0.07142857142857142
aF0.023809523809523808
aF0.023809523809523808
aF0.05952380952380952
aF0.011904761904761904
aF0.023809523809523808
aF0.011904761904761904
aF0.0
aF0.0
aF0.023809523809523808
aF0.03571428571428571
aF0.0
aF0.0
aF0.0
aF0.0
aF0.0
aF0.0
aF0.0
aF0.0
aF0.011904761904761904
aF0.011904761904761904
aF0.0
aF0.011904761904761904
aF0.0
aF0.0
aF0.0
aF0.0
aF0.0
aF0.0
aF0.0
aF0.011904761904761904
aF0.0
aF0.0
aF0.011904761904761904
aF0.0
aF0.0
aF0.0
aF0.0
aF0.0
aF0.0
aF0.0
aF0.0
aF0.0
aF0.0
aF0.0
aF0.011904761904761904
aF0.011904761904761904
aF0.0
aF0.0
aF0.0
aF0.0
aF0.0
aF0.0
aF0.0
aF0.0
aF0.0
aF0.0
aF0.0
aF0.0
aF0.0
aF0.0
aF0.0
aF0.011904761904761904
aF0.0
aF0.0
aF0.0
aF0.0
aF0.0
aF0.011904761904761904
aF0.0
aF0.0
aF0.0
aF0.0
aF0.0
aF0.0
aF0.011904761904761904
aF0.0
aF0.0
aF0.0
aF0.0
aF0.0
aF0.0
aF0.011904761904761904
aF0.0
asI43
(lp360
F0.27906976744186046
aF0.16279069767441862
aF0.06976744186046512
aF0.07751937984496124
aF0.05426356589147287
aF0.023255813953488372
aF0.023255813953488372
aF0.03875968992248062
aF0.015503875968992248
aF0.03875968992248062
aF0.015503875968992248
aF0.0
aF0.015503875968992248
aF0.023255813953488372
aF0.015503875968992248
aF0.007751937984496124
aF0.0
aF0.0
aF0.0
aF0.0
aF0.007751937984496124
aF0.0
aF0.0
aF0.0
aF0.0
aF0.015503875968992248
aF0.0
aF0.007751937984496124
aF0.0
aF0.0
aF0.0
aF0.0
aF0.0
aF0.0
aF0.0
aF0.0
aF0.0
aF0.015503875968992248
aF0.0
aF0.0
aF0.0
aF0.0
aF0.007751937984496124
aF0.0
aF0.0
aF0.007751937984496124
aF0.0
aF0.0
aF0.0
aF0.0
aF0.0
aF0.0
aF0.007751937984496124
aF0.007751937984496124
aF0.0
aF0.0
aF0.0
aF0.0
aF0.0
aF0.0
aF0.0
aF0.0
aF0.007751937984496124
aF0.0
aF0.0
aF0.0
aF0.0
aF0.0
aF0.0
aF0.0
aF0.0
aF0.0
aF0.0
aF0.007751937984496124
aF0.0
aF0.015503875968992248
aF0.0
aF0.0
aF0.0
aF0.0
aF0.0
aF0.007751937984496124
aF0.0
aF0.007751937984496124
aF0.0
aF0.0
aF0.015503875968992248
asI44
(lp361
F0.29545454545454547
aF0.1590909090909091
aF0.06818181818181818
aF0.05113636363636364
aF0.0625
aF0.0625
aF0.022727272727272728
aF0.03409090909090909
aF0.045454545454545456
aF0.028409090909090908
aF0.022727272727272728
aF0.005681818181818182
aF0.005681818181818182
aF0.0
aF0.005681818181818182
aF0.005681818181818182
aF0.0
aF0.0
aF0.005681818181818182
aF0.005681818181818182
aF0.005681818181818182
aF0.0
aF0.011363636363636364
aF0.0
aF0.0
aF0.005681818181818182
aF0.0
aF0.005681818181818182
aF0.0
aF0.005681818181818182
aF0.0
aF0.0
aF0.0
aF0.0
aF0.0
aF0.0
aF0.0
aF0.0
aF0.0
aF0.0
aF0.0
aF0.0
aF0.0
aF0.005681818181818182
aF0.0
aF0.0
aF0.0
aF0.0
aF0.0
aF0.0
aF0.005681818181818182
aF0.005681818181818182
aF0.0
aF0.0
aF0.0
aF0.005681818181818182
aF0.0
aF0.0
aF0.0
aF0.0
aF0.0
aF0.0
aF0.0
aF0.0
aF0.0
aF0.0
aF0.0
aF0.005681818181818182
aF0.0
aF0.0
aF0.0
aF0.0
aF0.0
aF0.005681818181818182
aF0.0
aF0.005681818181818182
aF0.005681818181818182
aF0.0
aF0.005681818181818182
aF0.005681818181818182
aF0.005681818181818182
aF0.0
aF0.005681818181818182
aF0.005681818181818182
aF0.0
aF0.0
aF0.005681818181818182
asI45
(lp362
F0.22962962962962963
aF0.16296296296296298
aF0.15555555555555556
aF0.05185185185185185
aF0.044444444444444446
aF0.05925925925925926
aF0.022222222222222223
aF0.014814814814814815
aF0.014814814814814815
aF0.044444444444444446
aF0.022222222222222223
aF0.007407407407407408
aF0.007407407407407408
aF0.037037037037037035
aF0.007407407407407408
aF0.014814814814814815
aF0.0
aF0.007407407407407408
aF0.007407407407407408
aF0.0
aF0.007407407407407408
aF0.007407407407407408
aF0.0
aF0.0
aF0.007407407407407408
aF0.007407407407407408
aF0.0
aF0.0
aF0.007407407407407408
aF0.0
aF0.0
aF0.007407407407407408
aF0.0
aF0.0
aF0.0
aF0.0
aF0.0
aF0.0
aF0.0
aF0.0
aF0.007407407407407408
aF0.0
aF0.0
aF0.0
aF0.0
aF0.0
aF0.0
aF0.0
aF0.0
aF0.007407407407407408
aF0.0
aF0.0
aF0.0
aF0.0
aF0.0
aF0.0
aF0.0
aF0.0
aF0.0
aF0.007407407407407408
aF0.0
aF0.0
aF0.0
aF0.0
aF0.0
aF0.0
aF0.0
aF0.0
aF0.0
aF0.0
aF0.0
aF0.0
aF0.0
aF0.0
aF0.0
aF0.0
aF0.0
aF0.007407407407407408
aF0.0
aF0.007407407407407408
aF0.0
aF0.0
aF0.0
aF0.0
aF0.007407407407407408
aF0.0
aF0.0
asI46
(lp363
F0.1956521739130435
aF0.16304347826086957
aF0.11956521739130435
aF0.06521739130434782
aF0.06521739130434782
aF0.08695652173913043
aF0.021739130434782608
aF0.0
aF0.021739130434782608
aF0.0
aF0.03260869565217391
aF0.021739130434782608
aF0.010869565217391304
aF0.010869565217391304
aF0.0
aF0.010869565217391304
aF0.0
aF0.010869565217391304
aF0.010869565217391304
aF0.0
aF0.010869565217391304
aF0.0
aF0.0
aF0.0
aF0.0
aF0.010869565217391304
aF0.0
aF0.0
aF0.010869565217391304
aF0.0
aF0.0
aF0.0
aF0.010869565217391304
aF0.0
aF0.0
aF0.010869565217391304
aF0.010869565217391304
aF0.0
aF0.0
aF0.0
aF0.0
aF0.010869565217391304
aF0.0
aF0.0
aF0.0
aF0.0
aF0.0
aF0.0
aF0.0
aF0.0
aF0.0
aF0.0
aF0.0
aF0.0
aF0.0
aF0.0
aF0.0
aF0.010869565217391304
aF0.0
aF0.0
aF0.0
aF0.010869565217391304
aF0.0
aF0.0
aF0.0
aF0.0
aF0.0
aF0.0
aF0.0
aF0.0
aF0.0
aF0.010869565217391304
aF0.0
aF0.0
aF0.0
aF0.0
aF0.010869565217391304
aF0.0
aF0.0
aF0.0
aF0.010869565217391304
aF0.0
aF0.0
aF0.0
aF0.0
aF0.010869565217391304
aF0.010869565217391304
asI47
(lp364
F0.2553191489361702
aF0.23404255319148937
aF0.0851063829787234
aF0.1276595744680851
aF0.0
aF0.02127659574468085
aF0.02127659574468085
aF0.0
aF0.0425531914893617
aF0.0
aF0.0
aF0.0851063829787234
aF0.02127659574468085
aF0.02127659574468085
aF0.0
aF0.0425531914893617
aF0.0
aF0.0
aF0.0
aF0.0
aF0.0
aF0.0
aF0.0
aF0.0
aF0.0
aF0.02127659574468085
aF0.0
aF0.0
aF0.0
aF0.0
aF0.0
aF0.0
aF0.0
aF0.0
aF0.0
aF0.0
aF0.0
aF0.0
aF0.0
aF0.0
aF0.0
aF0.0
aF0.0
aF0.0
aF0.0
aF0.0
aF0.0
aF0.0
aF0.0
aF0.0
aF0.0
aF0.0
aF0.0
aF0.0
aF0.0
aF0.0
aF0.0
aF0.0
aF0.0
aF0.0
aF0.0
aF0.0
aF0.0
aF0.0
aF0.0
aF0.0
aF0.0
aF0.0
aF0.0
aF0.0
aF0.0
aF0.0
aF0.0
aF0.0
aF0.0
aF0.0
aF0.0
aF0.0
aF0.0
aF0.0
aF0.0
aF0.0
aF0.0
aF0.0
aF0.0
aF0.0
aF0.02127659574468085
asI48
(lp365
F0.2916666666666667
aF0.125
aF0.10416666666666667
aF0.08333333333333333
aF0.020833333333333332
aF0.041666666666666664
aF0.020833333333333332
aF0.0
aF0.041666666666666664
aF0.020833333333333332
aF0.041666666666666664
aF0.041666666666666664
aF0.0
aF0.020833333333333332
aF0.0
aF0.0
aF0.0
aF0.020833333333333332
aF0.020833333333333332
aF0.0
aF0.0
aF0.0
aF0.0
aF0.0
aF0.0
aF0.020833333333333332
aF0.0
aF0.0
aF0.0
aF0.0
aF0.0
aF0.0
aF0.0
aF0.0
aF0.0
aF0.0
aF0.041666666666666664
aF0.0
aF0.0
aF0.0
aF0.020833333333333332
aF0.0
aF0.0
aF0.0
aF0.0
aF0.0
aF0.0
aF0.0
aF0.0
aF0.0
aF0.0
aF0.0
aF0.0
aF0.0
aF0.0
aF0.0
aF0.0
aF0.0
aF0.0
aF0.0
aF0.0
aF0.0
aF0.0
aF0.0
aF0.0
aF0.0
aF0.0
aF0.0
aF0.0
aF0.0
aF0.0
aF0.0
aF0.0
aF0.0
aF0.0
aF0.0
aF0.0
aF0.020833333333333332
aF0.0
aF0.0
aF0.0
aF0.0
aF0.0
aF0.0
aF0.0
aF0.0
aF0.0
asI49
(lp366
F0.1836734693877551
aF0.1836734693877551
aF0.08163265306122448
aF0.08163265306122448
aF0.02040816326530612
aF0.061224489795918366
aF0.04081632653061224
aF0.061224489795918366
aF0.04081632653061224
aF0.0
aF0.04081632653061224
aF0.0
aF0.02040816326530612
aF0.04081632653061224
aF0.02040816326530612
aF0.02040816326530612
aF0.0
aF0.0
aF0.0
aF0.0
aF0.0
aF0.0
aF0.0
aF0.0
aF0.0
aF0.0
aF0.0
aF0.0
aF0.02040816326530612
aF0.0
aF0.0
aF0.0
aF0.0
aF0.02040816326530612
aF0.0
aF0.0
aF0.0
aF0.0
aF0.0
aF0.0
aF0.0
aF0.0
aF0.0
aF0.0
aF0.0
aF0.0
aF0.0
aF0.0
aF0.0
aF0.0
aF0.0
aF0.0
aF0.0
aF0.0
aF0.0
aF0.0
aF0.0
aF0.02040816326530612
aF0.0
aF0.02040816326530612
aF0.0
aF0.0
aF0.0
aF0.0
aF0.0
aF0.0
aF0.0
aF0.0
aF0.0
aF0.0
aF0.0
aF0.0
aF0.0
aF0.0
aF0.0
aF0.0
aF0.0
aF0.0
aF0.0
aF0.0
aF0.0
aF0.0
aF0.0
aF0.0
aF0.02040816326530612
aF0.0
aF0.0
asI50
(lp367
F0.26
aF0.18
aF0.14
aF0.09
aF0.02
aF0.02
aF0.05
aF0.02
aF0.03
aF0.02
aF0.01
aF0.02
aF0.03
aF0.0
aF0.01
aF0.0
aF0.01
aF0.01
aF0.0
aF0.01
aF0.0
aF0.0
aF0.0
aF0.0
aF0.0
aF0.0
aF0.0
aF0.0
aF0.01
aF0.0
aF0.0
aF0.0
aF0.0
aF0.0
aF0.0
aF0.0
aF0.0
aF0.0
aF0.0
aF0.0
aF0.0
aF0.0
aF0.0
aF0.0
aF0.0
aF0.0
aF0.0
aF0.0
aF0.0
aF0.0
aF0.0
aF0.0
aF0.0
aF0.0
aF0.0
aF0.0
aF0.0
aF0.0
aF0.0
aF0.0
aF0.0
aF0.0
aF0.0
aF0.0
aF0.0
aF0.01
aF0.0
aF0.0
aF0.0
aF0.0
aF0.0
aF0.0
aF0.0
aF0.0
aF0.0
aF0.0
aF0.0
aF0.0
aF0.0
aF0.01
aF0.01
aF0.01
aF0.0
aF0.01
aF0.01
aF0.0
aF0.0
asI51
(lp368
F0.2549019607843137
aF0.0784313725490196
aF0.1568627450980392
aF0.0784313725490196
aF0.049019607843137254
aF0.049019607843137254
aF0.0784313725490196
aF0.049019607843137254
aF0.0196078431372549
aF0.00980392156862745
aF0.00980392156862745
aF0.0196078431372549
aF0.0196078431372549
aF0.00980392156862745
aF0.00980392156862745
aF0.0
aF0.00980392156862745
aF0.00980392156862745
aF0.0
aF0.0
aF0.0
aF0.0
aF0.0
aF0.0196078431372549
aF0.0
aF0.0
aF0.0
aF0.0
aF0.0
aF0.0
aF0.0
aF0.0
aF0.0
aF0.0
aF0.0
aF0.0
aF0.0
aF0.0
aF0.0
aF0.00980392156862745
aF0.0
aF0.0
aF0.0
aF0.0
aF0.0
aF0.0
aF0.0
aF0.0
aF0.0
aF0.0
aF0.0
aF0.0
aF0.0
aF0.0
aF0.0
aF0.0
aF0.0
aF0.0
aF0.0
aF0.0196078431372549
aF0.0
aF0.0
aF0.0
aF0.0
aF0.0
aF0.0
aF0.0
aF0.0
aF0.0
aF0.00980392156862745
aF0.0
aF0.0
aF0.0
aF0.0
aF0.00980392156862745
aF0.0
aF0.0
aF0.0
aF0.00980392156862745
aF0.0
aF0.00980392156862745
aF0.0
aF0.0
aF0.0
aF0.0
aF0.0
aF0.0
asI52
(lp369
F0.20192307692307693
aF0.125
aF0.10576923076923077
aF0.1346153846153846
aF0.04807692307692308
aF0.057692307692307696
aF0.019230769230769232
aF0.038461538461538464
aF0.019230769230769232
aF0.028846153846153848
aF0.04807692307692308
aF0.019230769230769232
aF0.0
aF0.009615384615384616
aF0.009615384615384616
aF0.0
aF0.009615384615384616
aF0.019230769230769232
aF0.009615384615384616
aF0.009615384615384616
aF0.009615384615384616
aF0.0
aF0.0
aF0.0
aF0.0
aF0.0
aF0.0
aF0.009615384615384616
aF0.0
aF0.0
aF0.0
aF0.0
aF0.0
aF0.0
aF0.0
aF0.0
aF0.0
aF0.0
aF0.009615384615384616
aF0.009615384615384616
aF0.0
aF0.0
aF0.009615384615384616
aF0.0
aF0.0
aF0.0
aF0.0
aF0.0
aF0.0
aF0.0
aF0.0
aF0.0
aF0.0
aF0.0
aF0.0
aF0.0
aF0.0
aF0.0
aF0.0
aF0.009615384615384616
aF0.0
aF0.0
aF0.0
aF0.0
aF0.0
aF0.0
aF0.0
aF0.0
aF0.0
aF0.0
aF0.0
aF0.0
aF0.0
aF0.0
aF0.0
aF0.0
aF0.009615384615384616
aF0.0
aF0.009615384615384616
aF0.0
aF0.0
aF0.0
aF0.0
aF0.009615384615384616
aF0.0
aF0.0
aF0.0
asI54
(lp370
F0.3055555555555556
aF0.10185185185185185
aF0.09259259259259259
aF0.027777777777777776
aF0.06481481481481481
aF0.08333333333333333
aF0.009259259259259259
aF0.018518518518518517
aF0.009259259259259259
aF0.0
aF0.018518518518518517
aF0.027777777777777776
aF0.046296296296296294
aF0.009259259259259259
aF0.009259259259259259
aF0.0
aF0.009259259259259259
aF0.0
aF0.0
aF0.018518518518518517
aF0.0
aF0.0
aF0.0
aF0.018518518518518517
aF0.0
aF0.009259259259259259
aF0.0
aF0.0
aF0.0
aF0.009259259259259259
aF0.009259259259259259
aF0.009259259259259259
aF0.0
aF0.0
aF0.0
aF0.018518518518518517
aF0.009259259259259259
aF0.009259259259259259
aF0.0
aF0.0
aF0.0
aF0.009259259259259259
aF0.0
aF0.0
aF0.0
aF0.0
aF0.0
aF0.0
aF0.0
aF0.0
aF0.0
aF0.0
aF0.0
aF0.0
aF0.0
aF0.0
aF0.0
aF0.0
aF0.0
aF0.0
aF0.0
aF0.0
aF0.0
aF0.0
aF0.0
aF0.0
aF0.0
aF0.0
aF0.0
aF0.0
aF0.0
aF0.009259259259259259
aF0.0
aF0.0
aF0.0
aF0.0
aF0.0
aF0.0
aF0.0
aF0.0
aF0.0
aF0.009259259259259259
aF0.0
aF0.0
aF0.0
aF0.018518518518518517
aF0.009259259259259259
asI55
(lp371
F0.18181818181818182
aF0.13636363636363635
aF0.13636363636363635
aF0.12727272727272726
aF0.06363636363636363
aF0.02727272727272727
aF0.03636363636363636
aF0.01818181818181818
aF0.01818181818181818
aF0.01818181818181818
aF0.02727272727272727
aF0.01818181818181818
aF0.02727272727272727
aF0.00909090909090909
aF0.01818181818181818
aF0.0
aF0.00909090909090909
aF0.0
aF0.00909090909090909
aF0.0
aF0.00909090909090909
aF0.0
aF0.0
aF0.0
aF0.0
aF0.0
aF0.0
aF0.0
aF0.01818181818181818
aF0.00909090909090909
aF0.0
aF0.00909090909090909
aF0.0
aF0.0
aF0.0
aF0.0
aF0.0
aF0.0
aF0.0
aF0.0
aF0.0
aF0.00909090909090909
aF0.0
aF0.0
aF0.0
aF0.0
aF0.0
aF0.0
aF0.0
aF0.0
aF0.0
aF0.0
aF0.0
aF0.0
aF0.0
aF0.0
aF0.0
aF0.0
aF0.0
aF0.0
aF0.0
aF0.0
aF0.0
aF0.0
aF0.0
aF0.0
aF0.0
aF0.0
aF0.0
aF0.0
aF0.01818181818181818
aF0.0
aF0.00909090909090909
aF0.0
aF0.0
aF0.0
aF0.0
aF0.0
aF0.0
aF0.0
aF0.00909090909090909
aF0.0
aF0.00909090909090909
aF0.0
aF0.0
aF0.0
aF0.01818181818181818
asI56
(lp372
F0.36904761904761907
aF0.18452380952380953
aF0.09523809523809523
aF0.047619047619047616
aF0.02976190476190476
aF0.023809523809523808
aF0.011904761904761904
aF0.03571428571428571
aF0.023809523809523808
aF0.005952380952380952
aF0.02976190476190476
aF0.0
aF0.011904761904761904
aF0.017857142857142856
aF0.005952380952380952
aF0.0
aF0.005952380952380952
aF0.005952380952380952
aF0.0
aF0.0
aF0.0
aF0.005952380952380952
aF0.005952380952380952
aF0.005952380952380952
aF0.0
aF0.0
aF0.0
aF0.0
aF0.005952380952380952
aF0.0
aF0.0
aF0.0
aF0.0
aF0.0
aF0.005952380952380952
aF0.0
aF0.0
aF0.0
aF0.005952380952380952
aF0.0
aF0.005952380952380952
aF0.0
aF0.0
aF0.0
aF0.0
aF0.0
aF0.0
aF0.0
aF0.0
aF0.0
aF0.0
aF0.0
aF0.0
aF0.0
aF0.0
aF0.0
aF0.0
aF0.0
aF0.0
aF0.005952380952380952
aF0.0
aF0.0
aF0.0
aF0.011904761904761904
aF0.0
aF0.005952380952380952
aF0.0
aF0.0
aF0.0
aF0.0
aF0.0
aF0.0
aF0.0
aF0.005952380952380952
aF0.005952380952380952
aF0.0
aF0.0
aF0.0
aF0.0
aF0.0
aF0.0
aF0.005952380952380952
aF0.0
aF0.0
aF0.0
aF0.005952380952380952
aF0.005952380952380952
asI57
(lp373
F0.22807017543859648
aF0.21052631578947367
aF0.03508771929824561
aF0.10526315789473684
aF0.05263157894736842
aF0.05263157894736842
aF0.05263157894736842
aF0.017543859649122806
aF0.05263157894736842
aF0.03508771929824561
aF0.0
aF0.0
aF0.0
aF0.017543859649122806
aF0.0
aF0.017543859649122806
aF0.017543859649122806
aF0.0
aF0.0
aF0.0
aF0.0
aF0.0
aF0.0
aF0.0
aF0.0
aF0.017543859649122806
aF0.0
aF0.0
aF0.017543859649122806
aF0.0
aF0.017543859649122806
aF0.0
aF0.0
aF0.0
aF0.0
aF0.0
aF0.017543859649122806
aF0.0
aF0.0
aF0.0
aF0.017543859649122806
aF0.0
aF0.0
aF0.0
aF0.0
aF0.0
aF0.0
aF0.0
aF0.0
aF0.0
aF0.0
aF0.0
aF0.0
aF0.0
aF0.0
aF0.0
aF0.0
aF0.0
aF0.0
aF0.0
aF0.0
aF0.0
aF0.0
aF0.0
aF0.0
aF0.0
aF0.0
aF0.0
aF0.0
aF0.0
aF0.0
aF0.0
aF0.0
aF0.0
aF0.0
aF0.0
aF0.0
aF0.0
aF0.0
aF0.0
aF0.0
aF0.017543859649122806
aF0.0
aF0.0
aF0.0
aF0.0
aF0.0
asI58
(lp374
F0.1896551724137931
aF0.20689655172413793
aF0.06896551724137931
aF0.06896551724137931
aF0.1206896551724138
aF0.017241379310344827
aF0.034482758620689655
aF0.06896551724137931
aF0.0
aF0.0
aF0.017241379310344827
aF0.017241379310344827
aF0.0
aF0.0
aF0.017241379310344827
aF0.0
aF0.0
aF0.0
aF0.017241379310344827
aF0.034482758620689655
aF0.034482758620689655
aF0.0
aF0.0
aF0.0
aF0.0
aF0.0
aF0.0
aF0.0
aF0.017241379310344827
aF0.0
aF0.0
aF0.0
aF0.0
aF0.017241379310344827
aF0.0
aF0.0
aF0.017241379310344827
aF0.0
aF0.0
aF0.0
aF0.0
aF0.0
aF0.0
aF0.0
aF0.0
aF0.0
aF0.0
aF0.0
aF0.0
aF0.0
aF0.0
aF0.0
aF0.0
aF0.0
aF0.0
aF0.0
aF0.0
aF0.0
aF0.0
aF0.0
aF0.0
aF0.0
aF0.0
aF0.0
aF0.0
aF0.0
aF0.0
aF0.0
aF0.0
aF0.0
aF0.017241379310344827
aF0.0
aF0.0
aF0.0
aF0.0
aF0.0
aF0.0
aF0.0
aF0.0
aF0.0
aF0.0
aF0.0
aF0.0
aF0.0
aF0.0
aF0.017241379310344827
aF0.0
asI59
(lp375
F0.2711864406779661
aF0.1694915254237288
aF0.11864406779661017
aF0.15254237288135594
aF0.0
aF0.0
aF0.03389830508474576
aF0.05084745762711865
aF0.0
aF0.01694915254237288
aF0.01694915254237288
aF0.01694915254237288
aF0.0
aF0.01694915254237288
aF0.0
aF0.0
aF0.0
aF0.01694915254237288
aF0.01694915254237288
aF0.01694915254237288
aF0.0
aF0.0
aF0.0
aF0.01694915254237288
aF0.0
aF0.0
aF0.01694915254237288
aF0.0
aF0.01694915254237288
aF0.0
aF0.01694915254237288
aF0.0
aF0.0
aF0.0
aF0.0
aF0.0
aF0.0
aF0.0
aF0.0
aF0.0
aF0.0
aF0.01694915254237288
aF0.0
aF0.0
aF0.0
aF0.0
aF0.0
aF0.0
aF0.0
aF0.0
aF0.0
aF0.0
aF0.0
aF0.0
aF0.0
aF0.0
aF0.0
aF0.0
aF0.0
aF0.0
aF0.0
aF0.0
aF0.0
aF0.0
aF0.0
aF0.0
aF0.0
aF0.0
aF0.0
aF0.0
aF0.0
aF0.0
aF0.0
aF0.0
aF0.0
aF0.0
aF0.0
aF0.0
aF0.0
aF0.0
aF0.0
aF0.0
aF0.0
aF0.0
aF0.0
aF0.0
aF0.0
asI61
(lp376
F0.26229508196721313
aF0.13114754098360656
aF0.12295081967213115
aF0.08196721311475409
aF0.10655737704918032
aF0.05737704918032787
aF0.00819672131147541
aF0.05737704918032787
aF0.01639344262295082
aF0.00819672131147541
aF0.02459016393442623
aF0.040983606557377046
aF0.00819672131147541
aF0.00819672131147541
aF0.0
aF0.00819672131147541
aF0.0
aF0.00819672131147541
aF0.0
aF0.0
aF0.0
aF0.00819672131147541
aF0.0
aF0.0
aF0.0
aF0.0
aF0.0
aF0.0
aF0.0
aF0.0
aF0.00819672131147541
aF0.0
aF0.0
aF0.0
aF0.0
aF0.0
aF0.0
aF0.0
aF0.0
aF0.0
aF0.0
aF0.0
aF0.0
aF0.0
aF0.0
aF0.0
aF0.0
aF0.0
aF0.0
aF0.0
aF0.0
aF0.0
aF0.0
aF0.0
aF0.0
aF0.0
aF0.0
aF0.0
aF0.0
aF0.0
aF0.0
aF0.0
aF0.0
aF0.0
aF0.00819672131147541
aF0.0
aF0.0
aF0.0
aF0.0
aF0.0
aF0.0
aF0.00819672131147541
aF0.0
aF0.0
aF0.0
aF0.0
aF0.0
aF0.0
aF0.0
aF0.0
aF0.0
aF0.0
aF0.0
aF0.0
aF0.00819672131147541
aF0.0
aF0.00819672131147541
asI62
(lp377
F0.1935483870967742
aF0.14516129032258066
aF0.1774193548387097
aF0.04838709677419355
aF0.06451612903225806
aF0.06451612903225806
aF0.06451612903225806
aF0.016129032258064516
aF0.03225806451612903
aF0.016129032258064516
aF0.0
aF0.04838709677419355
aF0.0
aF0.0
aF0.0
aF0.0
aF0.0
aF0.0
aF0.016129032258064516
aF0.0
aF0.0
aF0.0
aF0.0
aF0.0
aF0.0
aF0.016129032258064516
aF0.0
aF0.0
aF0.0
aF0.0
aF0.016129032258064516
aF0.0
aF0.0
aF0.0
aF0.0
aF0.0
aF0.016129032258064516
aF0.0
aF0.0
aF0.0
aF0.0
aF0.0
aF0.0
aF0.016129032258064516
aF0.0
aF0.0
aF0.016129032258064516
aF0.0
aF0.0
aF0.0
aF0.0
aF0.0
aF0.0
aF0.0
aF0.0
aF0.0
aF0.0
aF0.0
aF0.0
aF0.0
aF0.0
aF0.0
aF0.0
aF0.0
aF0.0
aF0.016129032258064516
aF0.0
aF0.0
aF0.0
aF0.0
aF0.0
aF0.0
aF0.0
aF0.0
aF0.0
aF0.0
aF0.0
aF0.0
aF0.0
aF0.0
aF0.0
aF0.0
aF0.0
aF0.0
aF0.016129032258064516
aF0.0
aF0.0
asI64
(lp378
F0.265625
aF0.234375
aF0.125
aF0.046875
aF0.046875
aF0.015625
aF0.046875
aF0.015625
aF0.015625
aF0.03125
aF0.015625
aF0.015625
aF0.0
aF0.015625
aF0.0
aF0.015625
aF0.0
aF0.0
aF0.0
aF0.03125
aF0.0
aF0.0
aF0.0
aF0.0
aF0.0
aF0.0
aF0.0
aF0.015625
aF0.0
aF0.0
aF0.0
aF0.0
aF0.0
aF0.0
aF0.0
aF0.0
aF0.0
aF0.0
aF0.0
aF0.0
aF0.0
aF0.0
aF0.0
aF0.0
aF0.0
aF0.0
aF0.0
aF0.0
aF0.0
aF0.0
aF0.0
aF0.0
aF0.0
aF0.0
aF0.0
aF0.0
aF0.0
aF0.0
aF0.0
aF0.0
aF0.0
aF0.015625
aF0.0
aF0.0
aF0.0
aF0.0
aF0.015625
aF0.0
aF0.0
aF0.015625
aF0.0
aF0.0
aF0.0
aF0.0
aF0.0
aF0.0
aF0.0
aF0.0
aF0.0
aF0.0
aF0.0
aF0.0
aF0.0
aF0.0
aF0.0
aF0.0
aF0.0
asI66
(lp379
F0.2196969696969697
aF0.15151515151515152
aF0.09090909090909091
aF0.10227272727272728
aF0.045454545454545456
aF0.06060606060606061
aF0.01893939393939394
aF0.041666666666666664
aF0.011363636363636364
aF0.03409090909090909
aF0.011363636363636364
aF0.026515151515151516
aF0.011363636363636364
aF0.01893939393939394
aF0.011363636363636364
aF0.022727272727272728
aF0.0
aF0.003787878787878788
aF0.0
aF0.007575757575757576
aF0.0
aF0.003787878787878788
aF0.0
aF0.003787878787878788
aF0.003787878787878788
aF0.003787878787878788
aF0.003787878787878788
aF0.007575757575757576
aF0.0
aF0.0
aF0.003787878787878788
aF0.0
aF0.003787878787878788
aF0.0
aF0.003787878787878788
aF0.003787878787878788
aF0.0
aF0.0
aF0.0
aF0.0
aF0.0
aF0.0
aF0.003787878787878788
aF0.0
aF0.0
aF0.0
aF0.003787878787878788
aF0.0
aF0.007575757575757576
aF0.003787878787878788
aF0.0
aF0.0
aF0.003787878787878788
aF0.0
aF0.0
aF0.0
aF0.0
aF0.0
aF0.0
aF0.0
aF0.0
aF0.003787878787878788
aF0.0
aF0.0
aF0.0
aF0.0
aF0.0
aF0.0
aF0.0
aF0.0
aF0.0
aF0.003787878787878788
aF0.0
aF0.0
aF0.0
aF0.0
aF0.0
aF0.0
aF0.0
aF0.0
aF0.0
aF0.007575757575757576
aF0.003787878787878788
aF0.003787878787878788
aF0.007575757575757576
aF0.003787878787878788
aF0.011363636363636364
asI68
(lp380
F0.23529411764705882
aF0.22058823529411764
aF0.11764705882352941
aF0.08823529411764706
aF0.07352941176470588
aF0.04411764705882353
aF0.029411764705882353
aF0.0
aF0.0
aF0.04411764705882353
aF0.0
aF0.014705882352941176
aF0.04411764705882353
aF0.0
aF0.014705882352941176
aF0.0
aF0.014705882352941176
aF0.0
aF0.0
aF0.0
aF0.0
aF0.014705882352941176
aF0.0
aF0.0
aF0.0
aF0.029411764705882353
aF0.0
aF0.0
aF0.0
aF0.0
aF0.0
aF0.0
aF0.0
aF0.0
aF0.0
aF0.0
aF0.0
aF0.0
aF0.0
aF0.0
aF0.0
aF0.0
aF0.0
aF0.0
aF0.0
aF0.0
aF0.0
aF0.0
aF0.0
aF0.0
aF0.0
aF0.0
aF0.0
aF0.0
aF0.0
aF0.0
aF0.0
aF0.0
aF0.0
aF0.0
aF0.0
aF0.0
aF0.0
aF0.0
aF0.0
aF0.0
aF0.0
aF0.0
aF0.0
aF0.0
aF0.0
aF0.014705882352941176
aF0.0
aF0.0
aF0.0
aF0.0
aF0.0
aF0.0
aF0.0
aF0.0
aF0.0
aF0.0
aF0.0
aF0.0
aF0.0
aF0.0
aF0.0
asI69
(lp381
F0.30434782608695654
aF0.2246376811594203
aF0.07246376811594203
aF0.06521739130434782
aF0.028985507246376812
aF0.036231884057971016
aF0.028985507246376812
aF0.014492753623188406
aF0.014492753623188406
aF0.021739130434782608
aF0.007246376811594203
aF0.007246376811594203
aF0.007246376811594203
aF0.021739130434782608
aF0.021739130434782608
aF0.0
aF0.0
aF0.021739130434782608
aF0.007246376811594203
aF0.0
aF0.007246376811594203
aF0.007246376811594203
aF0.007246376811594203
aF0.007246376811594203
aF0.0
aF0.0
aF0.0
aF0.0
aF0.0
aF0.0
aF0.0
aF0.0
aF0.0
aF0.0
aF0.0
aF0.0
aF0.0
aF0.0
aF0.0
aF0.0
aF0.0
aF0.0
aF0.0
aF0.007246376811594203
aF0.0
aF0.0
aF0.0
aF0.0
aF0.0
aF0.0
aF0.0
aF0.0
aF0.0
aF0.0
aF0.0
aF0.0
aF0.0
aF0.0
aF0.007246376811594203
aF0.007246376811594203
aF0.0
aF0.0
aF0.0
aF0.0
aF0.0
aF0.0
aF0.007246376811594203
aF0.0
aF0.0
aF0.0
aF0.0
aF0.0
aF0.007246376811594203
aF0.0
aF0.0
aF0.0
aF0.007246376811594203
aF0.0
aF0.0
aF0.0
aF0.0
aF0.0
aF0.0
aF0.0
aF0.0
aF0.014492753623188406
aF0.007246376811594203
asI72
(lp382
F0.3472222222222222
aF0.1388888888888889
aF0.09722222222222222
aF0.041666666666666664
aF0.09722222222222222
aF0.013888888888888888
aF0.013888888888888888
aF0.0
aF0.027777777777777776
aF0.013888888888888888
aF0.013888888888888888
aF0.013888888888888888
aF0.0
aF0.0
aF0.013888888888888888
aF0.013888888888888888
aF0.013888888888888888
aF0.0
aF0.0
aF0.013888888888888888
aF0.013888888888888888
aF0.0
aF0.013888888888888888
aF0.013888888888888888
aF0.0
aF0.0
aF0.0
aF0.0
aF0.0
aF0.0
aF0.0
aF0.013888888888888888
aF0.0
aF0.013888888888888888
aF0.013888888888888888
aF0.0
aF0.0
aF0.0
aF0.0
aF0.0
aF0.013888888888888888
aF0.0
aF0.0
aF0.0
aF0.0
aF0.0
aF0.0
aF0.0
aF0.0
aF0.0
aF0.0
aF0.0
aF0.0
aF0.0
aF0.0
aF0.0
aF0.0
aF0.0
aF0.0
aF0.0
aF0.0
aF0.0
aF0.0
aF0.013888888888888888
aF0.0
aF0.0
aF0.0
aF0.0
aF0.0
aF0.0
aF0.0
aF0.0
aF0.0
aF0.0
aF0.0
aF0.0
aF0.0
aF0.0
aF0.013888888888888888
aF0.0
aF0.0
aF0.0
aF0.0
aF0.0
aF0.0
aF0.0
aF0.0
asI73
(lp383
F0.3013698630136986
aF0.13013698630136986
aF0.0547945205479452
aF0.0821917808219178
aF0.03424657534246575
aF0.02054794520547945
aF0.0547945205479452
aF0.0410958904109589
aF0.0273972602739726
aF0.0273972602739726
aF0.02054794520547945
aF0.0136986301369863
aF0.02054794520547945
aF0.02054794520547945
aF0.00684931506849315
aF0.00684931506849315
aF0.0
aF0.00684931506849315
aF0.00684931506849315
aF0.00684931506849315
aF0.0136986301369863
aF0.00684931506849315
aF0.0
aF0.0
aF0.00684931506849315
aF0.0
aF0.0
aF0.0
aF0.0
aF0.0
aF0.0
aF0.0
aF0.0
aF0.00684931506849315
aF0.0
aF0.00684931506849315
aF0.0
aF0.0
aF0.0
aF0.0
aF0.0
aF0.0
aF0.0
aF0.0
aF0.0
aF0.0
aF0.0
aF0.0
aF0.0
aF0.0
aF0.0
aF0.0
aF0.0136986301369863
aF0.0
aF0.0
aF0.0
aF0.0
aF0.0
aF0.0
aF0.0
aF0.0
aF0.0
aF0.00684931506849315
aF0.0
aF0.00684931506849315
aF0.0
aF0.0
aF0.0
aF0.0
aF0.0
aF0.0
aF0.0
aF0.0
aF0.0
aF0.0
aF0.0
aF0.0
aF0.0
aF0.00684931506849315
aF0.0
aF0.0
aF0.0
aF0.00684931506849315
aF0.0136986301369863
aF0.0
aF0.0136986301369863
aF0.00684931506849315
asI74
(lp384
F0.20270270270270271
aF0.12162162162162163
aF0.14864864864864866
aF0.04054054054054054
aF0.05405405405405406
aF0.0945945945945946
aF0.013513513513513514
aF0.04054054054054054
aF0.04054054054054054
aF0.013513513513513514
aF0.0
aF0.013513513513513514
aF0.02702702702702703
aF0.0
aF0.0
aF0.013513513513513514
aF0.0
aF0.02702702702702703
aF0.02702702702702703
aF0.0
aF0.02702702702702703
aF0.0
aF0.013513513513513514
aF0.0
aF0.0
aF0.0
aF0.0
aF0.0
aF0.0
aF0.0
aF0.0
aF0.0
aF0.0
aF0.0
aF0.013513513513513514
aF0.0
aF0.0
aF0.0
aF0.0
aF0.0
aF0.0
aF0.0
aF0.0
aF0.0
aF0.0
aF0.0
aF0.0
aF0.0
aF0.0
aF0.0
aF0.0
aF0.0
aF0.0
aF0.0
aF0.0
aF0.0
aF0.013513513513513514
aF0.0
aF0.0
aF0.0
aF0.0
aF0.0
aF0.0
aF0.013513513513513514
aF0.0
aF0.0
aF0.0
aF0.0
aF0.0
aF0.0
aF0.0
aF0.0
aF0.0
aF0.0
aF0.013513513513513514
aF0.0
aF0.0
aF0.0
aF0.0
aF0.0
aF0.0
aF0.0
aF0.013513513513513514
aF0.0
aF0.0
aF0.0
aF0.013513513513513514
asI75
(lp385
F0.16
aF0.17333333333333334
aF0.09333333333333334
aF0.06666666666666667
aF0.05333333333333334
aF0.013333333333333334
aF0.013333333333333334
aF0.04
aF0.02666666666666667
aF0.04
aF0.02666666666666667
aF0.06666666666666667
aF0.0
aF0.0
aF0.0
aF0.013333333333333334
aF0.013333333333333334
aF0.0
aF0.013333333333333334
aF0.02666666666666667
aF0.013333333333333334
aF0.0
aF0.0
aF0.0
aF0.0
aF0.0
aF0.0
aF0.0
aF0.013333333333333334
aF0.0
aF0.0
aF0.013333333333333334
aF0.0
aF0.0
aF0.013333333333333334
aF0.0
aF0.0
aF0.0
aF0.0
aF0.013333333333333334
aF0.0
aF0.0
aF0.0
aF0.0
aF0.0
aF0.0
aF0.0
aF0.013333333333333334
aF0.0
aF0.0
aF0.0
aF0.0
aF0.013333333333333334
aF0.0
aF0.0
aF0.0
aF0.0
aF0.013333333333333334
aF0.0
aF0.0
aF0.0
aF0.0
aF0.0
aF0.0
aF0.0
aF0.0
aF0.0
aF0.0
aF0.0
aF0.0
aF0.0
aF0.0
aF0.0
aF0.0
aF0.0
aF0.0
aF0.0
aF0.013333333333333334
aF0.0
aF0.0
aF0.0
aF0.013333333333333334
aF0.0
aF0.0
aF0.0
aF0.013333333333333334
aF0.013333333333333334
asI77
(lp386
F0.3116883116883117
aF0.15584415584415584
aF0.07792207792207792
aF0.03896103896103896
aF0.012987012987012988
aF0.09090909090909091
aF0.025974025974025976
aF0.025974025974025976
aF0.025974025974025976
aF0.012987012987012988
aF0.03896103896103896
aF0.0
aF0.012987012987012988
aF0.0
aF0.025974025974025976
aF0.0
aF0.012987012987012988
aF0.012987012987012988
aF0.0
aF0.0
aF0.0
aF0.0
aF0.012987012987012988
aF0.012987012987012988
aF0.0
aF0.0
aF0.0
aF0.0
aF0.0
aF0.0
aF0.0
aF0.0
aF0.012987012987012988
aF0.0
aF0.0
aF0.0
aF0.0
aF0.0
aF0.0
aF0.0
aF0.0
aF0.0
aF0.0
aF0.0
aF0.0
aF0.0
aF0.0
aF0.0
aF0.0
aF0.0
aF0.0
aF0.0
aF0.0
aF0.0
aF0.0
aF0.0
aF0.0
aF0.0
aF0.012987012987012988
aF0.0
aF0.0
aF0.012987012987012988
aF0.0
aF0.0
aF0.0
aF0.0
aF0.0
aF0.012987012987012988
aF0.0
aF0.0
aF0.012987012987012988
aF0.0
aF0.0
aF0.0
aF0.012987012987012988
aF0.0
aF0.0
aF0.012987012987012988
aF0.0
aF0.0
aF0.0
aF0.0
aF0.0
aF0.0
aF0.0
aF0.0
aF0.0
asI80
(lp387
F0.225
aF0.2375
aF0.1
aF0.075
aF0.0625
aF0.0125
aF0.0375
aF0.0125
aF0.0375
aF0.0
aF0.0125
aF0.025
aF0.0
aF0.0125
aF0.025
aF0.0125
aF0.0125
aF0.0
aF0.0
aF0.0125
aF0.0
aF0.0125
aF0.0125
aF0.0
aF0.0125
aF0.0
aF0.0
aF0.0
aF0.0
aF0.0
aF0.0125
aF0.0
aF0.0
aF0.0
aF0.0
aF0.0
aF0.0
aF0.0
aF0.0
aF0.0
aF0.0
aF0.0125
aF0.0
aF0.0
aF0.0
aF0.0
aF0.0
aF0.0
aF0.0
aF0.0
aF0.0
aF0.0
aF0.0
aF0.0
aF0.0
aF0.0
aF0.0
aF0.0
aF0.0
aF0.0
aF0.0
aF0.0
aF0.0
aF0.0
aF0.0
aF0.0
aF0.0125
aF0.0
aF0.0
aF0.0
aF0.0
aF0.0
aF0.0
aF0.0
aF0.0
aF0.0
aF0.0
aF0.0
aF0.0
aF0.0
aF0.0
aF0.0
aF0.0
aF0.0
aF0.0
aF0.0
aF0.0125
asI82
(lp388
F0.32926829268292684
aF0.12195121951219512
aF0.08536585365853659
aF0.12195121951219512
aF0.06097560975609756
aF0.06097560975609756
aF0.012195121951219513
aF0.012195121951219513
aF0.012195121951219513
aF0.012195121951219513
aF0.024390243902439025
aF0.012195121951219513
aF0.0
aF0.012195121951219513
aF0.0
aF0.012195121951219513
aF0.0
aF0.0
aF0.024390243902439025
aF0.012195121951219513
aF0.012195121951219513
aF0.0
aF0.0
aF0.024390243902439025
aF0.0
aF0.012195121951219513
aF0.0
aF0.0
aF0.0
aF0.0
aF0.0
aF0.0
aF0.0
aF0.0
aF0.0
aF0.0
aF0.0
aF0.0
aF0.0
aF0.0
aF0.0
aF0.0
aF0.0
aF0.0
aF0.0
aF0.0
aF0.0
aF0.0
aF0.0
aF0.0
aF0.0
aF0.0
aF0.0
aF0.0
aF0.0
aF0.0
aF0.0
aF0.0
aF0.0
aF0.0
aF0.0
aF0.0
aF0.0
aF0.0
aF0.0
aF0.0
aF0.0
aF0.0
aF0.0
aF0.0
aF0.0
aF0.0
aF0.0
aF0.0
aF0.0
aF0.012195121951219513
aF0.0
aF0.0
aF0.012195121951219513
aF0.0
aF0.0
aF0.0
aF0.0
aF0.0
aF0.0
aF0.0
aF0.0
asI86
(lp389
F0.18604651162790697
aF0.16279069767441862
aF0.10465116279069768
aF0.046511627906976744
aF0.023255813953488372
aF0.046511627906976744
aF0.10465116279069768
aF0.023255813953488372
aF0.03488372093023256
aF0.0
aF0.023255813953488372
aF0.011627906976744186
aF0.011627906976744186
aF0.03488372093023256
aF0.0
aF0.023255813953488372
aF0.0
aF0.0
aF0.023255813953488372
aF0.023255813953488372
aF0.023255813953488372
aF0.0
aF0.0
aF0.0
aF0.011627906976744186
aF0.023255813953488372
aF0.0
aF0.0
aF0.0
aF0.0
aF0.0
aF0.0
aF0.0
aF0.0
aF0.0
aF0.0
aF0.0
aF0.0
aF0.0
aF0.0
aF0.0
aF0.0
aF0.0
aF0.0
aF0.0
aF0.0
aF0.0
aF0.0
aF0.011627906976744186
aF0.0
aF0.0
aF0.0
aF0.0
aF0.0
aF0.0
aF0.0
aF0.0
aF0.0
aF0.011627906976744186
aF0.0
aF0.0
aF0.0
aF0.0
aF0.0
aF0.0
aF0.0
aF0.0
aF0.0
aF0.0
aF0.0
aF0.0
aF0.0
aF0.0
aF0.0
aF0.0
aF0.0
aF0.0
aF0.0
aF0.0
aF0.0
aF0.011627906976744186
aF0.0
aF0.011627906976744186
aF0.011627906976744186
aF0.0
aF0.0
aF0.0
asI90
(lp390
F0.3611111111111111
aF0.13333333333333333
aF0.1
aF0.06666666666666667
aF0.027777777777777776
aF0.05
aF0.016666666666666666
aF0.044444444444444446
aF0.016666666666666666
aF0.016666666666666666
aF0.011111111111111112
aF0.016666666666666666
aF0.0
aF0.0
aF0.005555555555555556
aF0.005555555555555556
aF0.005555555555555556
aF0.011111111111111112
aF0.011111111111111112
aF0.0
aF0.022222222222222223
aF0.011111111111111112
aF0.0
aF0.005555555555555556
aF0.011111111111111112
aF0.0
aF0.0
aF0.0
aF0.0
aF0.0
aF0.0
aF0.0
aF0.0
aF0.005555555555555556
aF0.0
aF0.0
aF0.0
aF0.0
aF0.0
aF0.0
aF0.0
aF0.0
aF0.0
aF0.0
aF0.0
aF0.0
aF0.0
aF0.0
aF0.0
aF0.0
aF0.0
aF0.011111111111111112
aF0.0
aF0.0
aF0.005555555555555556
aF0.0
aF0.0
aF0.0
aF0.0
aF0.0
aF0.0
aF0.0
aF0.0
aF0.0
aF0.0
aF0.0
aF0.005555555555555556
aF0.0
aF0.0
aF0.0
aF0.0
aF0.0
aF0.0
aF0.0
aF0.0
aF0.0
aF0.005555555555555556
aF0.0
aF0.0
aF0.0
aF0.0
aF0.005555555555555556
aF0.0
aF0.0
aF0.005555555555555556
aF0.0
aF0.005555555555555556
asI100
(lp391
F0.17
aF0.19
aF0.09
aF0.09
aF0.05
aF0.06
aF0.04
aF0.04
aF0.06
aF0.0
aF0.0
aF0.01
aF0.0
aF0.01
aF0.02
aF0.0
aF0.01
aF0.01
aF0.0
aF0.01
aF0.01
aF0.0
aF0.0
aF0.0
aF0.0
aF0.01
aF0.0
aF0.01
aF0.0
aF0.0
aF0.0
aF0.0
aF0.0
aF0.0
aF0.0
aF0.0
aF0.01
aF0.0
aF0.01
aF0.01
aF0.0
aF0.0
aF0.0
aF0.01
aF0.0
aF0.0
aF0.0
aF0.0
aF0.0
aF0.0
aF0.01
aF0.0
aF0.0
aF0.0
aF0.0
aF0.0
aF0.01
aF0.0
aF0.0
aF0.01
aF0.01
aF0.0
aF0.0
aF0.0
aF0.0
aF0.0
aF0.0
aF0.0
aF0.0
aF0.0
aF0.0
aF0.0
aF0.0
aF0.0
aF0.01
aF0.0
aF0.0
aF0.0
aF0.0
aF0.0
aF0.0
aF0.0
aF0.0
aF0.01
aF0.0
aF0.01
aF0.0
asI104
(lp392
F0.2403846153846154
aF0.11538461538461539
aF0.14423076923076922
aF0.0673076923076923
aF0.07692307692307693
aF0.038461538461538464
aF0.04807692307692308
aF0.038461538461538464
aF0.038461538461538464
aF0.009615384615384616
aF0.019230769230769232
aF0.038461538461538464
aF0.0
aF0.038461538461538464
aF0.0
aF0.019230769230769232
aF0.0
aF0.0
aF0.009615384615384616
aF0.009615384615384616
aF0.0
aF0.0
aF0.0
aF0.0
aF0.0
aF0.0
aF0.0
aF0.0
aF0.0
aF0.009615384615384616
aF0.0
aF0.0
aF0.0
aF0.0
aF0.0
aF0.0
aF0.009615384615384616
aF0.0
aF0.0
aF0.0
aF0.0
aF0.0
aF0.0
aF0.0
aF0.0
aF0.0
aF0.0
aF0.0
aF0.0
aF0.0
aF0.0
aF0.009615384615384616
aF0.0
aF0.0
aF0.0
aF0.0
aF0.0
aF0.0
aF0.0
aF0.0
aF0.0
aF0.009615384615384616
aF0.0
aF0.0
aF0.0
aF0.0
aF0.0
aF0.0
aF0.0
aF0.0
aF0.0
aF0.0
aF0.0
aF0.0
aF0.0
aF0.0
aF0.0
aF0.0
aF0.0
aF0.0
aF0.0
aF0.0
aF0.0
aF0.0
aF0.0
aF0.0
aF0.009615384615384616
asI105
(lp393
F0.22857142857142856
aF0.13333333333333333
aF0.13333333333333333
aF0.08571428571428572
aF0.05714285714285714
aF0.05714285714285714
aF0.0380952380952381
aF0.01904761904761905
aF0.0380952380952381
aF0.02857142857142857
aF0.0
aF0.009523809523809525
aF0.009523809523809525
aF0.009523809523809525
aF0.009523809523809525
aF0.0
aF0.0
aF0.009523809523809525
aF0.01904761904761905
aF0.0
aF0.0
aF0.0
aF0.009523809523809525
aF0.0
aF0.0
aF0.0
aF0.0
aF0.0
aF0.009523809523809525
aF0.0
aF0.0
aF0.009523809523809525
aF0.0
aF0.0
aF0.0
aF0.009523809523809525
aF0.01904761904761905
aF0.009523809523809525
aF0.0
aF0.0
aF0.009523809523809525
aF0.009523809523809525
aF0.0
aF0.0
aF0.0
aF0.0
aF0.0
aF0.0
aF0.0
aF0.0
aF0.0
aF0.0
aF0.009523809523809525
aF0.0
aF0.0
aF0.0
aF0.0
aF0.0
aF0.0
aF0.0
aF0.0
aF0.0
aF0.0
aF0.0
aF0.0
aF0.0
aF0.0
aF0.0
aF0.0
aF0.0
aF0.0
aF0.0
aF0.0
aF0.0
aF0.0
aF0.0
aF0.0
aF0.0
aF0.0
aF0.0
aF0.009523809523809525
aF0.0
aF0.009523809523809525
aF0.0
aF0.0
aF0.0
aF0.0
asI106
(lp394
F0.2641509433962264
aF0.11320754716981132
aF0.10377358490566038
aF0.1509433962264151
aF0.04716981132075472
aF0.02830188679245283
aF0.03773584905660377
aF0.02830188679245283
aF0.02830188679245283
aF0.009433962264150943
aF0.018867924528301886
aF0.018867924528301886
aF0.009433962264150943
aF0.0
aF0.018867924528301886
aF0.009433962264150943
aF0.0
aF0.009433962264150943
aF0.0
aF0.0
aF0.009433962264150943
aF0.0
aF0.0
aF0.0
aF0.009433962264150943
aF0.0
aF0.0
aF0.0
aF0.0
aF0.0
aF0.0
aF0.0
aF0.0
aF0.009433962264150943
aF0.0
aF0.009433962264150943
aF0.009433962264150943
aF0.0
aF0.0
aF0.0
aF0.0
aF0.0
aF0.0
aF0.0
aF0.0
aF0.0
aF0.0
aF0.0
aF0.009433962264150943
aF0.0
aF0.0
aF0.0
aF0.009433962264150943
aF0.0
aF0.0
aF0.0
aF0.0
aF0.0
aF0.0
aF0.0
aF0.0
aF0.0
aF0.0
aF0.0
aF0.009433962264150943
aF0.0
aF0.009433962264150943
aF0.0
aF0.0
aF0.0
aF0.0
aF0.009433962264150943
aF0.0
aF0.0
aF0.0
aF0.0
aF0.0
aF0.0
aF0.0
aF0.0
aF0.0
aF0.0
aF0.009433962264150943
aF0.0
aF0.0
aF0.0
aF0.0
asI368
(lp395
F0.1875
aF0.19293478260869565
aF0.11684782608695653
aF0.07065217391304347
aF0.051630434782608696
aF0.03804347826086957
aF0.04076086956521739
aF0.029891304347826088
aF0.029891304347826088
aF0.021739130434782608
aF0.008152173913043478
aF0.005434782608695652
aF0.016304347826086956
aF0.010869565217391304
aF0.008152173913043478
aF0.005434782608695652
aF0.0
aF0.01358695652173913
aF0.005434782608695652
aF0.005434782608695652
aF0.010869565217391304
aF0.002717391304347826
aF0.008152173913043478
aF0.005434782608695652
aF0.0
aF0.002717391304347826
aF0.0
aF0.005434782608695652
aF0.005434782608695652
aF0.002717391304347826
aF0.002717391304347826
aF0.0
aF0.0
aF0.002717391304347826
aF0.002717391304347826
aF0.0
aF0.005434782608695652
aF0.0
aF0.002717391304347826
aF0.0
aF0.005434782608695652
aF0.002717391304347826
aF0.0
aF0.002717391304347826
aF0.002717391304347826
aF0.0
aF0.0
aF0.0
aF0.0
aF0.0
aF0.002717391304347826
aF0.005434782608695652
aF0.002717391304347826
aF0.0
aF0.0
aF0.0
aF0.002717391304347826
aF0.0
aF0.0
aF0.008152173913043478
aF0.0
aF0.002717391304347826
aF0.0
aF0.002717391304347826
aF0.002717391304347826
aF0.002717391304347826
aF0.0
aF0.002717391304347826
aF0.0
aF0.0
aF0.002717391304347826
aF0.0
aF0.002717391304347826
aF0.0
aF0.0
aF0.002717391304347826
aF0.002717391304347826
aF0.002717391304347826
aF0.002717391304347826
aF0.002717391304347826
aF0.002717391304347826
aF0.0
aF0.002717391304347826
aF0.002717391304347826
aF0.002717391304347826
aF0.002717391304347826
aF0.0
asI114
(lp396
F0.16666666666666666
aF0.18421052631578946
aF0.11403508771929824
aF0.06140350877192982
aF0.07017543859649122
aF0.07017543859649122
aF0.017543859649122806
aF0.02631578947368421
aF0.017543859649122806
aF0.02631578947368421
aF0.02631578947368421
aF0.0
aF0.017543859649122806
aF0.017543859649122806
aF0.0
aF0.008771929824561403
aF0.008771929824561403
aF0.0
aF0.0
aF0.017543859649122806
aF0.008771929824561403
aF0.0
aF0.008771929824561403
aF0.008771929824561403
aF0.008771929824561403
aF0.017543859649122806
aF0.0
aF0.0
aF0.0
aF0.0
aF0.008771929824561403
aF0.0
aF0.0
aF0.0
aF0.0
aF0.0
aF0.008771929824561403
aF0.0
aF0.0
aF0.0
aF0.017543859649122806
aF0.008771929824561403
aF0.0
aF0.0
aF0.0
aF0.0
aF0.0
aF0.0
aF0.0
aF0.0
aF0.0
aF0.0
aF0.0
aF0.0
aF0.0
aF0.0
aF0.0
aF0.0
aF0.0
aF0.0
aF0.0
aF0.0
aF0.0
aF0.0
aF0.0
aF0.0
aF0.0
aF0.0
aF0.008771929824561403
aF0.0
aF0.0
aF0.0
aF0.0
aF0.0
aF0.0
aF0.0
aF0.0
aF0.0
aF0.0
aF0.008771929824561403
aF0.008771929824561403
aF0.0
aF0.0
aF0.008771929824561403
aF0.008771929824561403
aF0.0
aF0.008771929824561403
asI134
(lp397
F0.26119402985074625
aF0.16417910447761194
aF0.1044776119402985
aF0.1044776119402985
aF0.029850746268656716
aF0.06716417910447761
aF0.007462686567164179
aF0.03731343283582089
aF0.014925373134328358
aF0.007462686567164179
aF0.007462686567164179
aF0.029850746268656716
aF0.007462686567164179
aF0.007462686567164179
aF0.014925373134328358
aF0.0
aF0.0
aF0.0
aF0.0
aF0.014925373134328358
aF0.0
aF0.007462686567164179
aF0.0
aF0.014925373134328358
aF0.0
aF0.0
aF0.0
aF0.0
aF0.014925373134328358
aF0.007462686567164179
aF0.007462686567164179
aF0.0
aF0.0
aF0.0
aF0.0
aF0.0
aF0.007462686567164179
aF0.0
aF0.0
aF0.0
aF0.0
aF0.007462686567164179
aF0.0
aF0.007462686567164179
aF0.0
aF0.0
aF0.0
aF0.0
aF0.0
aF0.007462686567164179
aF0.0
aF0.0
aF0.0
aF0.0
aF0.0
aF0.0
aF0.0
aF0.0
aF0.0
aF0.0
aF0.0
aF0.007462686567164179
aF0.0
aF0.0
aF0.0
aF0.0
aF0.0
aF0.0
aF0.0
aF0.0
aF0.007462686567164179
aF0.0
aF0.0
aF0.0
aF0.0
aF0.0
aF0.0
aF0.0
aF0.0
aF0.007462686567164179
aF0.0
aF0.0
aF0.007462686567164179
aF0.0
aF0.0
aF0.0
aF0.007462686567164179
asI140
(lp398
F0.2642857142857143
aF0.17857142857142858
aF0.08571428571428572
aF0.09285714285714286
aF0.02142857142857143
aF0.03571428571428571
aF0.06428571428571428
aF0.0
aF0.03571428571428571
aF0.007142857142857143
aF0.0
aF0.014285714285714285
aF0.04285714285714286
aF0.0
aF0.014285714285714285
aF0.0
aF0.014285714285714285
aF0.0
aF0.04285714285714286
aF0.0
aF0.007142857142857143
aF0.0
aF0.007142857142857143
aF0.0
aF0.0
aF0.0
aF0.0
aF0.0
aF0.0
aF0.0
aF0.0
aF0.0
aF0.0
aF0.0
aF0.0
aF0.0
aF0.007142857142857143
aF0.007142857142857143
aF0.007142857142857143
aF0.0
aF0.0
aF0.0
aF0.007142857142857143
aF0.0
aF0.0
aF0.007142857142857143
aF0.0
aF0.0
aF0.0
aF0.0
aF0.0
aF0.0
aF0.0
aF0.0
aF0.0
aF0.0
aF0.0
aF0.0
aF0.0
aF0.0
aF0.0
aF0.0
aF0.0
aF0.0
aF0.0
aF0.007142857142857143
aF0.007142857142857143
aF0.0
aF0.0
aF0.0
aF0.0
aF0.0
aF0.0
aF0.0
aF0.0
aF0.0
aF0.0
aF0.0
aF0.0
aF0.0
aF0.0
aF0.0
aF0.0
aF0.007142857142857143
aF0.0
aF0.007142857142857143
aF0.007142857142857143
asI148
(lp399
F0.25675675675675674
aF0.1554054054054054
aF0.07432432432432433
aF0.07432432432432433
aF0.07432432432432433
aF0.06756756756756757
aF0.02027027027027027
aF0.033783783783783786
aF0.04054054054054054
aF0.0
aF0.02702702702702703
aF0.02702702702702703
aF0.006756756756756757
aF0.02027027027027027
aF0.0
aF0.0
aF0.0
aF0.0
aF0.0
aF0.0
aF0.0
aF0.02027027027027027
aF0.006756756756756757
aF0.006756756756756757
aF0.0
aF0.0
aF0.0
aF0.0
aF0.006756756756756757
aF0.0
aF0.0
aF0.0
aF0.0
aF0.006756756756756757
aF0.006756756756756757
aF0.0
aF0.0
aF0.006756756756756757
aF0.0
aF0.006756756756756757
aF0.0
aF0.006756756756756757
aF0.0
aF0.0
aF0.0
aF0.0
aF0.0
aF0.0
aF0.006756756756756757
aF0.006756756756756757
aF0.0
aF0.0
aF0.0
aF0.0
aF0.0
aF0.0
aF0.0
aF0.0
aF0.0
aF0.0
aF0.0
aF0.0
aF0.006756756756756757
aF0.006756756756756757
aF0.0
aF0.0
aF0.0
aF0.0
aF0.006756756756756757
aF0.0
aF0.0
aF0.0
aF0.0
aF0.0
aF0.0
aF0.0
aF0.0
aF0.0
aF0.0
aF0.0
aF0.0
aF0.0
aF0.006756756756756757
aF0.0
aF0.0
aF0.0
aF0.006756756756756757
asI149
(lp400
F0.31543624161073824
aF0.12080536912751678
aF0.10067114093959731
aF0.0738255033557047
aF0.06040268456375839
aF0.040268456375838924
aF0.020134228187919462
aF0.040268456375838924
aF0.013422818791946308
aF0.026845637583892617
aF0.013422818791946308
aF0.006711409395973154
aF0.006711409395973154
aF0.006711409395973154
aF0.020134228187919462
aF0.013422818791946308
aF0.0
aF0.006711409395973154
aF0.020134228187919462
aF0.006711409395973154
aF0.0
aF0.0
aF0.0
aF0.0
aF0.006711409395973154
aF0.013422818791946308
aF0.006711409395973154
aF0.006711409395973154
aF0.0
aF0.006711409395973154
aF0.0
aF0.0
aF0.0
aF0.0
aF0.0
aF0.0
aF0.0
aF0.0
aF0.0
aF0.0
aF0.0
aF0.006711409395973154
aF0.006711409395973154
aF0.0
aF0.0
aF0.0
aF0.0
aF0.006711409395973154
aF0.0
aF0.0
aF0.0
aF0.0
aF0.0
aF0.0
aF0.0
aF0.0
aF0.0
aF0.0
aF0.0
aF0.0
aF0.0
aF0.0
aF0.0
aF0.0
aF0.0
aF0.0
aF0.0
aF0.0
aF0.0
aF0.0
aF0.0
aF0.0
aF0.0
aF0.0
aF0.0
aF0.006711409395973154
aF0.006711409395973154
aF0.0
aF0.0
aF0.0
aF0.0
aF0.0
aF0.0
aF0.006711409395973154
aF0.0
aF0.0
aF0.006711409395973154
asI151
(lp401
F0.2781456953642384
aF0.19205298013245034
aF0.09271523178807947
aF0.046357615894039736
aF0.039735099337748346
aF0.07947019867549669
aF0.013245033112582781
aF0.039735099337748346
aF0.019867549668874173
aF0.006622516556291391
aF0.019867549668874173
aF0.006622516556291391
aF0.026490066225165563
aF0.0
aF0.006622516556291391
aF0.006622516556291391
aF0.0
aF0.0
aF0.006622516556291391
aF0.006622516556291391
aF0.0
aF0.019867549668874173
aF0.0
aF0.0
aF0.0
aF0.0
aF0.0
aF0.0
aF0.0
aF0.013245033112582781
aF0.0
aF0.0
aF0.0
aF0.0
aF0.006622516556291391
aF0.0
aF0.0
aF0.0
aF0.0
aF0.0
aF0.0
aF0.006622516556291391
aF0.0
aF0.006622516556291391
aF0.0
aF0.0
aF0.0
aF0.006622516556291391
aF0.006622516556291391
aF0.0
aF0.0
aF0.006622516556291391
aF0.0
aF0.0
aF0.0
aF0.0
aF0.0
aF0.0
aF0.0
aF0.0
aF0.0
aF0.0
aF0.0
aF0.0
aF0.0
aF0.0
aF0.0
aF0.0
aF0.0
aF0.006622516556291391
aF0.0
aF0.0
aF0.0
aF0.006622516556291391
aF0.0
aF0.006622516556291391
aF0.0
aF0.0
aF0.0
aF0.0
aF0.0
aF0.0
aF0.0
aF0.006622516556291391
aF0.0
aF0.006622516556291391
aF0.006622516556291391
asI163
(lp402
F0.27607361963190186
aF0.12269938650306748
aF0.0736196319018405
aF0.0736196319018405
aF0.06134969325153374
aF0.04294478527607362
aF0.049079754601226995
aF0.018404907975460124
aF0.03067484662576687
aF0.024539877300613498
aF0.018404907975460124
aF0.024539877300613498
aF0.012269938650306749
aF0.006134969325153374
aF0.018404907975460124
aF0.012269938650306749
aF0.0
aF0.006134969325153374
aF0.006134969325153374
aF0.0
aF0.006134969325153374
aF0.012269938650306749
aF0.0
aF0.006134969325153374
aF0.012269938650306749
aF0.012269938650306749
aF0.0
aF0.006134969325153374
aF0.0
aF0.0
aF0.0
aF0.006134969325153374
aF0.0
aF0.0
aF0.0
aF0.0
aF0.0
aF0.0
aF0.0
aF0.0
aF0.006134969325153374
aF0.0
aF0.0
aF0.0
aF0.0
aF0.0
aF0.0
aF0.006134969325153374
aF0.0
aF0.0
aF0.006134969325153374
aF0.0
aF0.006134969325153374
aF0.006134969325153374
aF0.0
aF0.0
aF0.0
aF0.0
aF0.0
aF0.012269938650306749
aF0.0
aF0.0
aF0.0
aF0.0
aF0.0
aF0.006134969325153374
aF0.0
aF0.0
aF0.0
aF0.0
aF0.006134969325153374
aF0.0
aF0.0
aF0.0
aF0.0
aF0.0
aF0.0
aF0.0
aF0.0
aF0.0
aF0.0
aF0.0
aF0.0
aF0.0
aF0.006134969325153374
aF0.0
aF0.0
asI188
(lp403
F0.2074468085106383
aF0.16489361702127658
aF0.10106382978723404
aF0.06914893617021277
aF0.05851063829787234
aF0.06382978723404255
aF0.031914893617021274
aF0.031914893617021274
aF0.02127659574468085
aF0.02127659574468085
aF0.010638297872340425
aF0.010638297872340425
aF0.0
aF0.010638297872340425
aF0.015957446808510637
aF0.005319148936170213
aF0.010638297872340425
aF0.005319148936170213
aF0.005319148936170213
aF0.010638297872340425
aF0.015957446808510637
aF0.005319148936170213
aF0.005319148936170213
aF0.005319148936170213
aF0.005319148936170213
aF0.005319148936170213
aF0.0
aF0.005319148936170213
aF0.02127659574468085
aF0.0
aF0.005319148936170213
aF0.0
aF0.0
aF0.0
aF0.0
aF0.0
aF0.005319148936170213
aF0.0
aF0.0
aF0.0
aF0.0
aF0.005319148936170213
aF0.0
aF0.0
aF0.0
aF0.0
aF0.0
aF0.0
aF0.0
aF0.0
aF0.0
aF0.005319148936170213
aF0.0
aF0.0
aF0.0
aF0.0
aF0.0
aF0.0
aF0.0
aF0.005319148936170213
aF0.0
aF0.0
aF0.0
aF0.005319148936170213
aF0.005319148936170213
aF0.0
aF0.0
aF0.0
aF0.0
aF0.005319148936170213
aF0.0
aF0.0
aF0.0
aF0.005319148936170213
aF0.005319148936170213
aF0.0
aF0.005319148936170213
aF0.0
aF0.005319148936170213
aF0.0
aF0.0
aF0.0
aF0.0
aF0.005319148936170213
aF0.0
aF0.0
aF0.005319148936170213
asI189
(lp404
F0.25396825396825395
aF0.12169312169312169
aF0.08465608465608465
aF0.08465608465608465
aF0.06349206349206349
aF0.042328042328042326
aF0.042328042328042326
aF0.031746031746031744
aF0.026455026455026454
aF0.026455026455026454
aF0.021164021164021163
aF0.010582010582010581
aF0.0
aF0.021164021164021163
aF0.005291005291005291
aF0.005291005291005291
aF0.010582010582010581
aF0.005291005291005291
aF0.010582010582010581
aF0.005291005291005291
aF0.0
aF0.0
aF0.0
aF0.010582010582010581
aF0.005291005291005291
aF0.0
aF0.0
aF0.0
aF0.010582010582010581
aF0.0
aF0.0
aF0.005291005291005291
aF0.0
aF0.0
aF0.0
aF0.005291005291005291
aF0.0
aF0.0
aF0.0
aF0.0
aF0.005291005291005291
aF0.005291005291005291
aF0.0
aF0.0
aF0.0
aF0.0
aF0.0
aF0.005291005291005291
aF0.0
aF0.005291005291005291
aF0.0
aF0.0
aF0.0
aF0.0
aF0.0
aF0.0
aF0.0
aF0.0
aF0.0
aF0.005291005291005291
aF0.0
aF0.0
aF0.0
aF0.010582010582010581
aF0.0
aF0.0
aF0.0
aF0.0
aF0.0
aF0.005291005291005291
aF0.0
aF0.005291005291005291
aF0.0
aF0.0
aF0.0
aF0.005291005291005291
aF0.0
aF0.005291005291005291
aF0.0
aF0.005291005291005291
aF0.005291005291005291
aF0.0
aF0.005291005291005291
aF0.0
aF0.005291005291005291
aF0.005291005291005291
aF0.005291005291005291
asI212
(lp405
F0.2971698113207547
aF0.1320754716981132
aF0.08962264150943396
aF0.09905660377358491
aF0.03773584905660377
aF0.04716981132075472
aF0.04716981132075472
aF0.018867924528301886
aF0.02830188679245283
aF0.018867924528301886
aF0.02358490566037736
aF0.0047169811320754715
aF0.014150943396226415
aF0.014150943396226415
aF0.0047169811320754715
aF0.0047169811320754715
aF0.0
aF0.0047169811320754715
aF0.0
aF0.0047169811320754715
aF0.0047169811320754715
aF0.0047169811320754715
aF0.0
aF0.0047169811320754715
aF0.0
aF0.0
aF0.0
aF0.0047169811320754715
aF0.009433962264150943
aF0.0047169811320754715
aF0.0
aF0.0047169811320754715
aF0.0
aF0.0
aF0.0
aF0.009433962264150943
aF0.0
aF0.0047169811320754715
aF0.0
aF0.0
aF0.0
aF0.0
aF0.0047169811320754715
aF0.0
aF0.0
aF0.0
aF0.0047169811320754715
aF0.0047169811320754715
aF0.0
aF0.0
aF0.0
aF0.0
aF0.0
aF0.0
aF0.0
aF0.0
aF0.0047169811320754715
aF0.0047169811320754715
aF0.0
aF0.009433962264150943
aF0.0
aF0.0
aF0.0
aF0.0
aF0.0
aF0.0
aF0.0
aF0.0
aF0.0
aF0.0
aF0.0047169811320754715
aF0.0
aF0.0
aF0.0
aF0.0
aF0.0047169811320754715
aF0.0
aF0.0
aF0.0
aF0.0
aF0.0
aF0.0047169811320754715
aF0.0
aF0.0047169811320754715
aF0.0
aF0.0
aF0.0047169811320754715
asI263
(lp406
F0.2965779467680608
aF0.12927756653992395
aF0.08745247148288973
aF0.060836501901140684
aF0.04182509505703422
aF0.049429657794676805
aF0.049429657794676805
aF0.026615969581749048
aF0.026615969581749048
aF0.011406844106463879
aF0.011406844106463879
aF0.030418250950570342
aF0.0076045627376425855
aF0.026615969581749048
aF0.0
aF0.0038022813688212928
aF0.0038022813688212928
aF0.0076045627376425855
aF0.0076045627376425855
aF0.0038022813688212928
aF0.015209125475285171
aF0.011406844106463879
aF0.0
aF0.0
aF0.0
aF0.0076045627376425855
aF0.0
aF0.0
aF0.0076045627376425855
aF0.0
aF0.0
aF0.0
aF0.0
aF0.0
aF0.0
aF0.0038022813688212928
aF0.0038022813688212928
aF0.0038022813688212928
aF0.0
aF0.0038022813688212928
aF0.0
aF0.0
aF0.0
aF0.0038022813688212928
aF0.0
aF0.0
aF0.0
aF0.0
aF0.0
aF0.0
aF0.0076045627376425855
aF0.0
aF0.0038022813688212928
aF0.0
aF0.0038022813688212928
aF0.0
aF0.0
aF0.0
aF0.0
aF0.0038022813688212928
aF0.0
aF0.0076045627376425855
aF0.0
aF0.0076045627376425855
aF0.0
aF0.0038022813688212928
aF0.0
aF0.0
aF0.0
aF0.0
aF0.0
aF0.0038022813688212928
aF0.0
aF0.0
aF0.0
aF0.0
aF0.0
aF0.0038022813688212928
aF0.0
aF0.0
aF0.0038022813688212928
aF0.0
aF0.0
aF0.0038022813688212928
aF0.0
aF0.0
aF0.0038022813688212928
assg31
(lp407
F0.20146043813143943
aF0.12990563835817412
aF0.09652895868760628
aF0.0744223266980094
aF0.053099263112267016
aF0.045213564069220766
aF0.03466039811943583
aF0.03200960288086426
aF0.02549098062752159
aF0.02120636190857257
aF0.01928912006935414
aF0.017972058284151913
aF0.01475442632789837
aF0.01787202827514921
aF0.012186989430162382
aF0.008702610783234971
aF0.006018472208329165
aF0.006668667266846721
aF0.008052415724717415
aF0.008435864092561102
aF0.008052415724717415
aF0.004401320396118836
aF0.00500150045013504
aF0.005635023840485479
aF0.0027008102430729217
aF0.006535293921509786
aF0.0009669567536927745
aF0.00250075022506752
aF0.006201860558167451
aF0.0026674669067386883
aF0.003300990297089127
aF0.002834183588409856
aF0.0017505251575472643
aF0.0024007202160648195
aF0.0024674068887332867
aF0.002534093561401754
aF0.005201560468140442
aF0.0020006001800540163
aF0.0013670767897035778
aF0.0014004201260378114
aF0.0021506451935580672
aF0.002934213597412557
aF0.0022506752025607682
aF0.0015337934713747458
aF0.0007835684038544897
aF0.0008002400720216065
aF0.0008169117401887233
aF0.0016671668167116801
aF0.0017005101530459137
aF0.0017338534893801473
aF0.0018005401620486145
aF0.0018338834983828481
aF0.0028008402520756227
aF0.0009502850855256577
aF0.0009669567536927745
aF0.0009836284218598913
aF0.0020339435163882497
aF0.0010336434263612418
aF0.0010669867626954754
aF0.004401320396118836
aF0.0011336734353639426
aF0.0023006902070621185
aF0.0012003601080324098
aF0.002434063552399053
aF0.0012337034443666434
aF0.00125037511253376
aF0.0012837184488679937
aF0.0013337334533693442
aF0.0013670767897035778
aF0.001433763462372045
aF0.0030009002700810243
aF0.0016671668167116801
aF0.0017338534893801473
aF0.0017505251575472643
aF0.001767196825714381
aF0.0019005701710513153
aF0.0022340035343936513
aF0.0023340335433963523
aF0.0024674068887332867
aF0.0024840785569004036
aF0.002517421893234637
aF0.0027174819112400386
aF0.0031342736154179587
aF0.0031509452835850756
aF0.003534393651428762
aF0.0043846487279517185
aF0.006135173885498983
asssS'edges'
p408
I29991
sS'nodes'
p409
I10000
s.