(dp0
S'probabilities'
p1
(dp2
S'alpha'
p3
cnumpy.core.multiarray
scalar
p4
(cnumpy
dtype
p5
(S'f8'
p6
I0
I1
tp7
Rp8
(I3
S'<'
p9
NNNI-1
I-1
I0
tp10
bS'333333\xe3?'
p11
tp12
Rp13
sS'beta'
p14
g4
(g8
S'\x9a\x99\x99\x99\x99\x99\xd9?'
p15
tp16
Rp17
sS'eta'
p18
g4
(g8
S'ffffff\xe6?'
p19
tp20
Rp21
ssS'status'
p22
S'READY'
p23
sS'initial'
p24
(dp25
S'I0'
p26
I9990
sS'S0'
p27
I10
sS'R0'
p28
I0
ssS'rates'
p29
(dp30
S'xi'
p31
g4
(g8
S'\xfc\xa9\xf1\xd2MbP?'
p32
tp33
Rp34
sS'delta'
p35
g4
(g8
S'{\x14\xaeG\xe1z\x84?'
p36
tp37
Rp38
sS'lambda'
p39
g4
(g8
S'\x00\x00\x00\x00\x00\x00\xf0?'
p40
tp41
Rp42
ssS'MaxIter'
p43
I40000
s.