(dp0
S'count'
p1
(lp2
F199.3866666666666
aF114.07999999999993
aF71.21333333333332
aF47.48666666666666
aF32.81333333333331
aF24.71333333333332
aF18.19000000000001
aF13.876666666666663
aF11.363333333333344
aF8.726666666666663
aF7.283333333333328
aF5.653333333333327
aF4.889999999999995
aF4.1766666666666605
aF3.606666666666663
aF3.269999999999998
aF2.6566666666666667
aF2.203333333333334
aF2.0733333333333355
aF1.863333333333333
aF1.570000000000001
aF1.4700000000000015
aF1.3100000000000003
aF1.1333333333333326
aF1.07
aF0.8866666666666674
aF0.9566666666666666
aF0.7599999999999998
aF0.75
aF0.7033333333333334
aF0.6333333333333331
aF0.5366666666666666
aF0.58
aF0.47000000000000053
aF0.5500000000000004
aF0.4100000000000006
aF0.4100000000000005
aF0.38666666666666694
aF0.3933333333333337
aF0.31000000000000005
aF0.30000000000000004
aF0.33666666666666684
aF0.24666666666666637
aF0.25999999999999973
aF0.29333333333333317
aF0.21999999999999975
aF0.23666666666666636
aF0.18666666666666645
aF0.243333333333333
aF0.2599999999999998
aF0.16999999999999985
aF0.1999999999999998
aF0.1433333333333332
aF0.13333333333333322
aF0.16999999999999982
aF0.14999999999999986
aF0.17666666666666647
aF0.13333333333333322
aF0.14666666666666653
aF0.13999999999999987
aF0.15666666666666654
aF0.14666666666666653
aF0.13333333333333322
aF0.09999999999999995
aF0.10999999999999992
aF0.09999999999999994
aF0.08999999999999996
aF0.10999999999999993
aF0.07999999999999997
aF0.09333333333333328
aF0.09333333333333328
aF0.07333333333333332
aF0.0833333333333333
aF0.08999999999999996
aF0.05666666666666667
aF0.10333333333333328
aF0.07999999999999997
aF0.06666666666666667
aF0.06666666666666667
aF0.06999999999999999
aF0.060000000000000005
aF0.060000000000000005
aF0.06999999999999999
aF0.04
aF0.05333333333333334
aF0.05
aF0.05
aF0.03666666666666667
aF0.030000000000000002
aF0.043333333333333335
aF0.03333333333333333
aF0.043333333333333335
aF0.02666666666666667
aF0.030000000000000002
aF0.02666666666666667
aF0.023333333333333334
aF0.03666666666666667
aF0.02
aF0.030000000000000002
aF0.02666666666666667
aF0.02
aF0.02
aF0.016666666666666666
aF0.013333333333333334
aF0.03333333333333333
aF0.023333333333333334
aF0.013333333333333334
aF0.016666666666666666
aF0.013333333333333334
aF0.006666666666666667
aF0.02
aF0.01
aF0.006666666666666667
aF0.0033333333333333335
aF0.01
aF0.0033333333333333335
aF0.01
aF0.0033333333333333335
aF0.01
aF0.0033333333333333335
aF0.0033333333333333335
aF0.006666666666666667
aF0.006666666666666667
aF0.0033333333333333335
aF0.006666666666666667
aF0.01
aF0.0033333333333333335
aF0.0033333333333333335
aF0.006666666666666667
aF0.006666666666666667
aF0.0033333333333333335
aF0.0033333333333333335
aF0.0033333333333333335
aF0.0033333333333333335
aF0.006666666666666667
aF0.0033333333333333335
aF0.006666666666666667
aF0.0033333333333333335
aF0.0033333333333333335
aF0.0033333333333333335
aF0.0033333333333333335
aF0.0033333333333333335
asS'index'
p3
(lp4
I4
aI5
aI6
aI7
aI8
aI9
aI10
aI11
aI12
aI13
aI14
aI15
aI16
aI17
aI18
aI19
aI20
aI21
aI22
aI23
aI24
aI25
aI26
aI27
aI28
aI29
aI30
aI31
aI32
aI33
aI34
aI35
aI36
aI37
aI38
aI39
aI40
aI41
aI42
aI43
aI44
aI45
aI46
aI47
aI48
aI49
aI50
aI51
aI52
aI53
aI54
aI55
aI56
aI57
aI58
aI59
aI60
aI61
aI62
aI63
aI64
aI65
aI66
aI67
aI68
aI69
aI70
aI71
aI72
aI73
aI74
aI75
aI76
aI77
aI78
aI79
aI80
aI81
aI82
aI83
aI84
aI85
aI86
aI87
aI88
aI89
aI90
aI91
aI92
aI93
aI94
aI95
aI96
aI97
aI98
aI99
aI100
aI101
aI102
aI103
aI104
aI105
aI106
aI107
aI108
aI109
aI110
aI111
aI112
aI113
aI114
aI115
aI116
aI117
aI118
aI119
aI120
aI121
aI122
aI124
aI126
aI127
aI128
aI129
aI130
aI131
aI132
aI133
aI134
aI135
aI137
aI138
aI140
aI141
aI142
aI146
aI147
aI149
aI154
aI156
aI157
aI158
asS'prob'
p5
(lp6
F0.1993866666666666
aF0.11407999999999993
aF0.07121333333333332
aF0.047486666666666656
aF0.03281333333333331
aF0.02471333333333332
aF0.018190000000000008
aF0.013876666666666664
aF0.011363333333333343
aF0.008726666666666664
aF0.007283333333333328
aF0.005653333333333327
aF0.004889999999999995
aF0.00417666666666666
aF0.003606666666666663
aF0.0032699999999999977
aF0.0026566666666666666
aF0.002203333333333334
aF0.0020733333333333354
aF0.0018633333333333332
aF0.0015700000000000009
aF0.0014700000000000015
aF0.0013100000000000002
aF0.0011333333333333325
aF0.00107
aF0.0008866666666666673
aF0.0009566666666666665
aF0.0007599999999999998
aF0.00075
aF0.0007033333333333334
aF0.0006333333333333331
aF0.0005366666666666666
aF0.00058
aF0.00047000000000000053
aF0.0005500000000000004
aF0.0004100000000000006
aF0.0004100000000000005
aF0.00038666666666666694
aF0.0003933333333333337
aF0.00031000000000000005
aF0.00030000000000000003
aF0.00033666666666666686
aF0.00024666666666666636
aF0.0002599999999999997
aF0.00029333333333333316
aF0.00021999999999999976
aF0.00023666666666666636
aF0.00018666666666666644
aF0.000243333333333333
aF0.00025999999999999976
aF0.00016999999999999985
aF0.0001999999999999998
aF0.0001433333333333332
aF0.00013333333333333323
aF0.00016999999999999982
aF0.00014999999999999985
aF0.00017666666666666647
aF0.00013333333333333323
aF0.00014666666666666653
aF0.00013999999999999988
aF0.00015666666666666653
aF0.00014666666666666653
aF0.00013333333333333323
aF9.999999999999995e-05
aF0.00010999999999999992
aF9.999999999999994e-05
aF8.999999999999995e-05
aF0.00010999999999999994
aF7.999999999999998e-05
aF9.333333333333328e-05
aF9.333333333333328e-05
aF7.333333333333332e-05
aF8.33333333333333e-05
aF8.999999999999995e-05
aF5.666666666666667e-05
aF0.00010333333333333327
aF7.999999999999998e-05
aF6.666666666666667e-05
aF6.666666666666667e-05
aF7e-05
aF6e-05
aF6e-05
aF7e-05
aF4e-05
aF5.333333333333334e-05
aF5e-05
aF5e-05
aF3.6666666666666666e-05
aF3e-05
aF4.3333333333333334e-05
aF3.3333333333333335e-05
aF4.3333333333333334e-05
aF2.666666666666667e-05
aF3e-05
aF2.666666666666667e-05
aF2.3333333333333336e-05
aF3.6666666666666666e-05
aF2e-05
aF3e-05
aF2.666666666666667e-05
aF2e-05
aF2e-05
aF1.6666666666666667e-05
aF1.3333333333333335e-05
aF3.3333333333333335e-05
aF2.3333333333333336e-05
aF1.3333333333333335e-05
aF1.6666666666666667e-05
aF1.3333333333333335e-05
aF6.6666666666666675e-06
aF2e-05
aF1e-05
aF6.6666666666666675e-06
aF3.3333333333333337e-06
aF1e-05
aF3.3333333333333337e-06
aF1e-05
aF3.3333333333333337e-06
aF1e-05
aF3.3333333333333337e-06
aF3.3333333333333337e-06
aF6.6666666666666675e-06
aF6.6666666666666675e-06
aF3.3333333333333337e-06
aF6.6666666666666675e-06
aF1e-05
aF3.3333333333333337e-06
aF3.3333333333333337e-06
aF6.6666666666666675e-06
aF6.6666666666666675e-06
aF3.3333333333333337e-06
aF3.3333333333333337e-06
aF3.3333333333333337e-06
aF3.3333333333333337e-06
aF6.6666666666666675e-06
aF3.3333333333333337e-06
aF6.6666666666666675e-06
aF3.3333333333333337e-06
aF3.3333333333333337e-06
aF3.3333333333333337e-06
aF3.3333333333333337e-06
aF3.3333333333333337e-06
asS'kmean'
p7
F4.78812
sS'popt'
p8
cnumpy.core.multiarray
_reconstruct
p9
(cnumpy
ndarray
p10
(I0
tp11
S'b'
p12
tp13
Rp14
(I1
(I2
tp15
cnumpy
dtype
p16
(S'f8'
p17
I0
I1
tp18
Rp19
(I3
S'<'
p20
NNNI-1
I-1
I0
tp21
bI00
S'c\xc2\xaaVh\xb6\x04@\xb4u\xe55 \x06\x1d@'
p22
tp23
bs.