(dp0
S'count'
p1
(lp2
I40005
aI20013
aI11306
aI7175
aI4760
aI3416
aI2457
aI1845
aI1470
aI1031
aI864
aI709
aI575
aI475
aI403
aI375
aI299
aI276
aI236
aI179
aI152
aI156
aI123
aI131
aI111
aI81
aI77
aI91
aI81
aI55
aI68
aI58
aI44
aI46
aI41
aI45
aI35
aI31
aI34
aI26
aI28
aI23
aI19
aI26
aI18
aI25
aI14
aI24
aI20
aI11
aI18
aI11
aI11
aI16
aI12
aI18
aI16
aI12
aI12
aI8
aI6
aI9
aI7
aI9
aI7
aI11
aI9
aI8
aI8
aI7
aI8
aI7
aI4
aI5
aI1
aI6
aI3
aI9
aI4
aI3
aI7
aI2
aI1
aI6
aI3
aI4
aI3
aI4
aI2
aI3
aI2
aI2
aI2
aI2
aI3
aI2
aI2
aI3
aI1
aI3
aI3
aI2
aI3
aI1
aI3
aI4
aI4
aI2
aI2
aI2
aI2
aI1
aI2
aI1
aI4
aI1
aI1
aI1
aI1
aI1
aI1
aI1
aI1
aI2
aI2
aI1
aI1
aI2
aI1
aI1
aI1
aI1
aI3
aI1
aI1
aI1
aI1
aI2
aI1
aI1
aI1
aI1
aI2
aI1
aI1
aI1
aI1
aI1
aI1
aI1
aI1
aI1
aI1
aI1
aI1
aI1
aI1
aI1
aI1
aI1
aI1
aI1
aI1
aI1
aI1
aI1
aI1
aI1
aI1
aI1
aI1
aI1
aI1
aI1
aI1
aI1
aI1
aI1
aI1
aI1
aI1
aI1
aI1
aI1
aI1
aI1
aI1
asS'index'
p3
(lp4
I3
aI4
aI5
aI6
aI7
aI8
aI9
aI10
aI11
aI12
aI13
aI14
aI15
aI16
aI17
aI18
aI19
aI20
aI21
aI22
aI23
aI24
aI25
aI26
aI27
aI28
aI29
aI30
aI31
aI32
aI33
aI34
aI35
aI36
aI37
aI38
aI39
aI40
aI41
aI42
aI43
aI44
aI45
aI46
aI47
aI48
aI49
aI50
aI51
aI52
aI53
aI54
aI55
aI56
aI57
aI58
aI59
aI60
aI61
aI62
aI63
aI64
aI65
aI66
aI67
aI68
aI69
aI70
aI71
aI72
aI73
aI74
aI75
aI76
aI77
aI78
aI79
aI80
aI81
aI82
aI83
aI84
aI85
aI86
aI87
aI88
aI89
aI90
aI91
aI92
aI93
aI94
aI95
aI96
aI97
aI98
aI99
aI100
aI101
aI102
aI103
aI104
aI105
aI107
aI108
aI109
aI110
aI112
aI114
aI115
aI116
aI117
aI119
aI121
aI124
aI126
aI127
aI128
aI131
aI132
aI134
aI135
aI136
aI137
aI138
aI140
aI141
aI143
aI145
aI146
aI147
aI150
aI151
aI153
aI155
aI156
aI159
aI163
aI164
aI165
aI166
aI168
aI171
aI174
aI177
aI178
aI181
aI187
aI188
aI196
aI197
aI198
aI200
aI201
aI202
aI206
aI207
aI231
aI238
aI239
aI250
aI265
aI269
aI272
aI276
aI278
aI286
aI301
aI328
aI329
aI331
aI338
aI339
aI344
aI348
aI354
aI358
aI369
aI374
aI405
aI450
aI543
aI563
aI586
aI603
aI883
aI942
asS'prob'
p5
(lp6
F0.40005
aF0.20013
aF0.11306
aF0.07175
aF0.0476
aF0.03416
aF0.02457
aF0.01845
aF0.0147
aF0.01031
aF0.00864
aF0.00709
aF0.00575
aF0.00475
aF0.00403
aF0.00375
aF0.00299
aF0.00276
aF0.00236
aF0.00179
aF0.00152
aF0.00156
aF0.00123
aF0.00131
aF0.00111
aF0.00081
aF0.00077
aF0.00091
aF0.00081
aF0.00055
aF0.00068
aF0.00058
aF0.00044
aF0.00046
aF0.00041
aF0.00045
aF0.00035
aF0.00031
aF0.00034
aF0.00026
aF0.00028
aF0.00023
aF0.00019
aF0.00026
aF0.00018
aF0.00025
aF0.00014
aF0.00024
aF0.0002
aF0.00011
aF0.00018
aF0.00011
aF0.00011
aF0.00016
aF0.00012
aF0.00018
aF0.00016
aF0.00012
aF0.00012
aF8e-05
aF6e-05
aF9e-05
aF7e-05
aF9e-05
aF7e-05
aF0.00011
aF9e-05
aF8e-05
aF8e-05
aF7e-05
aF8e-05
aF7e-05
aF4e-05
aF5e-05
aF1e-05
aF6e-05
aF3e-05
aF9e-05
aF4e-05
aF3e-05
aF7e-05
aF2e-05
aF1e-05
aF6e-05
aF3e-05
aF4e-05
aF3e-05
aF4e-05
aF2e-05
aF3e-05
aF2e-05
aF2e-05
aF2e-05
aF2e-05
aF3e-05
aF2e-05
aF2e-05
aF3e-05
aF1e-05
aF3e-05
aF3e-05
aF2e-05
aF3e-05
aF1e-05
aF3e-05
aF4e-05
aF4e-05
aF2e-05
aF2e-05
aF2e-05
aF2e-05
aF1e-05
aF2e-05
aF1e-05
aF4e-05
aF1e-05
aF1e-05
aF1e-05
aF1e-05
aF1e-05
aF1e-05
aF1e-05
aF1e-05
aF2e-05
aF2e-05
aF1e-05
aF1e-05
aF2e-05
aF1e-05
aF1e-05
aF1e-05
aF1e-05
aF3e-05
aF1e-05
aF1e-05
aF1e-05
aF1e-05
aF2e-05
aF1e-05
aF1e-05
aF1e-05
aF1e-05
aF2e-05
aF1e-05
aF1e-05
aF1e-05
aF1e-05
aF1e-05
aF1e-05
aF1e-05
aF1e-05
aF1e-05
aF1e-05
aF1e-05
aF1e-05
aF1e-05
aF1e-05
aF1e-05
aF1e-05
aF1e-05
aF1e-05
aF1e-05
aF1e-05
aF1e-05
aF1e-05
aF1e-05
aF1e-05
aF1e-05
aF1e-05
aF1e-05
aF1e-05
aF1e-05
aF1e-05
aF1e-05
aF1e-05
aF1e-05
aF1e-05
aF1e-05
aF1e-05
aF1e-05
aF1e-05
aF1e-05
aF1e-05
aF1e-05
aF1e-05
aF1e-05
aF1e-05
asS'kmean'
p7
F5.9998200000000015
sS'popt'
p8
cnumpy.core.multiarray
_reconstruct
p9
(cnumpy
ndarray
p10
(I0
tp11
S'b'
p12
tp13
Rp14
(I1
(I2
tp15
cnumpy
dtype
p16
(S'f8'
p17
I0
I1
tp18
Rp19
(I3
S'<'
p20
NNNI-1
I-1
I0
tp21
bI00
S's9\xa3\x14l\xfd\x03@\xa8\x9cK~}\x06\x19@'
p22
tp23
bs.