(dp0
S'uncorrelated_prob'
p1
(lp2
F0.18856569709127383
aF0.13574055499832832
aF0.1078234704112337
aF0.08224674022066199
aF0.05148779672350384
aF0.03878301571380809
aF0.033099297893681046
aF0.03009027081243731
aF0.022066198595787363
aF0.020060180541624874
aF0.028251420929455033
aF0.02340354396522902
aF0.017552657973921765
aF0.010698762955533266
aF0.011367435640254095
aF0.003009027081243731
aF0.006352390504847877
aF0.01671681711802073
aF0.01053159478435306
aF0.007355399531929121
aF0.007689735874289535
aF0.008358408559010365
aF0.008692744901370779
aF0.004513540621865597
aF0.009361417586091608
aF0.0050150451354062184
aF0.005349381477766633
aF0.005516549648946841
aF0.0056837178201270475
aF0.005850885991307255
aF0.006352390504847877
aF0.006519558676028084
aF0.006686726847208292
aF0.007856904045469742
aF0.008692744901370779
aF0.010030090270812437
aF0.010197258441992645
aF0.010364426613172852
aF0.010865931126713474
aF0.011200267469073889
asS'assortativity'
p3
cnumpy.core.multiarray
scalar
p4
(cnumpy
dtype
p5
(S'f8'
p6
I0
I1
tp7
Rp8
(I3
S'<'
p9
NNNI-1
I-1
I0
tp10
bS'O\xa4&W\xc2\\\xb1\xbf'
p11
tp12
Rp13
sS'dgr_dgr_func'
p14
(dp15
I65
(lp16
F0.26153846153846155
aF0.12307692307692308
aF0.1076923076923077
aF0.09230769230769231
aF0.03076923076923077
aF0.03076923076923077
aF0.046153846153846156
aF0.015384615384615385
aF0.03076923076923077
aF0.015384615384615385
aF0.03076923076923077
aF0.03076923076923077
aF0.0
aF0.03076923076923077
aF0.015384615384615385
aF0.0
aF0.0
aF0.0
aF0.015384615384615385
aF0.015384615384615385
aF0.0
aF0.0
aF0.0
aF0.015384615384615385
aF0.015384615384615385
aF0.0
aF0.0
aF0.0
aF0.015384615384615385
aF0.015384615384615385
aF0.015384615384615385
aF0.0
aF0.0
aF0.015384615384615385
aF0.0
aF0.0
aF0.015384615384615385
aF0.0
aF0.0
aF0.0
asI3
(lp17
F0.0
aF0.1099290780141844
aF0.12677304964539007
aF0.10549645390070922
aF0.07624113475177305
aF0.05939716312056738
aF0.0425531914893617
aF0.041666666666666664
aF0.03102836879432624
aF0.0274822695035461
aF0.041666666666666664
aF0.028368794326241134
aF0.020390070921985817
aF0.014184397163120567
aF0.018617021276595744
aF0.005319148936170213
aF0.008865248226950355
aF0.025709219858156027
aF0.012411347517730497
aF0.007978723404255319
aF0.016843971631205674
aF0.007978723404255319
aF0.00975177304964539
aF0.0070921985815602835
aF0.008865248226950355
aF0.00975177304964539
aF0.0070921985815602835
aF0.008865248226950355
aF0.005319148936170213
aF0.01152482269503546
aF0.008865248226950355
aF0.00975177304964539
aF0.01152482269503546
aF0.0070921985815602835
aF0.0062056737588652485
aF0.008865248226950355
aF0.008865248226950355
aF0.01152482269503546
aF0.015070921985815602
aF0.015070921985815602
asI4
(lp18
F0.15270935960591134
aF0.12561576354679804
aF0.08251231527093596
aF0.09359605911330049
aF0.034482758620689655
aF0.04310344827586207
aF0.04064039408866995
aF0.03571428571428571
aF0.022167487684729065
aF0.020935960591133004
aF0.03940886699507389
aF0.03571428571428571
aF0.019704433497536946
aF0.011083743842364532
aF0.007389162561576354
aF0.003694581280788177
aF0.008620689655172414
aF0.02586206896551724
aF0.011083743842364532
aF0.009852216748768473
aF0.0049261083743842365
aF0.011083743842364532
aF0.008620689655172414
aF0.0049261083743842365
aF0.01600985221674877
aF0.003694581280788177
aF0.008620689655172414
aF0.0049261083743842365
aF0.009852216748768473
aF0.003694581280788177
aF0.012315270935960592
aF0.009852216748768473
aF0.011083743842364532
aF0.0024630541871921183
aF0.013546798029556651
aF0.012315270935960592
aF0.008620689655172414
aF0.009852216748768473
aF0.009852216748768473
aF0.009852216748768473
asI5
(lp19
F0.22170542635658916
aF0.10387596899224806
aF0.10852713178294573
aF0.06511627906976744
aF0.043410852713178294
aF0.03565891472868217
aF0.031007751937984496
aF0.037209302325581395
aF0.023255813953488372
aF0.020155038759689922
aF0.03255813953488372
aF0.021705426356589147
aF0.024806201550387597
aF0.012403100775193798
aF0.012403100775193798
aF0.0015503875968992248
aF0.009302325581395349
aF0.012403100775193798
aF0.007751937984496124
aF0.006201550387596899
aF0.006201550387596899
aF0.009302325581395349
aF0.012403100775193798
aF0.0031007751937984496
aF0.007751937984496124
aF0.0031007751937984496
aF0.010852713178294573
aF0.006201550387596899
aF0.0031007751937984496
aF0.004651162790697674
aF0.006201550387596899
aF0.006201550387596899
aF0.007751937984496124
aF0.010852713178294573
aF0.010852713178294573
aF0.015503875968992248
aF0.006201550387596899
aF0.007751937984496124
aF0.010852713178294573
aF0.020155038759689922
asI6
(lp20
F0.241869918699187
aF0.15447154471544716
aF0.08536585365853659
aF0.08130081300813008
aF0.046747967479674794
aF0.028455284552845527
aF0.028455284552845527
aF0.028455284552845527
aF0.022357723577235773
aF0.018292682926829267
aF0.026422764227642278
aF0.014227642276422764
aF0.014227642276422764
aF0.022357723577235773
aF0.012195121951219513
aF0.0040650406504065045
aF0.0020325203252032522
aF0.022357723577235773
aF0.01016260162601626
aF0.008130081300813009
aF0.01016260162601626
aF0.006097560975609756
aF0.008130081300813009
aF0.008130081300813009
aF0.0020325203252032522
aF0.0
aF0.0020325203252032522
aF0.006097560975609756
aF0.0020325203252032522
aF0.006097560975609756
aF0.0040650406504065045
aF0.006097560975609756
aF0.0040650406504065045
aF0.008130081300813009
aF0.006097560975609756
aF0.008130081300813009
aF0.01016260162601626
aF0.006097560975609756
aF0.012195121951219513
aF0.012195121951219513
asI7
(lp21
F0.2792207792207792
aF0.09090909090909091
aF0.09090909090909091
aF0.07467532467532467
aF0.012987012987012988
aF0.05194805194805195
aF0.016233766233766232
aF0.022727272727272728
aF0.00974025974025974
aF0.022727272727272728
aF0.02922077922077922
aF0.016233766233766232
aF0.022727272727272728
aF0.01948051948051948
aF0.012987012987012988
aF0.003246753246753247
aF0.003246753246753247
aF0.016233766233766232
aF0.016233766233766232
aF0.006493506493506494
aF0.006493506493506494
aF0.016233766233766232
aF0.022727272727272728
aF0.006493506493506494
aF0.01948051948051948
aF0.003246753246753247
aF0.0
aF0.003246753246753247
aF0.003246753246753247
aF0.006493506493506494
aF0.003246753246753247
aF0.006493506493506494
aF0.00974025974025974
aF0.006493506493506494
aF0.006493506493506494
aF0.01948051948051948
aF0.012987012987012988
aF0.012987012987012988
aF0.006493506493506494
aF0.00974025974025974
asI8
(lp22
F0.28879310344827586
aF0.15086206896551724
aF0.09913793103448276
aF0.0603448275862069
aF0.06896551724137931
aF0.0
aF0.03017241379310345
aF0.01293103448275862
aF0.017241379310344827
aF0.021551724137931036
aF0.008620689655172414
aF0.03017241379310345
aF0.017241379310344827
aF0.004310344827586207
aF0.008620689655172414
aF0.0
aF0.004310344827586207
aF0.008620689655172414
aF0.008620689655172414
aF0.004310344827586207
aF0.0
aF0.008620689655172414
aF0.008620689655172414
aF0.0
aF0.008620689655172414
aF0.004310344827586207
aF0.0
aF0.01293103448275862
aF0.0
aF0.008620689655172414
aF0.004310344827586207
aF0.004310344827586207
aF0.004310344827586207
aF0.004310344827586207
aF0.017241379310344827
aF0.008620689655172414
aF0.017241379310344827
aF0.021551724137931036
aF0.008620689655172414
aF0.01293103448275862
asI9
(lp23
F0.24242424242424243
aF0.16666666666666666
aF0.10101010101010101
aF0.0707070707070707
aF0.025252525252525252
aF0.03535353535353535
aF0.010101010101010102
aF0.005050505050505051
aF0.030303030303030304
aF0.010101010101010102
aF0.015151515151515152
aF0.030303030303030304
aF0.030303030303030304
aF0.010101010101010102
aF0.0
aF0.010101010101010102
aF0.010101010101010102
aF0.010101010101010102
aF0.005050505050505051
aF0.005050505050505051
aF0.005050505050505051
aF0.015151515151515152
aF0.015151515151515152
aF0.0
aF0.015151515151515152
aF0.005050505050505051
aF0.0
aF0.005050505050505051
aF0.010101010101010102
aF0.005050505050505051
aF0.0
aF0.005050505050505051
aF0.005050505050505051
aF0.020202020202020204
aF0.020202020202020204
aF0.005050505050505051
aF0.015151515151515152
aF0.010101010101010102
aF0.015151515151515152
aF0.005050505050505051
asI10
(lp24
F0.2611111111111111
aF0.16111111111111112
aF0.13333333333333333
aF0.07777777777777778
aF0.03888888888888889
aF0.016666666666666666
aF0.005555555555555556
aF0.011111111111111112
aF0.044444444444444446
aF0.011111111111111112
aF0.016666666666666666
aF0.016666666666666666
aF0.011111111111111112
aF0.0
aF0.011111111111111112
aF0.011111111111111112
aF0.0
aF0.005555555555555556
aF0.022222222222222223
aF0.0
aF0.005555555555555556
aF0.005555555555555556
aF0.011111111111111112
aF0.005555555555555556
aF0.011111111111111112
aF0.011111111111111112
aF0.0
aF0.011111111111111112
aF0.0
aF0.005555555555555556
aF0.005555555555555556
aF0.005555555555555556
aF0.0
aF0.005555555555555556
aF0.022222222222222223
aF0.016666666666666666
aF0.0
aF0.016666666666666666
aF0.005555555555555556
aF0.0
asI11
(lp25
F0.26515151515151514
aF0.13636363636363635
aF0.11363636363636363
aF0.08333333333333333
aF0.022727272727272728
aF0.030303030303030304
aF0.045454545454545456
aF0.06060606060606061
aF0.015151515151515152
aF0.007575757575757576
aF0.015151515151515152
aF0.022727272727272728
aF0.007575757575757576
aF0.0
aF0.007575757575757576
aF0.0
aF0.007575757575757576
aF0.007575757575757576
aF0.0
aF0.022727272727272728
aF0.015151515151515152
aF0.007575757575757576
aF0.0
aF0.0
aF0.007575757575757576
aF0.015151515151515152
aF0.0
aF0.0
aF0.007575757575757576
aF0.0
aF0.015151515151515152
aF0.0
aF0.0
aF0.007575757575757576
aF0.015151515151515152
aF0.007575757575757576
aF0.0
aF0.0
aF0.015151515151515152
aF0.015151515151515152
asI12
(lp26
F0.25833333333333336
aF0.14166666666666666
aF0.10833333333333334
aF0.075
aF0.058333333333333334
aF0.041666666666666664
aF0.016666666666666666
aF0.016666666666666666
aF0.008333333333333333
aF0.0
aF0.025
aF0.025
aF0.008333333333333333
aF0.016666666666666666
aF0.008333333333333333
aF0.0
aF0.0
aF0.03333333333333333
aF0.016666666666666666
aF0.0
aF0.008333333333333333
aF0.008333333333333333
aF0.025
aF0.0
aF0.008333333333333333
aF0.0
aF0.008333333333333333
aF0.0
aF0.0
aF0.0
aF0.0
aF0.0
aF0.008333333333333333
aF0.025
aF0.0
aF0.008333333333333333
aF0.008333333333333333
aF0.016666666666666666
aF0.008333333333333333
aF0.008333333333333333
asI13
(lp27
F0.2781065088757396
aF0.1893491124260355
aF0.1242603550295858
aF0.07692307692307693
aF0.05325443786982249
aF0.011834319526627219
aF0.01775147928994083
aF0.01775147928994083
aF0.011834319526627219
aF0.01775147928994083
aF0.0
aF0.01775147928994083
aF0.01775147928994083
aF0.0
aF0.005917159763313609
aF0.0
aF0.005917159763313609
aF0.011834319526627219
aF0.023668639053254437
aF0.011834319526627219
aF0.011834319526627219
aF0.005917159763313609
aF0.005917159763313609
aF0.0
aF0.005917159763313609
aF0.005917159763313609
aF0.0
aF0.0
aF0.005917159763313609
aF0.0
aF0.005917159763313609
aF0.0
aF0.0
aF0.005917159763313609
aF0.005917159763313609
aF0.0
aF0.01775147928994083
aF0.011834319526627219
aF0.011834319526627219
aF0.005917159763313609
asI14
(lp28
F0.22857142857142856
aF0.20714285714285716
aF0.1
aF0.05
aF0.03571428571428571
aF0.05
aF0.04285714285714286
aF0.02142857142857143
aF0.02142857142857143
aF0.02142857142857143
aF0.02142857142857143
aF0.0
aF0.007142857142857143
aF0.014285714285714285
aF0.02142857142857143
aF0.0
aF0.0
aF0.014285714285714285
aF0.0
aF0.014285714285714285
aF0.0
aF0.014285714285714285
aF0.0
aF0.0
aF0.007142857142857143
aF0.014285714285714285
aF0.007142857142857143
aF0.0
aF0.007142857142857143
aF0.0
aF0.007142857142857143
aF0.02142857142857143
aF0.0
aF0.0
aF0.007142857142857143
aF0.0
aF0.007142857142857143
aF0.014285714285714285
aF0.014285714285714285
aF0.007142857142857143
asI15
(lp29
F0.21904761904761905
aF0.1523809523809524
aF0.1523809523809524
aF0.06666666666666667
aF0.06666666666666667
aF0.0380952380952381
aF0.05714285714285714
aF0.01904761904761905
aF0.009523809523809525
aF0.009523809523809525
aF0.02857142857142857
aF0.009523809523809525
aF0.01904761904761905
aF0.0
aF0.009523809523809525
aF0.0
aF0.0
aF0.0
aF0.01904761904761905
aF0.0
aF0.0
aF0.009523809523809525
aF0.0
aF0.0
aF0.009523809523809525
aF0.009523809523809525
aF0.0
aF0.0
aF0.01904761904761905
aF0.0
aF0.0
aF0.0
aF0.0
aF0.009523809523809525
aF0.009523809523809525
aF0.01904761904761905
aF0.009523809523809525
aF0.01904761904761905
aF0.0
aF0.009523809523809525
asI16
(lp30
F0.25
aF0.140625
aF0.125
aF0.171875
aF0.09375
aF0.015625
aF0.03125
aF0.0
aF0.0
aF0.03125
aF0.0
aF0.03125
aF0.0
aF0.0
aF0.0
aF0.0
aF0.0
aF0.0
aF0.0
aF0.015625
aF0.0
aF0.015625
aF0.0
aF0.0
aF0.0
aF0.0
aF0.015625
aF0.0
aF0.0
aF0.0
aF0.0
aF0.0
aF0.0
aF0.0
aF0.0
aF0.0
aF0.0
aF0.015625
aF0.03125
aF0.015625
asI17
(lp31
F0.3088235294117647
aF0.08823529411764706
aF0.11764705882352941
aF0.08823529411764706
aF0.058823529411764705
aF0.029411764705882353
aF0.0
aF0.029411764705882353
aF0.014705882352941176
aF0.014705882352941176
aF0.014705882352941176
aF0.04411764705882353
aF0.014705882352941176
aF0.0
aF0.0
aF0.0
aF0.0
aF0.014705882352941176
aF0.0
aF0.014705882352941176
aF0.0
aF0.0
aF0.0
aF0.0
aF0.0
aF0.0
aF0.014705882352941176
aF0.0
aF0.0
aF0.0
aF0.0
aF0.0
aF0.0
aF0.029411764705882353
aF0.0
aF0.029411764705882353
aF0.014705882352941176
aF0.014705882352941176
aF0.014705882352941176
aF0.029411764705882353
asI18
(lp32
F0.3333333333333333
aF0.16666666666666666
aF0.05555555555555555
aF0.1111111111111111
aF0.05555555555555555
aF0.0
aF0.1111111111111111
aF0.1111111111111111
aF0.0
aF0.0
aF0.0
aF0.0
aF0.0
aF0.0
aF0.0
aF0.0
aF0.0
aF0.0
aF0.0
aF0.0
aF0.0
aF0.0
aF0.0
aF0.0
aF0.0
aF0.0
aF0.0
aF0.0
aF0.05555555555555555
aF0.0
aF0.0
aF0.0
aF0.0
aF0.0
aF0.0
aF0.0
aF0.0
aF0.0
aF0.0
aF0.0
asI19
(lp33
F0.2631578947368421
aF0.18421052631578946
aF0.15789473684210525
aF0.02631578947368421
aF0.02631578947368421
aF0.02631578947368421
aF0.05263157894736842
aF0.0
aF0.02631578947368421
aF0.0
aF0.02631578947368421
aF0.0
aF0.0
aF0.0
aF0.0
aF0.0
aF0.0
aF0.02631578947368421
aF0.0
aF0.0
aF0.02631578947368421
aF0.0
aF0.0
aF0.0
aF0.02631578947368421
aF0.02631578947368421
aF0.0
aF0.02631578947368421
aF0.02631578947368421
aF0.02631578947368421
aF0.0
aF0.0
aF0.0
aF0.0
aF0.0
aF0.0
aF0.0
aF0.02631578947368421
aF0.0
aF0.0
asI20
(lp34
F0.29
aF0.21
aF0.08
aF0.11
aF0.05
aF0.02
aF0.02
aF0.01
aF0.01
aF0.04
aF0.02
aF0.02
aF0.0
aF0.0
aF0.01
aF0.0
aF0.01
aF0.0
aF0.01
aF0.0
aF0.01
aF0.0
aF0.0
aF0.01
aF0.0
aF0.0
aF0.0
aF0.01
aF0.01
aF0.0
aF0.0
aF0.0
aF0.0
aF0.01
aF0.0
aF0.0
aF0.02
aF0.01
aF0.0
aF0.01
asI21
(lp35
F0.2222222222222222
aF0.14285714285714285
aF0.07936507936507936
aF0.07936507936507936
aF0.07936507936507936
aF0.031746031746031744
aF0.015873015873015872
aF0.06349206349206349
aF0.0
aF0.031746031746031744
aF0.06349206349206349
aF0.0
aF0.031746031746031744
aF0.0
aF0.0
aF0.0
aF0.0
aF0.015873015873015872
aF0.0
aF0.0
aF0.0
aF0.0
aF0.0
aF0.0
aF0.0
aF0.0
aF0.0
aF0.0
aF0.031746031746031744
aF0.0
aF0.0
aF0.0
aF0.0
aF0.0
aF0.0
aF0.0
aF0.047619047619047616
aF0.031746031746031744
aF0.015873015873015872
aF0.015873015873015872
asI22
(lp36
F0.20454545454545456
aF0.18181818181818182
aF0.09090909090909091
aF0.09090909090909091
aF0.045454545454545456
aF0.022727272727272728
aF0.022727272727272728
aF0.0
aF0.06818181818181818
aF0.0
aF0.045454545454545456
aF0.045454545454545456
aF0.0
aF0.022727272727272728
aF0.022727272727272728
aF0.0
aF0.0
aF0.0
aF0.0
aF0.0
aF0.022727272727272728
aF0.0
aF0.0
aF0.0
aF0.022727272727272728
aF0.0
aF0.0
aF0.0
aF0.0
aF0.0
aF0.0
aF0.0
aF0.022727272727272728
aF0.0
aF0.0
aF0.022727272727272728
aF0.022727272727272728
aF0.0
aF0.022727272727272728
aF0.0
asI23
(lp37
F0.41304347826086957
aF0.08695652173913043
aF0.08695652173913043
aF0.10869565217391304
aF0.043478260869565216
aF0.0
aF0.021739130434782608
aF0.021739130434782608
aF0.043478260869565216
aF0.021739130434782608
aF0.043478260869565216
aF0.0
aF0.0
aF0.0
aF0.0
aF0.0
aF0.021739130434782608
aF0.021739130434782608
aF0.0
aF0.021739130434782608
aF0.0
aF0.0
aF0.0
aF0.021739130434782608
aF0.0
aF0.0
aF0.0
aF0.0
aF0.0
aF0.0
aF0.0
aF0.0
aF0.0
aF0.0
aF0.021739130434782608
aF0.0
aF0.0
aF0.0
aF0.0
aF0.0
asI25
(lp38
F0.18
aF0.18
aF0.12
aF0.06
aF0.1
aF0.04
aF0.06
aF0.02
aF0.02
aF0.02
aF0.02
aF0.04
aF0.02
aF0.02
aF0.0
aF0.0
aF0.0
aF0.0
aF0.0
aF0.0
aF0.0
aF0.0
aF0.0
aF0.02
aF0.02
aF0.0
aF0.0
aF0.0
aF0.0
aF0.0
aF0.02
aF0.0
aF0.0
aF0.0
aF0.0
aF0.0
aF0.02
aF0.0
aF0.0
aF0.02
asI26
(lp39
F0.21153846153846154
aF0.1346153846153846
aF0.15384615384615385
aF0.07692307692307693
aF0.1346153846153846
aF0.038461538461538464
aF0.057692307692307696
aF0.038461538461538464
aF0.0
aF0.057692307692307696
aF0.019230769230769232
aF0.0
aF0.0
aF0.0
aF0.0
aF0.0
aF0.0
aF0.0
aF0.0
aF0.0
aF0.0
aF0.0
aF0.0
aF0.0
aF0.019230769230769232
aF0.0
aF0.019230769230769232
aF0.0
aF0.0
aF0.0
aF0.019230769230769232
aF0.0
aF0.0
aF0.0
aF0.0
aF0.0
aF0.019230769230769232
aF0.0
aF0.0
aF0.0
asI27
(lp40
F0.2962962962962963
aF0.14814814814814814
aF0.07407407407407407
aF0.14814814814814814
aF0.07407407407407407
aF0.0
aF0.0
aF0.037037037037037035
aF0.0
aF0.0
aF0.0
aF0.0
aF0.0
aF0.0
aF0.0
aF0.0
aF0.0
aF0.037037037037037035
aF0.0
aF0.0
aF0.037037037037037035
aF0.037037037037037035
aF0.0
aF0.0
aF0.0
aF0.0
aF0.0
aF0.0
aF0.0
aF0.0
aF0.0
aF0.037037037037037035
aF0.0
aF0.0
aF0.0
aF0.0
aF0.0
aF0.037037037037037035
aF0.037037037037037035
aF0.0
asI28
(lp41
F0.17857142857142858
aF0.23214285714285715
aF0.08928571428571429
aF0.017857142857142856
aF0.10714285714285714
aF0.03571428571428571
aF0.05357142857142857
aF0.03571428571428571
aF0.017857142857142856
aF0.017857142857142856
aF0.017857142857142856
aF0.017857142857142856
aF0.017857142857142856
aF0.0
aF0.0
aF0.0
aF0.017857142857142856
aF0.0
aF0.0
aF0.017857142857142856
aF0.0
aF0.017857142857142856
aF0.017857142857142856
aF0.0
aF0.0
aF0.0
aF0.0
aF0.0
aF0.0
aF0.0
aF0.0
aF0.0
aF0.017857142857142856
aF0.0
aF0.0
aF0.0
aF0.017857142857142856
aF0.017857142857142856
aF0.017857142857142856
aF0.017857142857142856
asI30
(lp42
F0.36666666666666664
aF0.1
aF0.06666666666666667
aF0.0
aF0.03333333333333333
aF0.03333333333333333
aF0.03333333333333333
aF0.06666666666666667
aF0.06666666666666667
aF0.0
aF0.03333333333333333
aF0.06666666666666667
aF0.03333333333333333
aF0.0
aF0.0
aF0.0
aF0.03333333333333333
aF0.0
aF0.0
aF0.0
aF0.0
aF0.0
aF0.0
aF0.0
aF0.0
aF0.0
aF0.03333333333333333
aF0.0
aF0.0
aF0.0
aF0.0
aF0.0
aF0.0
aF0.03333333333333333
aF0.0
aF0.0
aF0.0
aF0.0
aF0.0
aF0.0
asI32
(lp43
F0.25
aF0.21875
aF0.21875
aF0.03125
aF0.0
aF0.0
aF0.0
aF0.0
aF0.0
aF0.03125
aF0.0
aF0.03125
aF0.0
aF0.03125
aF0.03125
aF0.0
aF0.0
aF0.0
aF0.0
aF0.0
aF0.0
aF0.0
aF0.03125
aF0.0
aF0.0
aF0.03125
aF0.0
aF0.0
aF0.0
aF0.0
aF0.0
aF0.0
aF0.03125
aF0.03125
aF0.0
aF0.03125
aF0.0
aF0.0
aF0.0
aF0.0
asI33
(lp44
F0.30303030303030304
aF0.12121212121212122
aF0.12121212121212122
aF0.09090909090909091
aF0.030303030303030304
aF0.09090909090909091
aF0.030303030303030304
aF0.06060606060606061
aF0.0
aF0.0
aF0.0
aF0.0
aF0.0
aF0.0
aF0.0
aF0.0
aF0.030303030303030304
aF0.030303030303030304
aF0.0
aF0.0
aF0.0
aF0.0
aF0.0
aF0.0
aF0.0
aF0.0
aF0.0
aF0.0
aF0.0
aF0.030303030303030304
aF0.0
aF0.0
aF0.0
aF0.0
aF0.0
aF0.030303030303030304
aF0.030303030303030304
aF0.0
aF0.0
aF0.0
asI34
(lp45
F0.17647058823529413
aF0.23529411764705882
aF0.058823529411764705
aF0.029411764705882353
aF0.029411764705882353
aF0.0
aF0.058823529411764705
aF0.0
aF0.029411764705882353
aF0.0
aF0.029411764705882353
aF0.029411764705882353
aF0.058823529411764705
aF0.0
aF0.0
aF0.029411764705882353
aF0.029411764705882353
aF0.029411764705882353
aF0.058823529411764705
aF0.0
aF0.0
aF0.0
aF0.0
aF0.0
aF0.0
aF0.0
aF0.0
aF0.0
aF0.0
aF0.029411764705882353
aF0.0
aF0.0
aF0.0
aF0.0
aF0.029411764705882353
aF0.029411764705882353
aF0.0
aF0.0
aF0.029411764705882353
aF0.0
asI35
(lp46
F0.37142857142857144
aF0.08571428571428572
aF0.08571428571428572
aF0.08571428571428572
aF0.05714285714285714
aF0.05714285714285714
aF0.02857142857142857
aF0.02857142857142857
aF0.0
aF0.0
aF0.0
aF0.0
aF0.0
aF0.0
aF0.0
aF0.0
aF0.02857142857142857
aF0.0
aF0.0
aF0.0
aF0.0
aF0.0
aF0.0
aF0.0
aF0.0
aF0.0
aF0.0
aF0.02857142857142857
aF0.02857142857142857
aF0.0
aF0.0
aF0.02857142857142857
aF0.0
aF0.02857142857142857
aF0.0
aF0.0
aF0.0
aF0.02857142857142857
aF0.02857142857142857
aF0.0
asI38
(lp47
F0.2631578947368421
aF0.2631578947368421
aF0.10526315789473684
aF0.05263157894736842
aF0.02631578947368421
aF0.02631578947368421
aF0.0
aF0.02631578947368421
aF0.05263157894736842
aF0.0
aF0.02631578947368421
aF0.02631578947368421
aF0.0
aF0.0
aF0.0
aF0.0
aF0.0
aF0.0
aF0.0
aF0.0
aF0.0
aF0.02631578947368421
aF0.02631578947368421
aF0.0
aF0.0
aF0.0
aF0.0
aF0.0
aF0.0
aF0.0
aF0.0
aF0.0
aF0.0
aF0.0
aF0.0
aF0.02631578947368421
aF0.02631578947368421
aF0.0
aF0.02631578947368421
aF0.0
asI39
(lp48
F0.28205128205128205
aF0.20512820512820512
aF0.10256410256410256
aF0.07692307692307693
aF0.05128205128205128
aF0.02564102564102564
aF0.02564102564102564
aF0.02564102564102564
aF0.0
aF0.0
aF0.0
aF0.07692307692307693
aF0.0
aF0.0
aF0.0
aF0.0
aF0.0
aF0.0
aF0.0
aF0.0
aF0.0
aF0.0
aF0.0
aF0.02564102564102564
aF0.0
aF0.0
aF0.0
aF0.0
aF0.0
aF0.02564102564102564
aF0.0
aF0.0
aF0.0
aF0.02564102564102564
aF0.02564102564102564
aF0.0
aF0.02564102564102564
aF0.0
aF0.0
aF0.0
asI40
(lp49
F0.325
aF0.225
aF0.125
aF0.05
aF0.075
aF0.025
aF0.025
aF0.0
aF0.0
aF0.025
aF0.0
aF0.0
aF0.0
aF0.0
aF0.0
aF0.0
aF0.0
aF0.0
aF0.0
aF0.025
aF0.0
aF0.0
aF0.0
aF0.0
aF0.025
aF0.0
aF0.025
aF0.0
aF0.0
aF0.0
aF0.0
aF0.0
aF0.0
aF0.0
aF0.025
aF0.0
aF0.0
aF0.0
aF0.0
aF0.025
asI67
(lp50
F0.2537313432835821
aF0.11940298507462686
aF0.19402985074626866
aF0.08955223880597014
aF0.04477611940298507
aF0.04477611940298507
aF0.014925373134328358
aF0.0
aF0.029850746268656716
aF0.014925373134328358
aF0.014925373134328358
aF0.014925373134328358
aF0.014925373134328358
aF0.014925373134328358
aF0.029850746268656716
aF0.0
aF0.0
aF0.014925373134328358
aF0.014925373134328358
aF0.0
aF0.0
aF0.014925373134328358
aF0.0
aF0.0
aF0.014925373134328358
aF0.0
aF0.0
aF0.0
aF0.0
aF0.0
aF0.0
aF0.0
aF0.014925373134328358
aF0.014925373134328358
aF0.0
aF0.0
aF0.014925373134328358
aF0.0
aF0.0
aF0.0
asI47
(lp51
F0.1702127659574468
aF0.0425531914893617
aF0.14893617021276595
aF0.0851063829787234
aF0.0425531914893617
aF0.02127659574468085
aF0.0851063829787234
aF0.02127659574468085
aF0.02127659574468085
aF0.06382978723404255
aF0.02127659574468085
aF0.0
aF0.02127659574468085
aF0.0
aF0.0425531914893617
aF0.0
aF0.0
aF0.02127659574468085
aF0.0
aF0.0
aF0.0
aF0.0
aF0.0
aF0.0
aF0.0
aF0.02127659574468085
aF0.02127659574468085
aF0.0
aF0.0
aF0.02127659574468085
aF0.0
aF0.02127659574468085
aF0.0
aF0.0
aF0.02127659574468085
aF0.02127659574468085
aF0.02127659574468085
aF0.0
aF0.02127659574468085
aF0.02127659574468085
asI52
(lp52
F0.1346153846153846
aF0.21153846153846154
aF0.1346153846153846
aF0.057692307692307696
aF0.038461538461538464
aF0.07692307692307693
aF0.07692307692307693
aF0.07692307692307693
aF0.038461538461538464
aF0.0
aF0.019230769230769232
aF0.019230769230769232
aF0.019230769230769232
aF0.0
aF0.0
aF0.0
aF0.0
aF0.0
aF0.0
aF0.0
aF0.019230769230769232
aF0.0
aF0.0
aF0.0
aF0.0
aF0.0
aF0.0
aF0.0
aF0.019230769230769232
aF0.0
aF0.0
aF0.019230769230769232
aF0.019230769230769232
aF0.019230769230769232
aF0.0
aF0.0
aF0.0
aF0.0
aF0.0
aF0.0
asI60
(lp53
F0.16666666666666666
aF0.16666666666666666
aF0.16666666666666666
aF0.06666666666666667
aF0.1
aF0.03333333333333333
aF0.016666666666666666
aF0.05
aF0.016666666666666666
aF0.016666666666666666
aF0.0
aF0.0
aF0.03333333333333333
aF0.0
aF0.03333333333333333
aF0.0
aF0.0
aF0.0
aF0.0
aF0.016666666666666666
aF0.0
aF0.0
aF0.0
aF0.0
aF0.0
aF0.0
aF0.016666666666666666
aF0.016666666666666666
aF0.016666666666666666
aF0.0
aF0.016666666666666666
aF0.0
aF0.0
aF0.016666666666666666
aF0.0
aF0.0
aF0.016666666666666666
aF0.016666666666666666
aF0.0
aF0.0
asI61
(lp54
F0.16393442622950818
aF0.11475409836065574
aF0.06557377049180328
aF0.08196721311475409
aF0.06557377049180328
aF0.06557377049180328
aF0.04918032786885246
aF0.0
aF0.0
aF0.01639344262295082
aF0.04918032786885246
aF0.01639344262295082
aF0.01639344262295082
aF0.0
aF0.01639344262295082
aF0.0
aF0.0
aF0.03278688524590164
aF0.04918032786885246
aF0.01639344262295082
aF0.0
aF0.01639344262295082
aF0.01639344262295082
aF0.0
aF0.01639344262295082
aF0.0
aF0.0
aF0.01639344262295082
aF0.0
aF0.0
aF0.01639344262295082
aF0.01639344262295082
aF0.0
aF0.01639344262295082
aF0.0
aF0.01639344262295082
aF0.0
aF0.01639344262295082
aF0.01639344262295082
aF0.01639344262295082
asI62
(lp55
F0.20967741935483872
aF0.12903225806451613
aF0.08064516129032258
aF0.04838709677419355
aF0.06451612903225806
aF0.08064516129032258
aF0.03225806451612903
aF0.04838709677419355
aF0.0
aF0.03225806451612903
aF0.03225806451612903
aF0.03225806451612903
aF0.03225806451612903
aF0.016129032258064516
aF0.016129032258064516
aF0.0
aF0.016129032258064516
aF0.016129032258064516
aF0.03225806451612903
aF0.0
aF0.0
aF0.0
aF0.0
aF0.016129032258064516
aF0.016129032258064516
aF0.0
aF0.0
aF0.0
aF0.0
aF0.016129032258064516
aF0.0
aF0.0
aF0.0
aF0.0
aF0.0
aF0.016129032258064516
aF0.016129032258064516
aF0.0
aF0.0
aF0.0
assS'popt'
p56
cnumpy.core.multiarray
_reconstruct
p57
(cnumpy
ndarray
p58
(I0
tp59
S'b'
p60
tp61
Rp62
(I1
(I3
tp63
g8
I00
S'I\thT\xd1\xc7\x03@\xb8[@\xbe~\x06Z@\x94\xea\xa57:7Z@'
p64
tp65
bs.