(dp0
S'count'
p1
(lp2
F200.54333333333344
aF113.02000000000008
aF71.47666666666667
aF47.889999999999986
aF33.16666666666667
aF24.826666666666664
aF18.116666666666667
aF13.726666666666658
aF11.039999999999996
aF8.693333333333333
aF7.073333333333323
aF5.799999999999997
aF5.096666666666659
aF4.069999999999996
aF3.433333333333329
aF3.0899999999999963
aF2.733333333333334
aF2.3800000000000012
aF2.1000000000000023
aF1.8366666666666667
aF1.4900000000000007
aF1.2666666666666668
aF1.2999999999999998
aF1.2133333333333343
aF1.0633333333333324
aF1.0133333333333334
aF0.9633333333333329
aF0.823333333333333
aF0.7266666666666663
aF0.7066666666666661
aF0.6233333333333331
aF0.5500000000000005
aF0.6133333333333333
aF0.5200000000000001
aF0.6
aF0.4600000000000003
aF0.4433333333333336
aF0.3366666666666667
aF0.32666666666666655
aF0.3700000000000004
aF0.3166666666666667
aF0.39333333333333365
aF0.2999999999999999
aF0.2766666666666665
aF0.24333333333333304
aF0.2399999999999997
aF0.23666666666666641
aF0.27333333333333315
aF0.2299999999999997
aF0.18666666666666645
aF0.22666666666666638
aF0.19333333333333313
aF0.18333333333333318
aF0.17999999999999983
aF0.1633333333333332
aF0.17333333333333317
aF0.1533333333333332
aF0.13666666666666655
aF0.13999999999999987
aF0.1666666666666665
aF0.1566666666666665
aF0.10999999999999992
aF0.11999999999999991
aF0.15333333333333318
aF0.09666666666666661
aF0.1299999999999999
aF0.10333333333333328
aF0.09333333333333331
aF0.11999999999999994
aF0.07666666666666666
aF0.05666666666666667
aF0.10666666666666662
aF0.07666666666666665
aF0.03666666666666667
aF0.0833333333333333
aF0.06333333333333334
aF0.05333333333333334
aF0.06666666666666667
aF0.05
aF0.05
aF0.03666666666666667
aF0.08666666666666663
aF0.030000000000000002
aF0.043333333333333335
aF0.05
aF0.05
aF0.05
aF0.04
aF0.05
aF0.03666666666666667
aF0.023333333333333334
aF0.02
aF0.02666666666666667
aF0.02
aF0.03333333333333333
aF0.030000000000000002
aF0.02666666666666667
aF0.04
aF0.03333333333333333
aF0.01
aF0.016666666666666666
aF0.03666666666666667
aF0.016666666666666666
aF0.02
aF0.016666666666666666
aF0.02
aF0.016666666666666666
aF0.01
aF0.02
aF0.006666666666666667
aF0.01
aF0.006666666666666667
aF0.016666666666666666
aF0.013333333333333334
aF0.0033333333333333335
aF0.006666666666666667
aF0.016666666666666666
aF0.016666666666666666
aF0.006666666666666667
aF0.01
aF0.0033333333333333335
aF0.0033333333333333335
aF0.006666666666666667
aF0.0033333333333333335
aF0.0033333333333333335
aF0.0033333333333333335
aF0.0033333333333333335
aF0.0033333333333333335
aF0.006666666666666667
aF0.0033333333333333335
aF0.0033333333333333335
asS'index'
p3
(lp4
I4
aI5
aI6
aI7
aI8
aI9
aI10
aI11
aI12
aI13
aI14
aI15
aI16
aI17
aI18
aI19
aI20
aI21
aI22
aI23
aI24
aI25
aI26
aI27
aI28
aI29
aI30
aI31
aI32
aI33
aI34
aI35
aI36
aI37
aI38
aI39
aI40
aI41
aI42
aI43
aI44
aI45
aI46
aI47
aI48
aI49
aI50
aI51
aI52
aI53
aI54
aI55
aI56
aI57
aI58
aI59
aI60
aI61
aI62
aI63
aI64
aI65
aI66
aI67
aI68
aI69
aI70
aI71
aI72
aI73
aI74
aI75
aI76
aI77
aI78
aI79
aI80
aI81
aI82
aI83
aI84
aI85
aI86
aI87
aI88
aI89
aI90
aI91
aI92
aI93
aI94
aI95
aI96
aI97
aI98
aI99
aI100
aI101
aI102
aI103
aI104
aI105
aI106
aI107
aI108
aI109
aI110
aI111
aI112
aI113
aI114
aI115
aI116
aI117
aI118
aI119
aI120
aI121
aI122
aI126
aI128
aI130
aI131
aI133
aI134
aI138
aI142
aI143
aI144
aI158
aI160
asS'prob'
p5
(lp6
F0.20054333333333343
aF0.11302000000000008
aF0.07147666666666667
aF0.04788999999999999
aF0.03316666666666667
aF0.024826666666666664
aF0.018116666666666666
aF0.013726666666666658
aF0.011039999999999996
aF0.008693333333333334
aF0.007073333333333323
aF0.005799999999999997
aF0.005096666666666659
aF0.0040699999999999955
aF0.003433333333333329
aF0.0030899999999999964
aF0.0027333333333333337
aF0.002380000000000001
aF0.0021000000000000025
aF0.0018366666666666666
aF0.0014900000000000007
aF0.0012666666666666668
aF0.0012999999999999997
aF0.0012133333333333343
aF0.0010633333333333324
aF0.0010133333333333333
aF0.000963333333333333
aF0.000823333333333333
aF0.0007266666666666664
aF0.0007066666666666661
aF0.000623333333333333
aF0.0005500000000000005
aF0.0006133333333333332
aF0.0005200000000000002
aF0.0006
aF0.0004600000000000003
aF0.00044333333333333356
aF0.0003366666666666667
aF0.00032666666666666657
aF0.0003700000000000004
aF0.0003166666666666667
aF0.00039333333333333364
aF0.00029999999999999987
aF0.0002766666666666665
aF0.00024333333333333303
aF0.0002399999999999997
aF0.0002366666666666664
aF0.00027333333333333316
aF0.0002299999999999997
aF0.00018666666666666644
aF0.00022666666666666638
aF0.00019333333333333314
aF0.00018333333333333317
aF0.00017999999999999982
aF0.0001633333333333332
aF0.00017333333333333317
aF0.0001533333333333332
aF0.00013666666666666656
aF0.00013999999999999988
aF0.0001666666666666665
aF0.0001566666666666665
aF0.00010999999999999992
aF0.00011999999999999991
aF0.00015333333333333318
aF9.666666666666661e-05
aF0.00012999999999999988
aF0.00010333333333333327
aF9.333333333333332e-05
aF0.00011999999999999994
aF7.666666666666666e-05
aF5.666666666666667e-05
aF0.00010666666666666661
aF7.666666666666664e-05
aF3.6666666666666666e-05
aF8.33333333333333e-05
aF6.333333333333333e-05
aF5.333333333333334e-05
aF6.666666666666667e-05
aF5e-05
aF5e-05
aF3.6666666666666666e-05
aF8.666666666666663e-05
aF3e-05
aF4.3333333333333334e-05
aF5e-05
aF5e-05
aF5e-05
aF4e-05
aF5e-05
aF3.6666666666666666e-05
aF2.3333333333333336e-05
aF2e-05
aF2.666666666666667e-05
aF2e-05
aF3.3333333333333335e-05
aF3e-05
aF2.666666666666667e-05
aF4e-05
aF3.3333333333333335e-05
aF1e-05
aF1.6666666666666667e-05
aF3.6666666666666666e-05
aF1.6666666666666667e-05
aF2e-05
aF1.6666666666666667e-05
aF2e-05
aF1.6666666666666667e-05
aF1e-05
aF2e-05
aF6.6666666666666675e-06
aF1e-05
aF6.6666666666666675e-06
aF1.6666666666666667e-05
aF1.3333333333333335e-05
aF3.3333333333333337e-06
aF6.6666666666666675e-06
aF1.6666666666666667e-05
aF1.6666666666666667e-05
aF6.6666666666666675e-06
aF1e-05
aF3.3333333333333337e-06
aF3.3333333333333337e-06
aF6.6666666666666675e-06
aF3.3333333333333337e-06
aF3.3333333333333337e-06
aF3.3333333333333337e-06
aF3.3333333333333337e-06
aF3.3333333333333337e-06
aF6.6666666666666675e-06
aF3.3333333333333337e-06
aF3.3333333333333337e-06
asS'kmean'
p7
F4.790460000000004
sS'popt'
p8
cnumpy.core.multiarray
_reconstruct
p9
(cnumpy
ndarray
p10
(I0
tp11
S'b'
p12
tp13
Rp14
(I1
(I2
tp15
cnumpy
dtype
p16
(S'f8'
p17
I0
I1
tp18
Rp19
(I3
S'<'
p20
NNNI-1
I-1
I0
tp21
bI00
S'\x15(G\xc9\xad\xc7\x04@\xcc\x92\x7f\x8a\xccx\x1d@'
p22
tp23
bs.