(dp0
S'uncorrelated_prob'
p1
(lp2
F0.2001003009027081
aF0.1424272818455366
aF0.0802407221664995
aF0.08224674022066199
aF0.03861584754262788
aF0.034770979605483116
aF0.03761283851554664
aF0.043463724506853894
aF0.0183884988298228
aF0.0320962888665998
aF0.026078234704112337
aF0.016382480775660315
aF0.022567703109327986
aF0.005349381477766633
aF0.019893012370444666
aF0.012036108324974924
aF0.006352390504847877
aF0.01671681711802073
aF0.014042126379137413
aF0.0038448679371447677
aF0.004012036108324975
aF0.013039117352056168
aF0.004513540621865597
aF0.004847876964226012
aF0.005182213306586426
aF0.005349381477766633
aF0.005516549648946841
aF0.005850885991307255
aF0.006352390504847877
aF0.013039117352056168
aF0.007021063189568706
aF0.007689735874289535
aF0.008191240387830158
aF0.008525576730190571
aF0.009361417586091608
aF0.010030090270812437
aF0.010698762955533266
aF0.017552657973921765
asS'assortativity'
p3
cnumpy.core.multiarray
scalar
p4
(cnumpy
dtype
p5
(S'f8'
p6
I0
I1
tp7
Rp8
(I3
S'<'
p9
NNNI-1
I-1
I0
tp10
bS'\xc4\xb9\xf2\xe1(\xc6\xb0\xbf'
p11
tp12
Rp13
sS'dgr_dgr_func'
p14
(dp15
I64
(lp16
F0.28125
aF0.109375
aF0.078125
aF0.046875
aF0.03125
aF0.03125
aF0.015625
aF0.0625
aF0.03125
aF0.03125
aF0.015625
aF0.0
aF0.03125
aF0.015625
aF0.0
aF0.015625
aF0.0
aF0.015625
aF0.0
aF0.0
aF0.0
aF0.03125
aF0.0
aF0.0
aF0.0
aF0.015625
aF0.0
aF0.015625
aF0.0
aF0.015625
aF0.015625
aF0.015625
aF0.015625
aF0.015625
aF0.015625
aF0.015625
aF0.0
aF0.015625
asI3
(lp17
F0.0
aF0.12113617376775271
aF0.09189640768588136
aF0.10693400167084377
aF0.05680868838763575
aF0.04845446950710108
aF0.053467000835421885
aF0.05764411027568922
aF0.030910609857978277
aF0.045112781954887216
aF0.04177109440267335
aF0.017543859649122806
aF0.03007518796992481
aF0.007518796992481203
aF0.029239766081871343
aF0.015873015873015872
aF0.011695906432748537
aF0.02422723475355054
aF0.017543859649122806
aF0.006683375104427736
aF0.005012531328320802
aF0.022556390977443608
aF0.005012531328320802
aF0.003341687552213868
aF0.005012531328320802
aF0.010025062656641603
aF0.005847953216374269
aF0.009189640768588136
aF0.006683375104427736
aF0.020050125313283207
aF0.012531328320802004
aF0.00835421888053467
aF0.00835421888053467
aF0.010025062656641603
aF0.00835421888053467
aF0.007518796992481203
aF0.015037593984962405
aF0.022556390977443608
asI4
(lp18
F0.17018779342723006
aF0.08450704225352113
aF0.07276995305164319
aF0.07981220657276995
aF0.04342723004694836
aF0.03403755868544601
aF0.0528169014084507
aF0.0539906103286385
aF0.017605633802816902
aF0.035211267605633804
aF0.023474178403755867
aF0.022300469483568074
aF0.029342723004694836
aF0.007042253521126761
aF0.02112676056338028
aF0.01995305164319249
aF0.0035211267605633804
aF0.023474178403755867
aF0.02112676056338028
aF0.004694835680751174
aF0.008215962441314555
aF0.01643192488262911
aF0.007042253521126761
aF0.005868544600938967
aF0.008215962441314555
aF0.007042253521126761
aF0.008215962441314555
aF0.005868544600938967
aF0.005868544600938967
aF0.015258215962441314
aF0.005868544600938967
aF0.009389671361502348
aF0.012910798122065728
aF0.01056338028169014
aF0.008215962441314555
aF0.011737089201877934
aF0.008215962441314555
aF0.02464788732394366
asI5
(lp19
F0.22916666666666666
aF0.12916666666666668
aF0.07916666666666666
aF0.06041666666666667
aF0.03333333333333333
aF0.04583333333333333
aF0.04583333333333333
aF0.04375
aF0.014583333333333334
aF0.027083333333333334
aF0.03333333333333333
aF0.03125
aF0.022916666666666665
aF0.004166666666666667
aF0.020833333333333332
aF0.004166666666666667
aF0.0125
aF0.016666666666666666
aF0.01875
aF0.0
aF0.0020833333333333333
aF0.00625
aF0.0020833333333333333
aF0.00625
aF0.00625
aF0.00625
aF0.00625
aF0.004166666666666667
aF0.0125
aF0.008333333333333333
aF0.010416666666666666
aF0.004166666666666667
aF0.004166666666666667
aF0.0
aF0.0125
aF0.016666666666666666
aF0.010416666666666666
aF0.008333333333333333
asI6
(lp20
F0.2601626016260163
aF0.13821138211382114
aF0.05894308943089431
aF0.07317073170731707
aF0.022357723577235773
aF0.032520325203252036
aF0.024390243902439025
aF0.052845528455284556
aF0.008130081300813009
aF0.03048780487804878
aF0.028455284552845527
aF0.016260162601626018
aF0.022357723577235773
aF0.008130081300813009
aF0.022357723577235773
aF0.016260162601626018
aF0.0020325203252032522
aF0.018292682926829267
aF0.016260162601626018
aF0.0
aF0.006097560975609756
aF0.006097560975609756
aF0.0020325203252032522
aF0.0020325203252032522
aF0.006097560975609756
aF0.0
aF0.006097560975609756
aF0.0040650406504065045
aF0.008130081300813009
aF0.016260162601626018
aF0.006097560975609756
aF0.014227642276422764
aF0.01016260162601626
aF0.008130081300813009
aF0.012195121951219513
aF0.014227642276422764
aF0.006097560975609756
aF0.02032520325203252
asI7
(lp21
F0.2943722943722944
aF0.16017316017316016
aF0.06926406926406926
aF0.047619047619047616
aF0.04329004329004329
aF0.017316017316017316
aF0.030303030303030304
aF0.03896103896103896
aF0.017316017316017316
aF0.012987012987012988
aF0.008658008658008658
aF0.021645021645021644
aF0.004329004329004329
aF0.004329004329004329
aF0.012987012987012988
aF0.017316017316017316
aF0.008658008658008658
aF0.008658008658008658
aF0.004329004329004329
aF0.008658008658008658
aF0.004329004329004329
aF0.017316017316017316
aF0.008658008658008658
aF0.004329004329004329
aF0.004329004329004329
aF0.012987012987012988
aF0.008658008658008658
aF0.004329004329004329
aF0.004329004329004329
aF0.012987012987012988
aF0.0
aF0.012987012987012988
aF0.021645021645021644
aF0.0
aF0.012987012987012988
aF0.004329004329004329
aF0.008658008658008658
aF0.025974025974025976
asI8
(lp22
F0.27884615384615385
aF0.13942307692307693
aF0.10576923076923077
aF0.07692307692307693
aF0.019230769230769232
aF0.028846153846153848
aF0.028846153846153848
aF0.03365384615384615
aF0.02403846153846154
aF0.009615384615384616
aF0.02403846153846154
aF0.019230769230769232
aF0.019230769230769232
aF0.009615384615384616
aF0.014423076923076924
aF0.009615384615384616
aF0.004807692307692308
aF0.028846153846153848
aF0.0
aF0.0
aF0.0
aF0.004807692307692308
aF0.004807692307692308
aF0.019230769230769232
aF0.004807692307692308
aF0.0
aF0.004807692307692308
aF0.009615384615384616
aF0.004807692307692308
aF0.009615384615384616
aF0.004807692307692308
aF0.004807692307692308
aF0.004807692307692308
aF0.004807692307692308
aF0.004807692307692308
aF0.02403846153846154
aF0.009615384615384616
aF0.004807692307692308
asI9
(lp23
F0.28444444444444444
aF0.2
aF0.09777777777777778
aF0.05333333333333334
aF0.03111111111111111
aF0.02666666666666667
aF0.02666666666666667
aF0.02666666666666667
aF0.0044444444444444444
aF0.035555555555555556
aF0.013333333333333334
aF0.0
aF0.022222222222222223
aF0.0044444444444444444
aF0.017777777777777778
aF0.008888888888888889
aF0.0044444444444444444
aF0.008888888888888889
aF0.013333333333333334
aF0.0
aF0.0
aF0.008888888888888889
aF0.0
aF0.008888888888888889
aF0.0044444444444444444
aF0.0044444444444444444
aF0.008888888888888889
aF0.0
aF0.0044444444444444444
aF0.013333333333333334
aF0.017777777777777778
aF0.008888888888888889
aF0.0
aF0.0044444444444444444
aF0.0044444444444444444
aF0.008888888888888889
aF0.0044444444444444444
aF0.017777777777777778
asI10
(lp24
F0.2653846153846154
aF0.17692307692307693
aF0.08076923076923077
aF0.1
aF0.03461538461538462
aF0.026923076923076925
aF0.023076923076923078
aF0.038461538461538464
aF0.011538461538461539
aF0.023076923076923078
aF0.007692307692307693
aF0.007692307692307693
aF0.0038461538461538464
aF0.0
aF0.011538461538461539
aF0.007692307692307693
aF0.007692307692307693
aF0.019230769230769232
aF0.015384615384615385
aF0.0038461538461538464
aF0.0038461538461538464
aF0.0038461538461538464
aF0.0
aF0.0
aF0.0
aF0.0038461538461538464
aF0.0038461538461538464
aF0.007692307692307693
aF0.007692307692307693
aF0.019230769230769232
aF0.011538461538461539
aF0.011538461538461539
aF0.007692307692307693
aF0.0038461538461538464
aF0.011538461538461539
aF0.011538461538461539
aF0.015384615384615385
aF0.011538461538461539
asI11
(lp25
F0.33636363636363636
aF0.13636363636363635
aF0.06363636363636363
aF0.03636363636363636
aF0.03636363636363636
aF0.045454545454545456
aF0.00909090909090909
aF0.02727272727272727
aF0.0
aF0.00909090909090909
aF0.01818181818181818
aF0.02727272727272727
aF0.05454545454545454
aF0.0
aF0.01818181818181818
aF0.0
aF0.0
aF0.0
aF0.01818181818181818
aF0.0
aF0.00909090909090909
aF0.00909090909090909
aF0.00909090909090909
aF0.0
aF0.0
aF0.0
aF0.01818181818181818
aF0.0
aF0.0
aF0.00909090909090909
aF0.00909090909090909
aF0.00909090909090909
aF0.0
aF0.01818181818181818
aF0.01818181818181818
aF0.00909090909090909
aF0.01818181818181818
aF0.02727272727272727
asI12
(lp26
F0.28125
aF0.15625
aF0.06770833333333333
aF0.078125
aF0.015625
aF0.010416666666666666
aF0.041666666666666664
aF0.03125
aF0.005208333333333333
aF0.041666666666666664
aF0.03125
aF0.020833333333333332
aF0.020833333333333332
aF0.0
aF0.010416666666666666
aF0.020833333333333332
aF0.0
aF0.005208333333333333
aF0.020833333333333332
aF0.0
aF0.0
aF0.015625
aF0.010416666666666666
aF0.005208333333333333
aF0.0
aF0.0
aF0.010416666666666666
aF0.005208333333333333
aF0.005208333333333333
aF0.005208333333333333
aF0.0
aF0.005208333333333333
aF0.015625
aF0.010416666666666666
aF0.020833333333333332
aF0.010416666666666666
aF0.010416666666666666
aF0.010416666666666666
asI13
(lp27
F0.32051282051282054
aF0.1282051282051282
aF0.10256410256410256
aF0.08974358974358974
aF0.01282051282051282
aF0.03205128205128205
aF0.019230769230769232
aF0.01282051282051282
aF0.01282051282051282
aF0.038461538461538464
aF0.038461538461538464
aF0.00641025641025641
aF0.02564102564102564
aF0.00641025641025641
aF0.00641025641025641
aF0.0
aF0.00641025641025641
aF0.0
aF0.0
aF0.00641025641025641
aF0.0
aF0.019230769230769232
aF0.01282051282051282
aF0.01282051282051282
aF0.00641025641025641
aF0.01282051282051282
aF0.0
aF0.0
aF0.0
aF0.00641025641025641
aF0.0
aF0.00641025641025641
aF0.01282051282051282
aF0.00641025641025641
aF0.0
aF0.00641025641025641
aF0.00641025641025641
aF0.02564102564102564
asI14
(lp28
F0.21428571428571427
aF0.19387755102040816
aF0.15306122448979592
aF0.08163265306122448
aF0.05102040816326531
aF0.04081632653061224
aF0.0
aF0.02040816326530612
aF0.030612244897959183
aF0.04081632653061224
aF0.01020408163265306
aF0.02040816326530612
aF0.030612244897959183
aF0.0
aF0.01020408163265306
aF0.01020408163265306
aF0.0
aF0.0
aF0.0
aF0.0
aF0.0
aF0.0
aF0.0
aF0.02040816326530612
aF0.0
aF0.01020408163265306
aF0.0
aF0.0
aF0.02040816326530612
aF0.0
aF0.0
aF0.0
aF0.0
aF0.01020408163265306
aF0.01020408163265306
aF0.01020408163265306
aF0.0
aF0.01020408163265306
asI15
(lp29
F0.26666666666666666
aF0.18518518518518517
aF0.08148148148148149
aF0.08148148148148149
aF0.007407407407407408
aF0.02962962962962963
aF0.037037037037037035
aF0.007407407407407408
aF0.044444444444444446
aF0.02962962962962963
aF0.02962962962962963
aF0.022222222222222223
aF0.014814814814814815
aF0.0
aF0.014814814814814815
aF0.007407407407407408
aF0.0
aF0.007407407407407408
aF0.0
aF0.0
aF0.0
aF0.007407407407407408
aF0.014814814814814815
aF0.0
aF0.007407407407407408
aF0.0
aF0.0
aF0.007407407407407408
aF0.007407407407407408
aF0.007407407407407408
aF0.0
aF0.0
aF0.007407407407407408
aF0.022222222222222223
aF0.0
aF0.014814814814814815
aF0.014814814814814815
aF0.022222222222222223
asI16
(lp30
F0.28125
aF0.1875
aF0.0625
aF0.125
aF0.03125
aF0.0625
aF0.03125
aF0.0
aF0.0
aF0.0
aF0.03125
aF0.0
aF0.0
aF0.0
aF0.0
aF0.0
aF0.0
aF0.03125
aF0.0
aF0.0
aF0.0
aF0.0
aF0.0
aF0.0
aF0.0
aF0.0
aF0.0
aF0.0
aF0.0
aF0.0
aF0.0
aF0.0
aF0.0
aF0.03125
aF0.03125
aF0.03125
aF0.03125
aF0.03125
asI17
(lp31
F0.29411764705882354
aF0.15126050420168066
aF0.08403361344537816
aF0.09243697478991597
aF0.025210084033613446
aF0.025210084033613446
aF0.03361344537815126
aF0.025210084033613446
aF0.01680672268907563
aF0.01680672268907563
aF0.008403361344537815
aF0.008403361344537815
aF0.01680672268907563
aF0.0
aF0.05042016806722689
aF0.0
aF0.0
aF0.008403361344537815
aF0.01680672268907563
aF0.008403361344537815
aF0.008403361344537815
aF0.01680672268907563
aF0.008403361344537815
aF0.0
aF0.025210084033613446
aF0.0
aF0.0
aF0.0
aF0.008403361344537815
aF0.0
aF0.0
aF0.008403361344537815
aF0.01680672268907563
aF0.0
aF0.008403361344537815
aF0.008403361344537815
aF0.0
aF0.008403361344537815
asI18
(lp32
F0.2638888888888889
aF0.2361111111111111
aF0.027777777777777776
aF0.1111111111111111
aF0.05555555555555555
aF0.027777777777777776
aF0.027777777777777776
aF0.027777777777777776
aF0.0
aF0.05555555555555555
aF0.0
aF0.013888888888888888
aF0.013888888888888888
aF0.0
aF0.0
aF0.0
aF0.0
aF0.013888888888888888
aF0.0
aF0.0
aF0.0
aF0.013888888888888888
aF0.0
aF0.0
aF0.0
aF0.0
aF0.0
aF0.013888888888888888
aF0.0
aF0.0
aF0.0
aF0.013888888888888888
aF0.0
aF0.013888888888888888
aF0.013888888888888888
aF0.027777777777777776
aF0.013888888888888888
aF0.013888888888888888
asI19
(lp33
F0.3684210526315789
aF0.07894736842105263
aF0.15789473684210525
aF0.02631578947368421
aF0.05263157894736842
aF0.02631578947368421
aF0.02631578947368421
aF0.05263157894736842
aF0.0
aF0.0
aF0.02631578947368421
aF0.0
aF0.0
aF0.0
aF0.0
aF0.0
aF0.0
aF0.0
aF0.02631578947368421
aF0.02631578947368421
aF0.02631578947368421
aF0.02631578947368421
aF0.0
aF0.0
aF0.0
aF0.0
aF0.0
aF0.0
aF0.02631578947368421
aF0.0
aF0.0
aF0.0
aF0.0
aF0.02631578947368421
aF0.0
aF0.0
aF0.0
aF0.02631578947368421
asI20
(lp34
F0.29
aF0.2
aF0.08
aF0.09
aF0.02
aF0.06
aF0.02
aF0.05
aF0.0
aF0.01
aF0.0
aF0.0
aF0.01
aF0.01
aF0.01
aF0.01
aF0.0
aF0.0
aF0.02
aF0.0
aF0.0
aF0.03
aF0.0
aF0.0
aF0.0
aF0.0
aF0.01
aF0.0
aF0.01
aF0.02
aF0.0
aF0.0
aF0.0
aF0.02
aF0.0
aF0.0
aF0.01
aF0.02
asI21
(lp35
F0.25
aF0.21428571428571427
aF0.10714285714285714
aF0.09523809523809523
aF0.011904761904761904
aF0.0
aF0.03571428571428571
aF0.047619047619047616
aF0.023809523809523808
aF0.047619047619047616
aF0.0
aF0.0
aF0.0
aF0.0
aF0.023809523809523808
aF0.0
aF0.011904761904761904
aF0.023809523809523808
aF0.0
aF0.011904761904761904
aF0.0
aF0.0
aF0.0
aF0.011904761904761904
aF0.0
aF0.0
aF0.0
aF0.023809523809523808
aF0.0
aF0.023809523809523808
aF0.0
aF0.0
aF0.0
aF0.023809523809523808
aF0.0
aF0.0
aF0.0
aF0.011904761904761904
asI23
(lp36
F0.34782608695652173
aF0.17391304347826086
aF0.0
aF0.0
aF0.08695652173913043
aF0.0
aF0.0
aF0.043478260869565216
aF0.0
aF0.0
aF0.043478260869565216
aF0.0
aF0.0
aF0.0
aF0.043478260869565216
aF0.0
aF0.043478260869565216
aF0.0
aF0.043478260869565216
aF0.0
aF0.0
aF0.0
aF0.0
aF0.0
aF0.0
aF0.0
aF0.0
aF0.043478260869565216
aF0.0
aF0.043478260869565216
aF0.0
aF0.0
aF0.0
aF0.0
aF0.043478260869565216
aF0.043478260869565216
aF0.0
aF0.0
asI24
(lp37
F0.25
aF0.2916666666666667
aF0.041666666666666664
aF0.125
aF0.041666666666666664
aF0.0
aF0.0
aF0.041666666666666664
aF0.041666666666666664
aF0.0
aF0.0
aF0.0
aF0.0
aF0.0
aF0.041666666666666664
aF0.0
aF0.041666666666666664
aF0.0
aF0.0
aF0.0
aF0.0
aF0.041666666666666664
aF0.0
aF0.0
aF0.041666666666666664
aF0.0
aF0.0
aF0.0
aF0.0
aF0.0
aF0.0
aF0.0
aF0.0
aF0.0
aF0.0
aF0.0
aF0.0
aF0.0
asI26
(lp38
F0.34615384615384615
aF0.1794871794871795
aF0.038461538461538464
aF0.038461538461538464
aF0.05128205128205128
aF0.01282051282051282
aF0.02564102564102564
aF0.01282051282051282
aF0.01282051282051282
aF0.038461538461538464
aF0.038461538461538464
aF0.0
aF0.01282051282051282
aF0.0
aF0.02564102564102564
aF0.01282051282051282
aF0.01282051282051282
aF0.038461538461538464
aF0.0
aF0.0
aF0.01282051282051282
aF0.0
aF0.0
aF0.0
aF0.0
aF0.0
aF0.0
aF0.0
aF0.0
aF0.0
aF0.0
aF0.01282051282051282
aF0.0
aF0.01282051282051282
aF0.01282051282051282
aF0.0
aF0.02564102564102564
aF0.02564102564102564
asI27
(lp39
F0.2222222222222222
aF0.2222222222222222
aF0.037037037037037035
aF0.037037037037037035
aF0.07407407407407407
aF0.037037037037037035
aF0.0
aF0.0
aF0.037037037037037035
aF0.07407407407407407
aF0.07407407407407407
aF0.0
aF0.07407407407407407
aF0.0
aF0.037037037037037035
aF0.0
aF0.0
aF0.0
aF0.0
aF0.0
aF0.0
aF0.0
aF0.0
aF0.0
aF0.0
aF0.0
aF0.0
aF0.037037037037037035
aF0.037037037037037035
aF0.0
aF0.0
aF0.0
aF0.0
aF0.0
aF0.0
aF0.0
aF0.0
aF0.0
asI29
(lp40
F0.13793103448275862
aF0.1724137931034483
aF0.10344827586206896
aF0.034482758620689655
aF0.034482758620689655
aF0.13793103448275862
aF0.06896551724137931
aF0.0
aF0.0
aF0.034482758620689655
aF0.06896551724137931
aF0.06896551724137931
aF0.0
aF0.0
aF0.0
aF0.0
aF0.0
aF0.0
aF0.034482758620689655
aF0.0
aF0.0
aF0.0
aF0.0
aF0.0
aF0.034482758620689655
aF0.0
aF0.0
aF0.0
aF0.0
aF0.034482758620689655
aF0.0
aF0.034482758620689655
aF0.0
aF0.0
aF0.0
aF0.0
aF0.0
aF0.0
asI31
(lp41
F0.1935483870967742
aF0.22580645161290322
aF0.0967741935483871
aF0.0967741935483871
aF0.03225806451612903
aF0.03225806451612903
aF0.03225806451612903
aF0.0
aF0.0
aF0.0
aF0.03225806451612903
aF0.0
aF0.03225806451612903
aF0.0
aF0.0967741935483871
aF0.0
aF0.0
aF0.0
aF0.0
aF0.0
aF0.03225806451612903
aF0.0
aF0.0
aF0.03225806451612903
aF0.0
aF0.0
aF0.0
aF0.03225806451612903
aF0.0
aF0.0
aF0.0
aF0.0
aF0.03225806451612903
aF0.0
aF0.0
aF0.0
aF0.0
aF0.0
asI32
(lp42
F0.375
aF0.1875
aF0.09375
aF0.0
aF0.09375
aF0.0
aF0.03125
aF0.03125
aF0.0
aF0.0
aF0.0625
aF0.03125
aF0.0
aF0.0
aF0.0
aF0.0
aF0.0
aF0.0
aF0.0
aF0.0
aF0.0
aF0.0
aF0.0
aF0.0
aF0.0
aF0.0
aF0.0
aF0.0
aF0.0
aF0.0
aF0.03125
aF0.0
aF0.0
aF0.03125
aF0.0
aF0.0
aF0.03125
aF0.0
asI33
(lp43
F0.21212121212121213
aF0.21212121212121213
aF0.09090909090909091
aF0.09090909090909091
aF0.06060606060606061
aF0.030303030303030304
aF0.06060606060606061
aF0.030303030303030304
aF0.06060606060606061
aF0.06060606060606061
aF0.0
aF0.0
aF0.0
aF0.0
aF0.0
aF0.0
aF0.0
aF0.030303030303030304
aF0.0
aF0.0
aF0.0
aF0.0
aF0.0
aF0.0
aF0.0
aF0.0
aF0.0
aF0.0
aF0.0
aF0.0
aF0.0
aF0.0
aF0.0
aF0.0
aF0.0
aF0.030303030303030304
aF0.0
aF0.030303030303030304
asI35
(lp44
F0.3142857142857143
aF0.14285714285714285
aF0.05714285714285714
aF0.05714285714285714
aF0.02857142857142857
aF0.05714285714285714
aF0.0
aF0.05714285714285714
aF0.0
aF0.02857142857142857
aF0.0
aF0.0
aF0.02857142857142857
aF0.0
aF0.0
aF0.02857142857142857
aF0.0
aF0.0
aF0.05714285714285714
aF0.02857142857142857
aF0.0
aF0.0
aF0.02857142857142857
aF0.0
aF0.02857142857142857
aF0.0
aF0.0
aF0.0
aF0.0
aF0.0
aF0.0
aF0.0
aF0.0
aF0.0
aF0.0
aF0.0
aF0.02857142857142857
aF0.02857142857142857
asI38
(lp45
F0.21052631578947367
aF0.13157894736842105
aF0.15789473684210525
aF0.10526315789473684
aF0.02631578947368421
aF0.02631578947368421
aF0.02631578947368421
aF0.05263157894736842
aF0.0
aF0.02631578947368421
aF0.0
aF0.05263157894736842
aF0.02631578947368421
aF0.0
aF0.02631578947368421
aF0.0
aF0.02631578947368421
aF0.02631578947368421
aF0.0
aF0.0
aF0.0
aF0.0
aF0.02631578947368421
aF0.0
aF0.0
aF0.0
aF0.0
aF0.0
aF0.0
aF0.0
aF0.0
aF0.0
aF0.02631578947368421
aF0.0
aF0.0
aF0.0
aF0.0
aF0.02631578947368421
asI39
(lp46
F0.3076923076923077
aF0.16666666666666666
aF0.05128205128205128
aF0.10256410256410256
aF0.038461538461538464
aF0.02564102564102564
aF0.038461538461538464
aF0.0641025641025641
aF0.01282051282051282
aF0.01282051282051282
aF0.01282051282051282
aF0.0
aF0.01282051282051282
aF0.0
aF0.0
aF0.0
aF0.0
aF0.02564102564102564
aF0.02564102564102564
aF0.01282051282051282
aF0.0
aF0.0
aF0.0
aF0.01282051282051282
aF0.0
aF0.0
aF0.0
aF0.0
aF0.0
aF0.0
aF0.01282051282051282
aF0.01282051282051282
aF0.01282051282051282
aF0.01282051282051282
aF0.01282051282051282
aF0.0
aF0.01282051282051282
aF0.0
asI105
(lp47
F0.2571428571428571
aF0.2
aF0.0380952380952381
aF0.09523809523809523
aF0.05714285714285714
aF0.009523809523809525
aF0.0380952380952381
aF0.02857142857142857
aF0.02857142857142857
aF0.01904761904761905
aF0.0380952380952381
aF0.009523809523809525
aF0.02857142857142857
aF0.009523809523809525
aF0.009523809523809525
aF0.009523809523809525
aF0.009523809523809525
aF0.01904761904761905
aF0.009523809523809525
aF0.0
aF0.0
aF0.01904761904761905
aF0.0
aF0.0
aF0.0
aF0.0
aF0.009523809523809525
aF0.009523809523809525
aF0.009523809523809525
aF0.0
aF0.0
aF0.0
aF0.0
aF0.009523809523809525
aF0.009523809523809525
aF0.009523809523809525
aF0.009523809523809525
aF0.0
asI42
(lp48
F0.35714285714285715
aF0.11904761904761904
aF0.11904761904761904
aF0.07142857142857142
aF0.0
aF0.023809523809523808
aF0.09523809523809523
aF0.07142857142857142
aF0.023809523809523808
aF0.0
aF0.0
aF0.0
aF0.0
aF0.0
aF0.0
aF0.0
aF0.0
aF0.0
aF0.0
aF0.0
aF0.0
aF0.0
aF0.0
aF0.0
aF0.0
aF0.023809523809523808
aF0.0
aF0.0
aF0.0
aF0.023809523809523808
aF0.0
aF0.0
aF0.0
aF0.023809523809523808
aF0.023809523809523808
aF0.0
aF0.023809523809523808
aF0.0
asI46
(lp49
F0.21739130434782608
aF0.17391304347826086
aF0.043478260869565216
aF0.15217391304347827
aF0.06521739130434782
aF0.021739130434782608
aF0.043478260869565216
aF0.06521739130434782
aF0.021739130434782608
aF0.021739130434782608
aF0.021739130434782608
aF0.0
aF0.0
aF0.0
aF0.021739130434782608
aF0.021739130434782608
aF0.0
aF0.0
aF0.0
aF0.0
aF0.0
aF0.021739130434782608
aF0.0
aF0.021739130434782608
aF0.0
aF0.0
aF0.0
aF0.0
aF0.0
aF0.021739130434782608
aF0.0
aF0.0
aF0.0
aF0.0
aF0.021739130434782608
aF0.0
aF0.021739130434782608
aF0.0
asI49
(lp50
F0.20408163265306123
aF0.22448979591836735
aF0.04081632653061224
aF0.10204081632653061
aF0.10204081632653061
aF0.02040816326530612
aF0.0
aF0.04081632653061224
aF0.0
aF0.061224489795918366
aF0.04081632653061224
aF0.0
aF0.02040816326530612
aF0.0
aF0.04081632653061224
aF0.0
aF0.0
aF0.0
aF0.0
aF0.0
aF0.0
aF0.0
aF0.0
aF0.0
aF0.02040816326530612
aF0.0
aF0.0
aF0.0
aF0.02040816326530612
aF0.02040816326530612
aF0.0
aF0.0
aF0.0
aF0.0
aF0.02040816326530612
aF0.0
aF0.02040816326530612
aF0.0
asI51
(lp51
F0.23529411764705882
aF0.17647058823529413
aF0.0
aF0.0784313725490196
aF0.0
aF0.0196078431372549
aF0.0196078431372549
aF0.0196078431372549
aF0.0392156862745098
aF0.0392156862745098
aF0.0196078431372549
aF0.0196078431372549
aF0.058823529411764705
aF0.0196078431372549
aF0.0
aF0.0196078431372549
aF0.0196078431372549
aF0.0392156862745098
aF0.0392156862745098
aF0.0
aF0.0
aF0.0196078431372549
aF0.0
aF0.0
aF0.0
aF0.0196078431372549
aF0.0
aF0.0
aF0.0
aF0.0196078431372549
aF0.0196078431372549
aF0.0
aF0.0
aF0.0
aF0.0196078431372549
aF0.0
aF0.0196078431372549
aF0.0196078431372549
asI56
(lp52
F0.17857142857142858
aF0.125
aF0.10714285714285714
aF0.10714285714285714
aF0.05357142857142857
aF0.017857142857142856
aF0.017857142857142856
aF0.05357142857142857
aF0.03571428571428571
aF0.07142857142857142
aF0.0
aF0.017857142857142856
aF0.0
aF0.017857142857142856
aF0.017857142857142856
aF0.017857142857142856
aF0.0
aF0.0
aF0.0
aF0.017857142857142856
aF0.0
aF0.017857142857142856
aF0.0
aF0.0
aF0.0
aF0.0
aF0.0
aF0.0
aF0.0
aF0.017857142857142856
aF0.017857142857142856
aF0.017857142857142856
aF0.017857142857142856
aF0.017857142857142856
aF0.0
aF0.0
aF0.017857142857142856
aF0.017857142857142856
asI60
(lp53
F0.15
aF0.16666666666666666
aF0.13333333333333333
aF0.11666666666666667
aF0.016666666666666666
aF0.08333333333333333
aF0.03333333333333333
aF0.05
aF0.016666666666666666
aF0.03333333333333333
aF0.016666666666666666
aF0.016666666666666666
aF0.03333333333333333
aF0.016666666666666666
aF0.016666666666666666
aF0.03333333333333333
aF0.0
aF0.0
aF0.0
aF0.016666666666666666
aF0.0
aF0.0
aF0.0
aF0.0
aF0.0
aF0.0
aF0.016666666666666666
aF0.0
aF0.0
aF0.0
aF0.0
aF0.0
aF0.0
aF0.0
aF0.0
aF0.0
aF0.016666666666666666
aF0.016666666666666666
assS'popt'
p54
cnumpy.core.multiarray
_reconstruct
p55
(cnumpy
ndarray
p56
(I0
tp57
S'b'
p58
tp59
Rp60
(I1
(I3
tp61
g8
I00
S'\xb2\x95\x19X}2\x04@\x8d\xc1\x95n\xcbm \xc0\xb1tx@\xc4\x7f\x1e\xc0'
p62
tp63
bs.