(dp0
S'uncorrelated_prob'
p1
(lp2
F0.20156046814044212
aF0.13297322530092362
aF0.09336134173585409
aF0.07202160648194458
aF0.05379947317528592
aF0.047080790903937846
aF0.03841152345703711
aF0.028175119202427396
aF0.02237337868027075
aF0.02000600180054016
aF0.02102297355873429
aF0.018905671701510453
aF0.014504351305391617
aF0.012003601080324097
aF0.009636224200593511
aF0.010203060918275483
aF0.01203694441665833
aF0.008669267446900737
aF0.011903571071321397
aF0.0073355339935313926
aF0.005751725517655296
aF0.006401920576172852
aF0.0045847087459571206
aF0.002167316861725184
aF0.0018005401620486145
aF0.006535293921509786
aF0.007735654029542196
aF0.0010003000900270082
aF0.003617751992264346
aF0.0021339735253909507
aF0.0016504951485445635
aF0.003967857023773799
aF0.004668067086792705
aF0.004201260378113434
aF0.0049348137774665735
aF0.001267046780700877
aF0.002600780234070221
aF0.0026674669067386883
aF0.0014004201260378114
aF0.0007168817311860225
aF0.002200660198059418
aF0.0022506752025607682
aF0.0024007202160648195
aF0.00245073522056617
aF0.0008335834083558401
aF0.0008502550765229569
aF0.0017338534893801473
aF0.003534393651428762
aF0.0009002700810243073
aF0.0009169417491914241
aF0.0009336134173585409
aF0.0009502850855256577
aF0.001933913507385549
aF0.0019672568437197825
aF0.0020339435163882497
aF0.0010336434263612418
aF0.0031509452835850756
aF0.002267346870727885
aF0.0011503451035310593
aF0.0011670167716981762
aF0.0011836884398652929
aF0.003601080324097229
aF0.0012170317761995265
aF0.0012337034443666434
aF0.001267046780700877
aF0.0012837184488679937
aF0.0027341535794071555
aF0.0013837484578706944
aF0.001433763462372045
aF0.0014504351305391616
aF0.0015838084758760963
aF0.001600480144043213
aF0.0016671668167116801
aF0.0034010203060918275
aF0.0017838684938814978
aF0.0018338834983828481
aF0.0020339435163882497
aF0.002117301857223834
aF0.0023840485478977026
aF0.00250075022506752
aF0.002767496915741389
aF0.0029008702610783233
aF0.002934213597412557
aF0.0038344836784368645
aF0.0039011703511053317
aF0.005518322163315661
asS'assortativity'
p3
cnumpy.core.multiarray
scalar
p4
(cnumpy
dtype
p5
(S'f8'
p6
I0
I1
tp7
Rp8
(I3
S'<'
p9
NNNI-1
I-1
I0
tp10
bS'bk\xf5\x1e\xfe\xdc\xa4\xbf'
p11
tp12
Rp13
sS'dgr_dgr_func'
p14
(dp15
I3
(lp16
F0.0
aF0.10802315963606286
aF0.1097601323407775
aF0.09735318444995865
aF0.0728701406120761
aF0.06774193548387097
aF0.05508684863523573
aF0.03970223325062035
aF0.03184449958643507
aF0.028535980148883373
aF0.030107526881720432
aF0.028453267162944582
aF0.01943755169561621
aF0.016542597187758478
aF0.013399503722084368
aF0.012903225806451613
aF0.016046319272125725
aF0.011579818031430935
aF0.01761786600496278
aF0.009098428453267164
aF0.008105872622001655
aF0.008602150537634409
aF0.0064516129032258064
aF0.0037220843672456576
aF0.002150537634408602
aF0.00794044665012407
aF0.010173697270471464
aF0.0014061207609594706
aF0.004383788254755997
aF0.002729528535980149
aF0.0018196856906534326
aF0.005210918114143921
aF0.0076095947063689
aF0.006286186931348222
aF0.0056244830438378825
aF0.0020678246484698098
aF0.003143093465674111
aF0.0038875103391232423
aF0.002150537634408602
aF0.0011579818031430935
aF0.0026468155500413565
aF0.002977667493796526
aF0.002977667493796526
aF0.0030603804797353184
aF0.0011579818031430935
aF0.0012406947890818859
aF0.0020678246484698098
aF0.005293631100082713
aF0.0011579818031430935
aF0.0011579818031430935
aF0.0012406947890818859
aF0.0009098428453267163
aF0.002315963606286187
aF0.002977667493796526
aF0.0020678246484698098
aF0.0013234077750206782
aF0.004549214226633582
aF0.0032258064516129032
aF0.0016542597187758478
aF0.0015715467328370554
aF0.001488833746898263
aF0.004218362282878412
aF0.002150537634408602
aF0.0023986765922249793
aF0.0016542597187758478
aF0.0018196856906534326
aF0.0038875103391232423
aF0.0014061207609594706
aF0.0013234077750206782
aF0.001902398676592225
aF0.0016542597187758478
aF0.0019851116625310174
aF0.0022332506203473945
aF0.0034739454094292804
aF0.0022332506203473945
aF0.0018196856906534326
aF0.002729528535980149
aF0.0026468155500413565
aF0.002977667493796526
aF0.0030603804797353184
aF0.0034739454094292804
aF0.004218362282878412
aF0.003143093465674111
aF0.0040529363110008276
aF0.005789909015715467
aF0.005955334987593052
asI4
(lp17
F0.16374122367101304
aF0.10431293881644935
aF0.07973921765295888
aF0.0687061183550652
aF0.05792377131394182
aF0.050401203610832494
aF0.045260782347041124
aF0.032472417251755266
aF0.02657973921765296
aF0.026955867602808426
aF0.027833500501504512
aF0.022567703109327986
aF0.016173520561685056
aF0.014167502507522568
aF0.011534603811434303
aF0.01078234704112337
aF0.0160481444332999
aF0.011283851554663993
aF0.01354062186559679
aF0.008776328986960883
aF0.0076479438314944834
aF0.008776328986960883
aF0.005140421263791374
aF0.0027582748244734203
aF0.0025075225677031092
aF0.00664493480441324
aF0.008149448345035105
aF0.0007522567703109327
aF0.004012036108324975
aF0.0022567703109327986
aF0.002131394182547643
aF0.004012036108324975
aF0.0048896690070210636
aF0.005516549648946841
aF0.005516549648946841
aF0.001880641925777332
aF0.0027582748244734203
aF0.0028836509528585757
aF0.0015045135406218655
aF0.0010030090270812437
aF0.0022567703109327986
aF0.0020060180541624875
aF0.0036359077231695085
aF0.0031344032096288867
aF0.0008776328986960883
aF0.0011283851554663993
aF0.001880641925777332
aF0.003510531594784353
aF0.0007522567703109327
aF0.0012537612838515546
aF0.0008776328986960883
aF0.0006268806419257773
aF0.0033851554663991974
aF0.0027582748244734203
aF0.0027582748244734203
aF0.0008776328986960883
aF0.003259779338014042
aF0.002382146439317954
aF0.0017552657973921766
aF0.0017552657973921766
aF0.0015045135406218655
aF0.004513540621865597
aF0.0007522567703109327
aF0.0012537612838515546
aF0.001880641925777332
aF0.001880641925777332
aF0.003259779338014042
aF0.0013791374122367102
aF0.0015045135406218655
aF0.0027582748244734203
aF0.0011283851554663993
aF0.0013791374122367102
aF0.001880641925777332
aF0.0036359077231695085
aF0.0017552657973921766
aF0.002382146439317954
aF0.0025075225677031092
aF0.0017552657973921766
aF0.0033851554663991974
aF0.003009027081243731
aF0.0033851554663991974
aF0.003761283851554664
aF0.0036359077231695085
aF0.004638916750250752
aF0.004388164493480441
aF0.0062688064192577735
asI5
(lp18
F0.2369642857142857
aF0.11357142857142857
aF0.07
aF0.06053571428571428
aF0.048928571428571425
aF0.03892857142857143
aF0.03482142857142857
aF0.028035714285714285
aF0.023571428571428573
aF0.01875
aF0.02
aF0.019285714285714285
aF0.016428571428571428
aF0.016964285714285713
aF0.010535714285714285
aF0.012142857142857143
aF0.011607142857142858
aF0.010714285714285714
aF0.012857142857142857
aF0.009821428571428571
aF0.007678571428571429
aF0.0066071428571428574
aF0.005357142857142857
aF0.0014285714285714286
aF0.0026785714285714286
aF0.007857142857142858
aF0.009642857142857142
aF0.00125
aF0.004464285714285714
aF0.0023214285714285715
aF0.0019642857142857144
aF0.004464285714285714
aF0.005535714285714285
aF0.004107142857142857
aF0.005
aF0.0007142857142857143
aF0.0035714285714285713
aF0.002857142857142857
aF0.0014285714285714286
aF0.0010714285714285715
aF0.0023214285714285715
aF0.0033928571428571428
aF0.002142857142857143
aF0.0030357142857142857
aF0.0008928571428571428
aF0.0007142857142857143
aF0.0016071428571428571
aF0.0033928571428571428
aF0.0008928571428571428
aF0.00035714285714285714
aF0.0016071428571428571
aF0.0010714285714285715
aF0.0023214285714285715
aF0.0017857142857142857
aF0.0017857142857142857
aF0.0025
aF0.0032142857142857142
aF0.0026785714285714286
aF0.0014285714285714286
aF0.0010714285714285715
aF0.002142857142857143
aF0.00375
aF0.0010714285714285715
aF0.0017857142857142857
aF0.0019642857142857144
aF0.0014285714285714286
aF0.002857142857142857
aF0.0008928571428571428
aF0.0014285714285714286
aF0.0017857142857142857
aF0.0023214285714285715
aF0.0023214285714285715
aF0.0016071428571428571
aF0.004285714285714286
aF0.0023214285714285715
aF0.0025
aF0.00125
aF0.002857142857142857
aF0.0023214285714285715
aF0.002857142857142857
aF0.0030357142857142857
aF0.0025
aF0.004107142857142857
aF0.004821428571428571
aF0.003928571428571429
aF0.005178571428571428
asI6
(lp19
F0.2724537037037037
aF0.12685185185185185
aF0.07847222222222222
aF0.05
aF0.04050925925925926
aF0.034722222222222224
aF0.037037037037037035
aF0.025694444444444443
aF0.02175925925925926
aF0.019675925925925927
aF0.021064814814814814
aF0.014583333333333334
aF0.015046296296296295
aF0.010416666666666666
aF0.009953703703703704
aF0.011574074074074073
aF0.010648148148148148
aF0.007407407407407408
aF0.012037037037037037
aF0.008101851851851851
aF0.003935185185185185
aF0.006712962962962963
aF0.005092592592592593
aF0.0011574074074074073
aF0.002777777777777778
aF0.006481481481481481
aF0.008101851851851851
aF0.0011574074074074073
aF0.003703703703703704
aF0.001851851851851852
aF0.0006944444444444445
aF0.004398148148148148
aF0.005092592592592593
aF0.003472222222222222
aF0.007175925925925926
aF0.0006944444444444445
aF0.0020833333333333333
aF0.001851851851851852
aF0.0023148148148148147
aF0.0006944444444444445
aF0.0023148148148148147
aF0.0025462962962962965
aF0.0032407407407407406
aF0.001388888888888889
aF0.0011574074074074073
aF0.001388888888888889
aF0.0032407407407407406
aF0.004166666666666667
aF0.001388888888888889
aF0.0016203703703703703
aF0.0002314814814814815
aF0.001388888888888889
aF0.001388888888888889
aF0.0011574074074074073
aF0.0025462962962962965
aF0.000925925925925926
aF0.0030092592592592593
aF0.003472222222222222
aF0.000925925925925926
aF0.0006944444444444445
aF0.000925925925925926
aF0.0032407407407407406
aF0.0011574074074074073
aF0.000925925925925926
aF0.0016203703703703703
aF0.001388888888888889
aF0.0020833333333333333
aF0.0020833333333333333
aF0.001388888888888889
aF0.0011574074074074073
aF0.0023148148148148147
aF0.001851851851851852
aF0.0025462962962962965
aF0.0023148148148148147
aF0.001851851851851852
aF0.001851851851851852
aF0.001851851851851852
aF0.002777777777777778
aF0.004398148148148148
aF0.0023148148148148147
aF0.004166666666666667
aF0.001388888888888889
aF0.003472222222222222
aF0.004166666666666667
aF0.004398148148148148
aF0.006712962962962963
asI7
(lp20
F0.2730089866749303
aF0.14316702819956617
aF0.08490858382398513
aF0.05422993492407809
aF0.04772234273318872
aF0.04307406259683917
aF0.02850945150294391
aF0.021691973969631236
aF0.01456461109389526
aF0.01580415246358847
aF0.017663464518128294
aF0.017663464518128294
aF0.011155872327238922
aF0.010845986984815618
aF0.008057018903005888
aF0.011465757669662225
aF0.010226216299969011
aF0.009606445615122404
aF0.00836690424542919
aF0.00836690424542919
aF0.006817477533312674
aF0.005268050821196158
aF0.0037186241090796405
aF0.0018593120545398203
aF0.0021691973969631237
aF0.006197706848466067
aF0.007437248218159281
aF0.0012395413696932136
aF0.0037186241090796405
aF0.0012395413696932136
aF0.002479082739386427
aF0.004338394793926247
aF0.0030988534242330336
aF0.0030988534242330336
aF0.004028509451502944
aF0.0006197706848466068
aF0.002479082739386427
aF0.002479082739386427
aF0.0009296560272699101
aF0.0
aF0.0027889680818097306
aF0.0027889680818097306
aF0.0030988534242330336
aF0.0009296560272699101
aF0.0012395413696932136
aF0.0015494267121165168
aF0.0018593120545398203
aF0.004338394793926247
aF0.0009296560272699101
aF0.0018593120545398203
aF0.0012395413696932136
aF0.0015494267121165168
aF0.0018593120545398203
aF0.0018593120545398203
aF0.002479082739386427
aF0.0009296560272699101
aF0.0012395413696932136
aF0.0015494267121165168
aF0.0012395413696932136
aF0.0006197706848466068
aF0.0003098853424233034
aF0.0030988534242330336
aF0.0012395413696932136
aF0.0018593120545398203
aF0.0006197706848466068
aF0.0012395413696932136
aF0.004958165478772854
aF0.0021691973969631237
aF0.0018593120545398203
aF0.0015494267121165168
aF0.0009296560272699101
aF0.0012395413696932136
aF0.0015494267121165168
aF0.005577936163619461
aF0.002479082739386427
aF0.0012395413696932136
aF0.0018593120545398203
aF0.002479082739386427
aF0.0021691973969631237
aF0.0012395413696932136
aF0.002479082739386427
aF0.003408738766656337
aF0.0012395413696932136
aF0.004648280136349551
aF0.0030988534242330336
aF0.006197706848466067
asI8
(lp21
F0.290014164305949
aF0.1423512747875354
aF0.07719546742209632
aF0.05311614730878187
aF0.049220963172804534
aF0.04320113314447592
aF0.026912181303116147
aF0.024079320113314446
aF0.018413597733711047
aF0.015580736543909348
aF0.014164305949008499
aF0.017705382436260624
aF0.013810198300283285
aF0.011685552407932011
aF0.009206798866855524
aF0.009560906515580737
aF0.009915014164305949
aF0.0084985835694051
aF0.010977337110481586
aF0.00424929178470255
aF0.00424929178470255
aF0.0056657223796034
aF0.004957507082152974
aF0.002478753541076487
aF0.0010623229461756375
aF0.008144475920679886
aF0.0056657223796034
aF0.000708215297450425
aF0.002478753541076487
aF0.002478753541076487
aF0.0010623229461756375
aF0.005311614730878187
aF0.002478753541076487
aF0.0035410764872521247
aF0.007082152974504249
aF0.0017705382436260624
aF0.002478753541076487
aF0.003186968838526912
aF0.0010623229461756375
aF0.0
aF0.0028328611898017
aF0.002124645892351275
aF0.0017705382436260624
aF0.0035410764872521247
aF0.0010623229461756375
aF0.0010623229461756375
aF0.002478753541076487
aF0.002478753541076487
aF0.0003541076487252125
aF0.000708215297450425
aF0.0003541076487252125
aF0.0010623229461756375
aF0.0017705382436260624
aF0.002124645892351275
aF0.000708215297450425
aF0.0010623229461756375
aF0.002478753541076487
aF0.0003541076487252125
aF0.000708215297450425
aF0.0028328611898017
aF0.0003541076487252125
aF0.0028328611898017
aF0.0010623229461756375
aF0.0
aF0.00141643059490085
aF0.0010623229461756375
aF0.0035410764872521247
aF0.0010623229461756375
aF0.00141643059490085
aF0.00141643059490085
aF0.0017705382436260624
aF0.00141643059490085
aF0.00141643059490085
aF0.003186968838526912
aF0.002478753541076487
aF0.0010623229461756375
aF0.002124645892351275
aF0.0010623229461756375
aF0.0017705382436260624
aF0.0028328611898017
aF0.00141643059490085
aF0.002478753541076487
aF0.0035410764872521247
aF0.00424929178470255
aF0.002124645892351275
aF0.005311614730878187
asI9
(lp22
F0.2890625
aF0.1566840277777778
aF0.08463541666666667
aF0.06944444444444445
aF0.03993055555555555
aF0.03298611111111111
aF0.021701388888888888
aF0.020833333333333332
aF0.012152777777777778
aF0.015190972222222222
aF0.018229166666666668
aF0.013454861111111112
aF0.01171875
aF0.008246527777777778
aF0.0078125
aF0.008680555555555556
aF0.010850694444444444
aF0.005208333333333333
aF0.012152777777777778
aF0.0078125
aF0.004340277777777778
aF0.008246527777777778
aF0.003472222222222222
aF0.0030381944444444445
aF0.002170138888888889
aF0.009548611111111112
aF0.007378472222222222
aF0.00043402777777777775
aF0.00390625
aF0.0030381944444444445
aF0.002170138888888889
aF0.003472222222222222
aF0.00390625
aF0.0026041666666666665
aF0.006076388888888889
aF0.001736111111111111
aF0.0026041666666666665
aF0.0008680555555555555
aF0.0013020833333333333
aF0.00043402777777777775
aF0.0013020833333333333
aF0.0008680555555555555
aF0.0008680555555555555
aF0.0013020833333333333
aF0.00043402777777777775
aF0.00043402777777777775
aF0.001736111111111111
aF0.004340277777777778
aF0.0013020833333333333
aF0.00043402777777777775
aF0.0008680555555555555
aF0.0008680555555555555
aF0.0008680555555555555
aF0.00043402777777777775
aF0.0013020833333333333
aF0.0008680555555555555
aF0.005208333333333333
aF0.002170138888888889
aF0.0008680555555555555
aF0.0013020833333333333
aF0.0008680555555555555
aF0.00390625
aF0.00043402777777777775
aF0.0008680555555555555
aF0.0
aF0.0008680555555555555
aF0.0013020833333333333
aF0.0008680555555555555
aF0.00043402777777777775
aF0.0013020833333333333
aF0.001736111111111111
aF0.0026041666666666665
aF0.001736111111111111
aF0.0030381944444444445
aF0.001736111111111111
aF0.001736111111111111
aF0.0030381944444444445
aF0.0030381944444444445
aF0.0008680555555555555
aF0.00390625
aF0.002170138888888889
aF0.00390625
aF0.00390625
aF0.0008680555555555555
aF0.005642361111111111
aF0.00390625
asI10
(lp23
F0.28402366863905326
aF0.15325443786982249
aF0.09289940828402367
aF0.06568047337278106
aF0.04142011834319527
aF0.040236686390532544
aF0.028402366863905324
aF0.02485207100591716
aF0.015384615384615385
aF0.011834319526627219
aF0.013609467455621301
aF0.015384615384615385
aF0.016568047337278107
aF0.00650887573964497
aF0.008875739644970414
aF0.009467455621301775
aF0.007692307692307693
aF0.005917159763313609
aF0.009467455621301775
aF0.005917159763313609
aF0.004142011834319527
aF0.0053254437869822485
aF0.0053254437869822485
aF0.001183431952662722
aF0.001183431952662722
aF0.005917159763313609
aF0.00650887573964497
aF0.001183431952662722
aF0.0029585798816568047
aF0.0029585798816568047
aF0.001183431952662722
aF0.002366863905325444
aF0.0029585798816568047
aF0.001183431952662722
aF0.004142011834319527
aF0.000591715976331361
aF0.0029585798816568047
aF0.0
aF0.001183431952662722
aF0.001183431952662722
aF0.001183431952662722
aF0.002366863905325444
aF0.0017751479289940828
aF0.0029585798816568047
aF0.0
aF0.000591715976331361
aF0.0017751479289940828
aF0.0029585798816568047
aF0.000591715976331361
aF0.000591715976331361
aF0.0017751479289940828
aF0.0017751479289940828
aF0.000591715976331361
aF0.000591715976331361
aF0.0029585798816568047
aF0.000591715976331361
aF0.0035502958579881655
aF0.0017751479289940828
aF0.000591715976331361
aF0.001183431952662722
aF0.0
aF0.0035502958579881655
aF0.001183431952662722
aF0.001183431952662722
aF0.000591715976331361
aF0.001183431952662722
aF0.0017751479289940828
aF0.001183431952662722
aF0.0017751479289940828
aF0.000591715976331361
aF0.0017751479289940828
aF0.002366863905325444
aF0.002366863905325444
aF0.001183431952662722
aF0.0029585798816568047
aF0.0029585798816568047
aF0.0029585798816568047
aF0.001183431952662722
aF0.0017751479289940828
aF0.004142011834319527
aF0.0035502958579881655
aF0.001183431952662722
aF0.0029585798816568047
aF0.0053254437869822485
aF0.0017751479289940828
aF0.00650887573964497
asI11
(lp24
F0.28688524590163933
aF0.15797317436661698
aF0.09836065573770492
aF0.07004470938897168
aF0.03502235469448584
aF0.038748137108792845
aF0.020864381520119227
aF0.019374068554396422
aF0.02384500745156483
aF0.00894187779433681
aF0.01564828614008942
aF0.01639344262295082
aF0.010432190760059613
aF0.00819672131147541
aF0.009687034277198211
aF0.007451564828614009
aF0.007451564828614009
aF0.00819672131147541
aF0.007451564828614009
aF0.005216095380029807
aF0.0067064083457526085
aF0.0037257824143070045
aF0.0037257824143070045
aF0.0007451564828614009
aF0.0014903129657228018
aF0.0037257824143070045
aF0.004470938897168405
aF0.0
aF0.0029806259314456036
aF0.0022354694485842027
aF0.004470938897168405
aF0.005961251862891207
aF0.0007451564828614009
aF0.0037257824143070045
aF0.004470938897168405
aF0.0
aF0.0007451564828614009
aF0.0029806259314456036
aF0.0022354694485842027
aF0.0
aF0.0029806259314456036
aF0.0029806259314456036
aF0.004470938897168405
aF0.0014903129657228018
aF0.0007451564828614009
aF0.0
aF0.0037257824143070045
aF0.004470938897168405
aF0.0007451564828614009
aF0.0014903129657228018
aF0.0
aF0.0007451564828614009
aF0.0022354694485842027
aF0.0022354694485842027
aF0.0007451564828614009
aF0.0022354694485842027
aF0.0037257824143070045
aF0.0022354694485842027
aF0.0007451564828614009
aF0.0
aF0.0
aF0.0022354694485842027
aF0.0029806259314456036
aF0.0
aF0.0022354694485842027
aF0.0022354694485842027
aF0.0022354694485842027
aF0.0007451564828614009
aF0.0007451564828614009
aF0.0007451564828614009
aF0.0022354694485842027
aF0.0007451564828614009
aF0.0007451564828614009
aF0.004470938897168405
aF0.0022354694485842027
aF0.0007451564828614009
aF0.0029806259314456036
aF0.0007451564828614009
aF0.0
aF0.0029806259314456036
aF0.0029806259314456036
aF0.0022354694485842027
aF0.0007451564828614009
aF0.0029806259314456036
aF0.0022354694485842027
aF0.007451564828614009
asI12
(lp25
F0.2875
aF0.17916666666666667
aF0.0875
aF0.07083333333333333
aF0.0425
aF0.03666666666666667
aF0.029166666666666667
aF0.016666666666666666
aF0.01
aF0.01
aF0.009166666666666667
aF0.013333333333333334
aF0.008333333333333333
aF0.01
aF0.006666666666666667
aF0.009166666666666667
aF0.011666666666666667
aF0.005833333333333334
aF0.0075
aF0.005
aF0.004166666666666667
aF0.005
aF0.0025
aF0.0016666666666666668
aF0.0
aF0.008333333333333333
aF0.0075
aF0.0008333333333333334
aF0.0025
aF0.0025
aF0.0008333333333333334
aF0.0016666666666666668
aF0.0025
aF0.0025
aF0.0033333333333333335
aF0.0
aF0.0016666666666666668
aF0.0033333333333333335
aF0.0025
aF0.0
aF0.0
aF0.0025
aF0.0025
aF0.005833333333333334
aF0.0025
aF0.0016666666666666668
aF0.0016666666666666668
aF0.004166666666666667
aF0.0008333333333333334
aF0.0008333333333333334
aF0.0
aF0.0016666666666666668
aF0.0016666666666666668
aF0.0008333333333333334
aF0.0033333333333333335
aF0.0
aF0.0025
aF0.0
aF0.0008333333333333334
aF0.0016666666666666668
aF0.0
aF0.005
aF0.0008333333333333334
aF0.0
aF0.0
aF0.0016666666666666668
aF0.0008333333333333334
aF0.0008333333333333334
aF0.0025
aF0.0016666666666666668
aF0.0016666666666666668
aF0.0008333333333333334
aF0.0016666666666666668
aF0.0025
aF0.0025
aF0.0025
aF0.0016666666666666668
aF0.0033333333333333335
aF0.0016666666666666668
aF0.0033333333333333335
aF0.0025
aF0.0025
aF0.0033333333333333335
aF0.004166666666666667
aF0.0033333333333333335
aF0.004166666666666667
asI13
(lp26
F0.28865979381443296
aF0.176050753370341
aF0.08881839809674862
aF0.07216494845360824
aF0.04520222045995242
aF0.0317208564631245
aF0.03330689928628073
aF0.01823949246629659
aF0.016653449643140365
aF0.008723235527359239
aF0.012688342585249802
aF0.00951625693893735
aF0.012688342585249802
aF0.007930214115781126
aF0.0031720856463124504
aF0.008723235527359239
aF0.010309278350515464
aF0.004758128469468675
aF0.0055511498810467885
aF0.0055511498810467885
aF0.006344171292624901
aF0.004758128469468675
aF0.0023790642347343376
aF0.0015860428231562252
aF0.0023790642347343376
aF0.0023790642347343376
aF0.0015860428231562252
aF0.0007930214115781126
aF0.0015860428231562252
aF0.003965107057890563
aF0.0007930214115781126
aF0.004758128469468675
aF0.0007930214115781126
aF0.004758128469468675
aF0.006344171292624901
aF0.0015860428231562252
aF0.0015860428231562252
aF0.003965107057890563
aF0.0007930214115781126
aF0.0007930214115781126
aF0.0015860428231562252
aF0.0007930214115781126
aF0.003965107057890563
aF0.0007930214115781126
aF0.0
aF0.0
aF0.0007930214115781126
aF0.004758128469468675
aF0.0
aF0.0015860428231562252
aF0.0007930214115781126
aF0.0
aF0.0015860428231562252
aF0.003965107057890563
aF0.0031720856463124504
aF0.0
aF0.0031720856463124504
aF0.0015860428231562252
aF0.0
aF0.0015860428231562252
aF0.0023790642347343376
aF0.003965107057890563
aF0.0023790642347343376
aF0.0015860428231562252
aF0.0007930214115781126
aF0.0007930214115781126
aF0.0015860428231562252
aF0.0015860428231562252
aF0.003965107057890563
aF0.0007930214115781126
aF0.0023790642347343376
aF0.0007930214115781126
aF0.0015860428231562252
aF0.0015860428231562252
aF0.0007930214115781126
aF0.0015860428231562252
aF0.0007930214115781126
aF0.0015860428231562252
aF0.0015860428231562252
aF0.0015860428231562252
aF0.0023790642347343376
aF0.0007930214115781126
aF0.0007930214115781126
aF0.003965107057890563
aF0.0055511498810467885
aF0.007930214115781126
asI14
(lp27
F0.30335097001763667
aF0.15873015873015872
aF0.09523809523809523
aF0.05555555555555555
aF0.05026455026455026
aF0.04409171075837742
aF0.027336860670194002
aF0.02292768959435626
aF0.019400352733686066
aF0.014109347442680775
aF0.010582010582010581
aF0.007054673721340388
aF0.007936507936507936
aF0.01146384479717813
aF0.006172839506172839
aF0.006172839506172839
aF0.014109347442680775
aF0.007054673721340388
aF0.010582010582010581
aF0.0008818342151675485
aF0.003527336860670194
aF0.003527336860670194
aF0.007054673721340388
aF0.0
aF0.001763668430335097
aF0.0026455026455026454
aF0.005291005291005291
aF0.0
aF0.007054673721340388
aF0.0026455026455026454
aF0.0008818342151675485
aF0.003527336860670194
aF0.004409171075837742
aF0.004409171075837742
aF0.005291005291005291
aF0.001763668430335097
aF0.003527336860670194
aF0.003527336860670194
aF0.0008818342151675485
aF0.0
aF0.001763668430335097
aF0.0
aF0.0026455026455026454
aF0.0026455026455026454
aF0.0
aF0.0
aF0.001763668430335097
aF0.001763668430335097
aF0.001763668430335097
aF0.0
aF0.0008818342151675485
aF0.0
aF0.005291005291005291
aF0.001763668430335097
aF0.0008818342151675485
aF0.0
aF0.0008818342151675485
aF0.001763668430335097
aF0.0
aF0.0
aF0.0
aF0.003527336860670194
aF0.0008818342151675485
aF0.0026455026455026454
aF0.0
aF0.0008818342151675485
aF0.0026455026455026454
aF0.0026455026455026454
aF0.0008818342151675485
aF0.0
aF0.0
aF0.0
aF0.0
aF0.001763668430335097
aF0.0
aF0.0026455026455026454
aF0.0008818342151675485
aF0.005291005291005291
aF0.0026455026455026454
aF0.003527336860670194
aF0.0008818342151675485
aF0.001763668430335097
aF0.001763668430335097
aF0.0026455026455026454
aF0.0
aF0.003527336860670194
asI15
(lp28
F0.27011494252873564
aF0.1482758620689655
aF0.10574712643678161
aF0.07471264367816093
aF0.041379310344827586
aF0.04482758620689655
aF0.03103448275862069
aF0.03218390804597701
aF0.016091954022988506
aF0.011494252873563218
aF0.01839080459770115
aF0.010344827586206896
aF0.011494252873563218
aF0.009195402298850575
aF0.008045977011494253
aF0.004597701149425287
aF0.01264367816091954
aF0.004597701149425287
aF0.006896551724137931
aF0.005747126436781609
aF0.005747126436781609
aF0.004597701149425287
aF0.0011494252873563218
aF0.0034482758620689655
aF0.0
aF0.004597701149425287
aF0.005747126436781609
aF0.0
aF0.0034482758620689655
aF0.0022988505747126436
aF0.0
aF0.0011494252873563218
aF0.0034482758620689655
aF0.004597701149425287
aF0.0034482758620689655
aF0.0
aF0.0022988505747126436
aF0.0
aF0.0
aF0.0
aF0.0011494252873563218
aF0.0022988505747126436
aF0.0
aF0.0034482758620689655
aF0.0
aF0.0
aF0.0022988505747126436
aF0.004597701149425287
aF0.0011494252873563218
aF0.0022988505747126436
aF0.0
aF0.0
aF0.0
aF0.0011494252873563218
aF0.0011494252873563218
aF0.0011494252873563218
aF0.0034482758620689655
aF0.0011494252873563218
aF0.0034482758620689655
aF0.0011494252873563218
aF0.0022988505747126436
aF0.004597701149425287
aF0.0011494252873563218
aF0.0011494252873563218
aF0.0022988505747126436
aF0.0011494252873563218
aF0.0022988505747126436
aF0.0011494252873563218
aF0.0011494252873563218
aF0.0011494252873563218
aF0.0
aF0.0011494252873563218
aF0.0022988505747126436
aF0.005747126436781609
aF0.0
aF0.0022988505747126436
aF0.0011494252873563218
aF0.0011494252873563218
aF0.0034482758620689655
aF0.0
aF0.004597701149425287
aF0.0022988505747126436
aF0.0011494252873563218
aF0.005747126436781609
aF0.0
aF0.006896551724137931
asI16
(lp29
F0.2777777777777778
aF0.15694444444444444
aF0.13194444444444445
aF0.0625
aF0.04861111111111111
aF0.04583333333333333
aF0.02638888888888889
aF0.015277777777777777
aF0.015277777777777777
aF0.016666666666666666
aF0.013888888888888888
aF0.018055555555555554
aF0.011111111111111112
aF0.011111111111111112
aF0.009722222222222222
aF0.005555555555555556
aF0.013888888888888888
aF0.005555555555555556
aF0.008333333333333333
aF0.001388888888888889
aF0.0
aF0.001388888888888889
aF0.0
aF0.002777777777777778
aF0.0
aF0.002777777777777778
aF0.008333333333333333
aF0.001388888888888889
aF0.001388888888888889
aF0.002777777777777778
aF0.0
aF0.001388888888888889
aF0.004166666666666667
aF0.004166666666666667
aF0.001388888888888889
aF0.0
aF0.001388888888888889
aF0.004166666666666667
aF0.0
aF0.0
aF0.002777777777777778
aF0.001388888888888889
aF0.0
aF0.0
aF0.0
aF0.0
aF0.0
aF0.001388888888888889
aF0.001388888888888889
aF0.001388888888888889
aF0.001388888888888889
aF0.002777777777777778
aF0.0
aF0.002777777777777778
aF0.001388888888888889
aF0.001388888888888889
aF0.001388888888888889
aF0.002777777777777778
aF0.0
aF0.001388888888888889
aF0.0
aF0.006944444444444444
aF0.002777777777777778
aF0.0
aF0.0
aF0.0
aF0.002777777777777778
aF0.0
aF0.001388888888888889
aF0.001388888888888889
aF0.004166666666666667
aF0.0
aF0.001388888888888889
aF0.002777777777777778
aF0.001388888888888889
aF0.001388888888888889
aF0.001388888888888889
aF0.001388888888888889
aF0.0
aF0.0
aF0.0
aF0.001388888888888889
aF0.001388888888888889
aF0.001388888888888889
aF0.002777777777777778
aF0.006944444444444444
asI17
(lp30
F0.28027681660899656
aF0.15916955017301038
aF0.10207612456747404
aF0.07439446366782007
aF0.04498269896193772
aF0.04498269896193772
aF0.031141868512110725
aF0.025951557093425604
aF0.02249134948096886
aF0.01384083044982699
aF0.006920415224913495
aF0.012110726643598616
aF0.012110726643598616
aF0.012110726643598616
aF0.006920415224913495
aF0.00865051903114187
aF0.00865051903114187
aF0.005190311418685121
aF0.010380622837370242
aF0.0034602076124567475
aF0.0
aF0.005190311418685121
aF0.0034602076124567475
aF0.0
aF0.0
aF0.0034602076124567475
aF0.006920415224913495
aF0.0
aF0.005190311418685121
aF0.0
aF0.0017301038062283738
aF0.0034602076124567475
aF0.0
aF0.0034602076124567475
aF0.0034602076124567475
aF0.0
aF0.0
aF0.0034602076124567475
aF0.0
aF0.0
aF0.0
aF0.006920415224913495
aF0.0
aF0.0
aF0.0
aF0.0
aF0.0017301038062283738
aF0.0034602076124567475
aF0.0
aF0.0
aF0.0017301038062283738
aF0.0
aF0.0034602076124567475
aF0.0
aF0.0017301038062283738
aF0.0017301038062283738
aF0.0017301038062283738
aF0.0
aF0.0017301038062283738
aF0.0
aF0.0
aF0.0034602076124567475
aF0.0017301038062283738
aF0.0
aF0.0
aF0.0
aF0.0017301038062283738
aF0.0
aF0.0017301038062283738
aF0.0017301038062283738
aF0.0034602076124567475
aF0.0034602076124567475
aF0.0017301038062283738
aF0.0034602076124567475
aF0.0017301038062283738
aF0.0034602076124567475
aF0.0017301038062283738
aF0.0017301038062283738
aF0.0017301038062283738
aF0.0034602076124567475
aF0.0034602076124567475
aF0.0034602076124567475
aF0.0034602076124567475
aF0.0017301038062283738
aF0.0
aF0.0017301038062283738
asI18
(lp31
F0.2549019607843137
aF0.14052287581699346
aF0.1111111111111111
aF0.08169934640522876
aF0.06045751633986928
aF0.04411764705882353
aF0.032679738562091505
aF0.026143790849673203
aF0.016339869281045753
aF0.017973856209150325
aF0.017973856209150325
aF0.011437908496732025
aF0.006535947712418301
aF0.006535947712418301
aF0.008169934640522876
aF0.0032679738562091504
aF0.00980392156862745
aF0.004901960784313725
aF0.014705882352941176
aF0.004901960784313725
aF0.0
aF0.0016339869281045752
aF0.0032679738562091504
aF0.0
aF0.0016339869281045752
aF0.004901960784313725
aF0.0032679738562091504
aF0.0016339869281045752
aF0.0016339869281045752
aF0.0
aF0.0032679738562091504
aF0.006535947712418301
aF0.0016339869281045752
aF0.004901960784313725
aF0.0016339869281045752
aF0.0
aF0.008169934640522876
aF0.0016339869281045752
aF0.0016339869281045752
aF0.0
aF0.0016339869281045752
aF0.0016339869281045752
aF0.0
aF0.006535947712418301
aF0.0016339869281045752
aF0.0016339869281045752
aF0.0016339869281045752
aF0.0
aF0.0
aF0.0016339869281045752
aF0.0
aF0.0032679738562091504
aF0.0016339869281045752
aF0.004901960784313725
aF0.0
aF0.0016339869281045752
aF0.0032679738562091504
aF0.0
aF0.0
aF0.0016339869281045752
aF0.0
aF0.0016339869281045752
aF0.0
aF0.0
aF0.0
aF0.0
aF0.0032679738562091504
aF0.0
aF0.0016339869281045752
aF0.0
aF0.0016339869281045752
aF0.0032679738562091504
aF0.0016339869281045752
aF0.0016339869281045752
aF0.0016339869281045752
aF0.0016339869281045752
aF0.0032679738562091504
aF0.0
aF0.0016339869281045752
aF0.0
aF0.004901960784313725
aF0.0016339869281045752
aF0.0016339869281045752
aF0.0032679738562091504
aF0.008169934640522876
aF0.0032679738562091504
asI19
(lp32
F0.26869806094182824
aF0.1772853185595568
aF0.09002770083102493
aF0.06371191135734072
aF0.045706371191135735
aF0.038781163434903045
aF0.03462603878116344
aF0.018005540166204988
aF0.013850415512465374
aF0.019390581717451522
aF0.018005540166204988
aF0.0221606648199446
aF0.015235457063711912
aF0.013850415512465374
aF0.006925207756232687
aF0.008310249307479225
aF0.008310249307479225
aF0.0013850415512465374
aF0.0013850415512465374
aF0.0013850415512465374
aF0.0013850415512465374
aF0.002770083102493075
aF0.002770083102493075
aF0.002770083102493075
aF0.0013850415512465374
aF0.006925207756232687
aF0.008310249307479225
aF0.0
aF0.002770083102493075
aF0.0013850415512465374
aF0.0
aF0.0
aF0.00554016620498615
aF0.0013850415512465374
aF0.00554016620498615
aF0.0
aF0.0013850415512465374
aF0.0
aF0.0013850415512465374
aF0.002770083102493075
aF0.0013850415512465374
aF0.0
aF0.0013850415512465374
aF0.0013850415512465374
aF0.0013850415512465374
aF0.0
aF0.0
aF0.0013850415512465374
aF0.0
aF0.0
aF0.0
aF0.002770083102493075
aF0.004155124653739612
aF0.0013850415512465374
aF0.0013850415512465374
aF0.0
aF0.009695290858725761
aF0.0013850415512465374
aF0.0
aF0.0
aF0.0013850415512465374
aF0.002770083102493075
aF0.0013850415512465374
aF0.0
aF0.0
aF0.002770083102493075
aF0.0
aF0.00554016620498615
aF0.0013850415512465374
aF0.0013850415512465374
aF0.002770083102493075
aF0.0013850415512465374
aF0.0013850415512465374
aF0.002770083102493075
aF0.002770083102493075
aF0.0013850415512465374
aF0.00554016620498615
aF0.002770083102493075
aF0.0
aF0.002770083102493075
aF0.002770083102493075
aF0.0
aF0.002770083102493075
aF0.00554016620498615
aF0.002770083102493075
aF0.002770083102493075
asI20
(lp33
F0.2692307692307692
aF0.17307692307692307
aF0.11538461538461539
aF0.06153846153846154
aF0.05961538461538462
aF0.046153846153846156
aF0.023076923076923078
aF0.019230769230769232
aF0.021153846153846155
aF0.013461538461538462
aF0.011538461538461539
aF0.015384615384615385
aF0.007692307692307693
aF0.007692307692307693
aF0.0057692307692307696
aF0.0057692307692307696
aF0.0019230769230769232
aF0.011538461538461539
aF0.0019230769230769232
aF0.0057692307692307696
aF0.0019230769230769232
aF0.0057692307692307696
aF0.0
aF0.0
aF0.0019230769230769232
aF0.0057692307692307696
aF0.009615384615384616
aF0.0019230769230769232
aF0.0057692307692307696
aF0.0
aF0.0019230769230769232
aF0.0
aF0.0019230769230769232
aF0.0038461538461538464
aF0.0038461538461538464
aF0.0
aF0.0019230769230769232
aF0.0
aF0.0019230769230769232
aF0.0
aF0.0038461538461538464
aF0.0019230769230769232
aF0.0019230769230769232
aF0.0
aF0.0
aF0.0
aF0.0
aF0.0
aF0.0038461538461538464
aF0.0019230769230769232
aF0.0
aF0.0
aF0.0
aF0.0019230769230769232
aF0.0038461538461538464
aF0.0
aF0.0019230769230769232
aF0.007692307692307693
aF0.0
aF0.0
aF0.0019230769230769232
aF0.0038461538461538464
aF0.0
aF0.0
aF0.0
aF0.0
aF0.0
aF0.0
aF0.0019230769230769232
aF0.0
aF0.0019230769230769232
aF0.0
aF0.0
aF0.0019230769230769232
aF0.0
aF0.0057692307692307696
aF0.0038461538461538464
aF0.0
aF0.0038461538461538464
aF0.0019230769230769232
aF0.0
aF0.0019230769230769232
aF0.007692307692307693
aF0.0019230769230769232
aF0.0019230769230769232
aF0.0057692307692307696
asI21
(lp34
F0.29831932773109243
aF0.15126050420168066
aF0.10084033613445378
aF0.07282913165266107
aF0.037815126050420166
aF0.04341736694677871
aF0.0392156862745098
aF0.022408963585434174
aF0.014005602240896359
aF0.012605042016806723
aF0.00980392156862745
aF0.01680672268907563
aF0.008403361344537815
aF0.008403361344537815
aF0.008403361344537815
aF0.012605042016806723
aF0.0014005602240896359
aF0.0014005602240896359
aF0.011204481792717087
aF0.008403361344537815
aF0.0028011204481792717
aF0.004201680672268907
aF0.0056022408963585435
aF0.0
aF0.0
aF0.0070028011204481795
aF0.0070028011204481795
aF0.0028011204481792717
aF0.004201680672268907
aF0.0014005602240896359
aF0.0028011204481792717
aF0.004201680672268907
aF0.004201680672268907
aF0.004201680672268907
aF0.004201680672268907
aF0.0
aF0.0
aF0.004201680672268907
aF0.0
aF0.0
aF0.0
aF0.0028011204481792717
aF0.0056022408963585435
aF0.0028011204481792717
aF0.0
aF0.0
aF0.0
aF0.0
aF0.0
aF0.0
aF0.0
aF0.0028011204481792717
aF0.0
aF0.0014005602240896359
aF0.0
aF0.0014005602240896359
aF0.0028011204481792717
aF0.0028011204481792717
aF0.0028011204481792717
aF0.0014005602240896359
aF0.0014005602240896359
aF0.0
aF0.0014005602240896359
aF0.0014005602240896359
aF0.0
aF0.0
aF0.0
aF0.0028011204481792717
aF0.0
aF0.0014005602240896359
aF0.0
aF0.0
aF0.0014005602240896359
aF0.004201680672268907
aF0.0028011204481792717
aF0.0
aF0.0
aF0.0014005602240896359
aF0.0
aF0.0014005602240896359
aF0.0
aF0.0028011204481792717
aF0.0028011204481792717
aF0.0028011204481792717
aF0.0028011204481792717
aF0.004201680672268907
asI22
(lp35
F0.25
aF0.1590909090909091
aF0.125
aF0.07954545454545454
aF0.06136363636363636
aF0.02727272727272727
aF0.04090909090909091
aF0.022727272727272728
aF0.015909090909090907
aF0.013636363636363636
aF0.015909090909090907
aF0.0022727272727272726
aF0.011363636363636364
aF0.0022727272727272726
aF0.004545454545454545
aF0.006818181818181818
aF0.0022727272727272726
aF0.006818181818181818
aF0.013636363636363636
aF0.00909090909090909
aF0.013636363636363636
aF0.0022727272727272726
aF0.0022727272727272726
aF0.0
aF0.0022727272727272726
aF0.011363636363636364
aF0.00909090909090909
aF0.0
aF0.0022727272727272726
aF0.0
aF0.0
aF0.0
aF0.004545454545454545
aF0.004545454545454545
aF0.004545454545454545
aF0.0022727272727272726
aF0.004545454545454545
aF0.004545454545454545
aF0.0022727272727272726
aF0.0
aF0.0022727272727272726
aF0.0022727272727272726
aF0.0
aF0.0
aF0.0
aF0.0
aF0.0
aF0.006818181818181818
aF0.0
aF0.0
aF0.0
aF0.0
aF0.0022727272727272726
aF0.0
aF0.0022727272727272726
aF0.0
aF0.0
aF0.0022727272727272726
aF0.0
aF0.0022727272727272726
aF0.0
aF0.0
aF0.0
aF0.0
aF0.0
aF0.0
aF0.0
aF0.0022727272727272726
aF0.0
aF0.0
aF0.0
aF0.0022727272727272726
aF0.0
aF0.006818181818181818
aF0.0
aF0.0022727272727272726
aF0.0
aF0.0022727272727272726
aF0.0
aF0.0022727272727272726
aF0.004545454545454545
aF0.0
aF0.0
aF0.004545454545454545
aF0.004545454545454545
aF0.006818181818181818
asI23
(lp36
F0.28405797101449276
aF0.17681159420289855
aF0.1246376811594203
aF0.04927536231884058
aF0.06376811594202898
aF0.034782608695652174
aF0.028985507246376812
aF0.020289855072463767
aF0.02608695652173913
aF0.014492753623188406
aF0.02318840579710145
aF0.011594202898550725
aF0.014492753623188406
aF0.0
aF0.0
aF0.0
aF0.002898550724637681
aF0.002898550724637681
aF0.005797101449275362
aF0.017391304347826087
aF0.0
aF0.0
aF0.002898550724637681
aF0.0
aF0.0
aF0.005797101449275362
aF0.002898550724637681
aF0.0
aF0.002898550724637681
aF0.0
aF0.002898550724637681
aF0.0
aF0.002898550724637681
aF0.005797101449275362
aF0.0
aF0.0
aF0.005797101449275362
aF0.005797101449275362
aF0.0
aF0.0
aF0.002898550724637681
aF0.0
aF0.0
aF0.0
aF0.0
aF0.0
aF0.002898550724637681
aF0.0
aF0.0
aF0.0
aF0.0
aF0.0
aF0.002898550724637681
aF0.0
aF0.002898550724637681
aF0.0
aF0.005797101449275362
aF0.0
aF0.0
aF0.0
aF0.0
aF0.008695652173913044
aF0.002898550724637681
aF0.0
aF0.0
aF0.002898550724637681
aF0.0
aF0.0
aF0.0
aF0.002898550724637681
aF0.0
aF0.0
aF0.002898550724637681
aF0.0
aF0.0
aF0.002898550724637681
aF0.005797101449275362
aF0.002898550724637681
aF0.0
aF0.0
aF0.0
aF0.0
aF0.0
aF0.0
aF0.005797101449275362
aF0.005797101449275362
asI24
(lp37
F0.2708333333333333
aF0.18229166666666666
aF0.09635416666666667
aF0.07552083333333333
aF0.044270833333333336
aF0.041666666666666664
aF0.049479166666666664
aF0.0234375
aF0.013020833333333334
aF0.015625
aF0.015625
aF0.010416666666666666
aF0.010416666666666666
aF0.0026041666666666665
aF0.0078125
aF0.0026041666666666665
aF0.005208333333333333
aF0.0078125
aF0.0078125
aF0.0026041666666666665
aF0.0
aF0.0
aF0.0
aF0.0
aF0.0
aF0.005208333333333333
aF0.0078125
aF0.0
aF0.0026041666666666665
aF0.0
aF0.0026041666666666665
aF0.0026041666666666665
aF0.005208333333333333
aF0.005208333333333333
aF0.005208333333333333
aF0.0026041666666666665
aF0.0
aF0.0
aF0.0
aF0.0
aF0.0026041666666666665
aF0.0026041666666666665
aF0.0
aF0.0026041666666666665
aF0.0026041666666666665
aF0.0
aF0.0
aF0.0
aF0.0078125
aF0.0
aF0.0
aF0.0026041666666666665
aF0.0026041666666666665
aF0.0
aF0.005208333333333333
aF0.0
aF0.0
aF0.0
aF0.0
aF0.0
aF0.0
aF0.0
aF0.0026041666666666665
aF0.0
aF0.0
aF0.0
aF0.005208333333333333
aF0.0026041666666666665
aF0.0
aF0.0
aF0.0
aF0.0026041666666666665
aF0.0026041666666666665
aF0.005208333333333333
aF0.0
aF0.0026041666666666665
aF0.0
aF0.0
aF0.0026041666666666665
aF0.0
aF0.0
aF0.005208333333333333
aF0.0
aF0.0078125
aF0.005208333333333333
aF0.0026041666666666665
asI25
(lp38
F0.28363636363636363
aF0.14909090909090908
aF0.10909090909090909
aF0.08
aF0.04363636363636364
aF0.05090909090909091
aF0.02909090909090909
aF0.03272727272727273
aF0.01818181818181818
aF0.01090909090909091
aF0.01090909090909091
aF0.02909090909090909
aF0.0036363636363636364
aF0.0
aF0.007272727272727273
aF0.007272727272727273
aF0.007272727272727273
aF0.0
aF0.014545454545454545
aF0.0036363636363636364
aF0.0036363636363636364
aF0.0
aF0.007272727272727273
aF0.0
aF0.0
aF0.0036363636363636364
aF0.01090909090909091
aF0.0036363636363636364
aF0.0
aF0.0
aF0.0
aF0.0
aF0.007272727272727273
aF0.0
aF0.0
aF0.0
aF0.0
aF0.0
aF0.0
aF0.0
aF0.0036363636363636364
aF0.0
aF0.0
aF0.0
aF0.0
aF0.0
aF0.0
aF0.0
aF0.0
aF0.0
aF0.0036363636363636364
aF0.0
aF0.0
aF0.0036363636363636364
aF0.0
aF0.0
aF0.0036363636363636364
aF0.0036363636363636364
aF0.0
aF0.0
aF0.0036363636363636364
aF0.007272727272727273
aF0.0
aF0.0
aF0.0
aF0.0
aF0.0
aF0.0
aF0.0
aF0.0
aF0.0
aF0.0
aF0.0
aF0.0036363636363636364
aF0.0
aF0.0
aF0.0
aF0.007272727272727273
aF0.0
aF0.0036363636363636364
aF0.0
aF0.007272727272727273
aF0.0036363636363636364
aF0.0036363636363636364
aF0.01090909090909091
aF0.0036363636363636364
asI26
(lp39
F0.34615384615384615
aF0.16923076923076924
aF0.06153846153846154
aF0.038461538461538464
aF0.046153846153846156
aF0.05384615384615385
aF0.05384615384615385
aF0.015384615384615385
aF0.007692307692307693
aF0.015384615384615385
aF0.015384615384615385
aF0.0
aF0.023076923076923078
aF0.015384615384615385
aF0.0
aF0.0
aF0.015384615384615385
aF0.0
aF0.0
aF0.0
aF0.0
aF0.0
aF0.0
aF0.0
aF0.0
aF0.007692307692307693
aF0.007692307692307693
aF0.007692307692307693
aF0.0
aF0.0
aF0.0
aF0.007692307692307693
aF0.007692307692307693
aF0.0
aF0.007692307692307693
aF0.0
aF0.007692307692307693
aF0.007692307692307693
aF0.0
aF0.0
aF0.0
aF0.007692307692307693
aF0.0
aF0.0
aF0.0
aF0.0
aF0.0
aF0.0
aF0.0
aF0.0
aF0.0
aF0.0
aF0.0
aF0.007692307692307693
aF0.0
aF0.0
aF0.0
aF0.0
aF0.0
aF0.0
aF0.0
aF0.007692307692307693
aF0.0
aF0.0
aF0.007692307692307693
aF0.0
aF0.0
aF0.0
aF0.0
aF0.0
aF0.0
aF0.0
aF0.0
aF0.0
aF0.0
aF0.0
aF0.0
aF0.0
aF0.007692307692307693
aF0.0
aF0.0
aF0.0
aF0.0
aF0.0
aF0.007692307692307693
aF0.015384615384615385
asI27
(lp40
F0.24074074074074073
aF0.18518518518518517
aF0.1388888888888889
aF0.1111111111111111
aF0.06481481481481481
aF0.027777777777777776
aF0.046296296296296294
aF0.018518518518518517
aF0.018518518518518517
aF0.0
aF0.027777777777777776
aF0.018518518518518517
aF0.0
aF0.0
aF0.0
aF0.009259259259259259
aF0.009259259259259259
aF0.009259259259259259
aF0.0
aF0.009259259259259259
aF0.0
aF0.0
aF0.0
aF0.0
aF0.0
aF0.0
aF0.0
aF0.0
aF0.0
aF0.0
aF0.0
aF0.0
aF0.009259259259259259
aF0.0
aF0.0
aF0.0
aF0.0
aF0.009259259259259259
aF0.0
aF0.0
aF0.0
aF0.0
aF0.0
aF0.0
aF0.0
aF0.0
aF0.0
aF0.0
aF0.0
aF0.0
aF0.0
aF0.0
aF0.0
aF0.0
aF0.0
aF0.0
aF0.0
aF0.0
aF0.0
aF0.0
aF0.0
aF0.0
aF0.0
aF0.0
aF0.0
aF0.0
aF0.0
aF0.0
aF0.009259259259259259
aF0.0
aF0.0
aF0.0
aF0.0
aF0.0
aF0.0
aF0.0
aF0.0
aF0.009259259259259259
aF0.0
aF0.0
aF0.018518518518518517
aF0.0
aF0.0
aF0.0
aF0.0
aF0.009259259259259259
asI28
(lp41
F0.24489795918367346
aF0.13520408163265307
aF0.11224489795918367
aF0.07142857142857142
aF0.05102040816326531
aF0.058673469387755105
aF0.05612244897959184
aF0.025510204081632654
aF0.012755102040816327
aF0.025510204081632654
aF0.007653061224489796
aF0.007653061224489796
aF0.01020408163265306
aF0.00510204081632653
aF0.00510204081632653
aF0.007653061224489796
aF0.012755102040816327
aF0.007653061224489796
aF0.012755102040816327
aF0.012755102040816327
aF0.00510204081632653
aF0.00510204081632653
aF0.002551020408163265
aF0.002551020408163265
aF0.0
aF0.0
aF0.00510204081632653
aF0.0
aF0.002551020408163265
aF0.0
aF0.002551020408163265
aF0.002551020408163265
aF0.00510204081632653
aF0.002551020408163265
aF0.002551020408163265
aF0.0
aF0.0
aF0.002551020408163265
aF0.0
aF0.0
aF0.00510204081632653
aF0.0
aF0.002551020408163265
aF0.00510204081632653
aF0.0
aF0.00510204081632653
aF0.002551020408163265
aF0.002551020408163265
aF0.0
aF0.0
aF0.0
aF0.0
aF0.0
aF0.0
aF0.002551020408163265
aF0.0
aF0.00510204081632653
aF0.002551020408163265
aF0.0
aF0.0
aF0.0
aF0.002551020408163265
aF0.0
aF0.002551020408163265
aF0.002551020408163265
aF0.0
aF0.0
aF0.0
aF0.002551020408163265
aF0.0
aF0.002551020408163265
aF0.002551020408163265
aF0.0
aF0.01020408163265306
aF0.0
aF0.002551020408163265
aF0.002551020408163265
aF0.0
aF0.0
aF0.0
aF0.0
aF0.0
aF0.002551020408163265
aF0.002551020408163265
aF0.002551020408163265
aF0.00510204081632653
asI29
(lp42
F0.2650862068965517
aF0.1400862068965517
aF0.11637931034482758
aF0.07543103448275862
aF0.05172413793103448
aF0.034482758620689655
aF0.036637931034482756
aF0.023706896551724137
aF0.01293103448275862
aF0.01939655172413793
aF0.004310344827586207
aF0.01293103448275862
aF0.010775862068965518
aF0.01293103448275862
aF0.008620689655172414
aF0.004310344827586207
aF0.01293103448275862
aF0.010775862068965518
aF0.010775862068965518
aF0.008620689655172414
aF0.0021551724137931034
aF0.00646551724137931
aF0.00646551724137931
aF0.0021551724137931034
aF0.0
aF0.004310344827586207
aF0.01293103448275862
aF0.0021551724137931034
aF0.0
aF0.0021551724137931034
aF0.0021551724137931034
aF0.0
aF0.00646551724137931
aF0.0
aF0.0021551724137931034
aF0.004310344827586207
aF0.0021551724137931034
aF0.0
aF0.0
aF0.0
aF0.004310344827586207
aF0.004310344827586207
aF0.0021551724137931034
aF0.004310344827586207
aF0.0
aF0.0021551724137931034
aF0.0
aF0.0021551724137931034
aF0.0
aF0.0
aF0.004310344827586207
aF0.0
aF0.0
aF0.00646551724137931
aF0.0021551724137931034
aF0.0
aF0.004310344827586207
aF0.0
aF0.0
aF0.0
aF0.0
aF0.0021551724137931034
aF0.0
aF0.0021551724137931034
aF0.0
aF0.0
aF0.0021551724137931034
aF0.0021551724137931034
aF0.0
aF0.0
aF0.0021551724137931034
aF0.0021551724137931034
aF0.0
aF0.004310344827586207
aF0.0021551724137931034
aF0.0
aF0.0
aF0.0
aF0.0
aF0.0
aF0.00646551724137931
aF0.0021551724137931034
aF0.0
aF0.0021551724137931034
aF0.0021551724137931034
aF0.0021551724137931034
asI30
(lp43
F0.2833333333333333
aF0.1
aF0.11666666666666667
aF0.08333333333333333
aF0.06666666666666667
aF0.03333333333333333
aF0.016666666666666666
aF0.03333333333333333
aF0.0
aF0.016666666666666666
aF0.016666666666666666
aF0.0
aF0.0
aF0.016666666666666666
aF0.0
aF0.016666666666666666
aF0.0
aF0.016666666666666666
aF0.03333333333333333
aF0.0
aF0.0
aF0.0
aF0.016666666666666666
aF0.016666666666666666
aF0.0
aF0.0
aF0.016666666666666666
aF0.0
aF0.0
aF0.016666666666666666
aF0.0
aF0.0
aF0.0
aF0.0
aF0.0
aF0.0
aF0.0
aF0.0
aF0.0
aF0.0
aF0.0
aF0.0
aF0.0
aF0.0
aF0.0
aF0.0
aF0.0
aF0.0
aF0.0
aF0.0
aF0.0
aF0.0
aF0.0
aF0.0
aF0.0
aF0.0
aF0.0
aF0.0
aF0.0
aF0.0
aF0.0
aF0.0
aF0.0
aF0.0
aF0.0
aF0.0
aF0.0
aF0.0
aF0.0
aF0.0
aF0.0
aF0.0
aF0.0
aF0.0
aF0.0
aF0.0
aF0.0
aF0.0
aF0.016666666666666666
aF0.0
aF0.0
aF0.03333333333333333
aF0.016666666666666666
aF0.0
aF0.016666666666666666
aF0.0
asI31
(lp44
F0.24423963133640553
aF0.14746543778801843
aF0.1152073732718894
aF0.07373271889400922
aF0.055299539170506916
aF0.03225806451612903
aF0.041474654377880185
aF0.02304147465437788
aF0.018433179723502304
aF0.013824884792626729
aF0.009216589861751152
aF0.03686635944700461
aF0.013824884792626729
aF0.004608294930875576
aF0.013824884792626729
aF0.004608294930875576
aF0.009216589861751152
aF0.013824884792626729
aF0.013824884792626729
aF0.004608294930875576
aF0.004608294930875576
aF0.004608294930875576
aF0.0
aF0.0
aF0.0
aF0.004608294930875576
aF0.0
aF0.0
aF0.0
aF0.0
aF0.0
aF0.004608294930875576
aF0.0
aF0.0
aF0.0
aF0.004608294930875576
aF0.004608294930875576
aF0.0
aF0.0
aF0.0
aF0.004608294930875576
aF0.0
aF0.0
aF0.0
aF0.0
aF0.0
aF0.004608294930875576
aF0.004608294930875576
aF0.0
aF0.0
aF0.004608294930875576
aF0.004608294930875576
aF0.0
aF0.0
aF0.009216589861751152
aF0.0
aF0.004608294930875576
aF0.004608294930875576
aF0.0
aF0.004608294930875576
aF0.004608294930875576
aF0.0
aF0.004608294930875576
aF0.0
aF0.004608294930875576
aF0.0
aF0.0
aF0.0
aF0.0
aF0.0
aF0.0
aF0.0
aF0.004608294930875576
aF0.004608294930875576
aF0.0
aF0.0
aF0.004608294930875576
aF0.0
aF0.0
aF0.0
aF0.0
aF0.004608294930875576
aF0.0
aF0.0
aF0.0
aF0.004608294930875576
asI32
(lp45
F0.2578125
aF0.140625
aF0.1015625
aF0.0625
aF0.03125
aF0.0546875
aF0.0546875
aF0.0390625
aF0.0234375
aF0.0234375
aF0.0390625
aF0.0234375
aF0.015625
aF0.015625
aF0.0
aF0.0
aF0.0078125
aF0.0
aF0.0078125
aF0.0
aF0.0
aF0.0
aF0.0
aF0.0
aF0.0
aF0.0
aF0.0078125
aF0.0078125
aF0.0
aF0.0
aF0.0
aF0.0
aF0.0
aF0.0078125
aF0.0
aF0.0
aF0.0
aF0.0
aF0.0
aF0.015625
aF0.0
aF0.0078125
aF0.0
aF0.0
aF0.0
aF0.0
aF0.0
aF0.0
aF0.0
aF0.0
aF0.0
aF0.0
aF0.0
aF0.0
aF0.0
aF0.0
aF0.0078125
aF0.0
aF0.0
aF0.0
aF0.0078125
aF0.0
aF0.0
aF0.0
aF0.0
aF0.0
aF0.0
aF0.0078125
aF0.0
aF0.0
aF0.0078125
aF0.0
aF0.0
aF0.0
aF0.0
aF0.0
aF0.0
aF0.0
aF0.0
aF0.0
aF0.0078125
aF0.0
aF0.0
aF0.0
aF0.015625
aF0.0
asI33
(lp46
F0.2222222222222222
aF0.1717171717171717
aF0.1111111111111111
aF0.030303030303030304
aF0.08080808080808081
aF0.030303030303030304
aF0.050505050505050504
aF0.020202020202020204
aF0.06060606060606061
aF0.010101010101010102
aF0.010101010101010102
aF0.010101010101010102
aF0.0
aF0.0
aF0.010101010101010102
aF0.020202020202020204
aF0.0
aF0.010101010101010102
aF0.020202020202020204
aF0.0
aF0.010101010101010102
aF0.010101010101010102
aF0.0
aF0.0
aF0.0
aF0.010101010101010102
aF0.010101010101010102
aF0.0
aF0.0
aF0.0
aF0.0
aF0.010101010101010102
aF0.010101010101010102
aF0.0
aF0.0
aF0.010101010101010102
aF0.010101010101010102
aF0.0
aF0.0
aF0.0
aF0.0
aF0.0
aF0.0
aF0.0
aF0.0
aF0.0
aF0.0
aF0.0
aF0.0
aF0.0
aF0.0
aF0.0
aF0.0
aF0.0
aF0.0
aF0.0
aF0.010101010101010102
aF0.0
aF0.0
aF0.0
aF0.010101010101010102
aF0.0
aF0.0
aF0.0
aF0.0
aF0.0
aF0.0
aF0.0
aF0.010101010101010102
aF0.0
aF0.0
aF0.0
aF0.0
aF0.0
aF0.0
aF0.0
aF0.0
aF0.0
aF0.0
aF0.010101010101010102
aF0.0
aF0.0
aF0.0
aF0.0
aF0.0
aF0.010101010101010102
asI34
(lp47
F0.2647058823529412
aF0.13445378151260504
aF0.10504201680672269
aF0.07983193277310924
aF0.058823529411764705
aF0.06302521008403361
aF0.03361344537815126
aF0.01680672268907563
aF0.03361344537815126
aF0.008403361344537815
aF0.025210084033613446
aF0.01680672268907563
aF0.004201680672268907
aF0.004201680672268907
aF0.008403361344537815
aF0.01680672268907563
aF0.0
aF0.0
aF0.012605042016806723
aF0.0
aF0.0
aF0.004201680672268907
aF0.0
aF0.004201680672268907
aF0.0
aF0.004201680672268907
aF0.0
aF0.0
aF0.004201680672268907
aF0.0
aF0.004201680672268907
aF0.0
aF0.0
aF0.008403361344537815
aF0.004201680672268907
aF0.0
aF0.0
aF0.004201680672268907
aF0.0
aF0.0
aF0.0
aF0.0
aF0.0
aF0.0
aF0.004201680672268907
aF0.0
aF0.0
aF0.004201680672268907
aF0.0
aF0.004201680672268907
aF0.0
aF0.0
aF0.004201680672268907
aF0.0
aF0.0
aF0.0
aF0.0
aF0.008403361344537815
aF0.0
aF0.0
aF0.0
aF0.004201680672268907
aF0.0
aF0.0
aF0.0
aF0.0
aF0.0
aF0.0
aF0.0
aF0.0
aF0.0
aF0.004201680672268907
aF0.008403361344537815
aF0.004201680672268907
aF0.0
aF0.0
aF0.0
aF0.0
aF0.0
aF0.008403361344537815
aF0.0
aF0.008403361344537815
aF0.0
aF0.008403361344537815
aF0.004201680672268907
aF0.0
asI35
(lp48
F0.32857142857142857
aF0.1392857142857143
aF0.11071428571428571
aF0.07857142857142857
aF0.03571428571428571
aF0.025
aF0.03214285714285714
aF0.017857142857142856
aF0.0035714285714285713
aF0.010714285714285714
aF0.0035714285714285713
aF0.017857142857142856
aF0.010714285714285714
aF0.010714285714285714
aF0.0
aF0.0035714285714285713
aF0.014285714285714285
aF0.0035714285714285713
aF0.010714285714285714
aF0.007142857142857143
aF0.0035714285714285713
aF0.007142857142857143
aF0.007142857142857143
aF0.0035714285714285713
aF0.0035714285714285713
aF0.007142857142857143
aF0.010714285714285714
aF0.0
aF0.0
aF0.0
aF0.0035714285714285713
aF0.0
aF0.0
aF0.007142857142857143
aF0.0035714285714285713
aF0.0
aF0.0035714285714285713
aF0.0
aF0.0
aF0.0
aF0.0
aF0.0
aF0.0035714285714285713
aF0.0035714285714285713
aF0.0
aF0.0
aF0.0
aF0.0035714285714285713
aF0.0
aF0.0
aF0.0
aF0.0
aF0.0035714285714285713
aF0.0
aF0.0
aF0.0
aF0.0035714285714285713
aF0.007142857142857143
aF0.0
aF0.0
aF0.0035714285714285713
aF0.0
aF0.0
aF0.0
aF0.0
aF0.0
aF0.0035714285714285713
aF0.0
aF0.0035714285714285713
aF0.0035714285714285713
aF0.0035714285714285713
aF0.0035714285714285713
aF0.0
aF0.007142857142857143
aF0.0035714285714285713
aF0.0
aF0.0035714285714285713
aF0.0
aF0.0
aF0.0
aF0.0
aF0.0035714285714285713
aF0.0
aF0.007142857142857143
aF0.0
aF0.0035714285714285713
asI36
(lp49
F0.30158730158730157
aF0.1746031746031746
aF0.09126984126984126
aF0.05952380952380952
aF0.03968253968253968
aF0.03968253968253968
aF0.023809523809523808
aF0.007936507936507936
aF0.01984126984126984
aF0.011904761904761904
aF0.023809523809523808
aF0.01984126984126984
aF0.015873015873015872
aF0.011904761904761904
aF0.007936507936507936
aF0.011904761904761904
aF0.003968253968253968
aF0.007936507936507936
aF0.011904761904761904
aF0.007936507936507936
aF0.007936507936507936
aF0.007936507936507936
aF0.0
aF0.0
aF0.0
aF0.003968253968253968
aF0.0
aF0.0
aF0.0
aF0.003968253968253968
aF0.0
aF0.007936507936507936
aF0.007936507936507936
aF0.007936507936507936
aF0.003968253968253968
aF0.003968253968253968
aF0.003968253968253968
aF0.0
aF0.0
aF0.0
aF0.003968253968253968
aF0.0
aF0.0
aF0.0
aF0.0
aF0.0
aF0.0
aF0.0
aF0.0
aF0.0
aF0.003968253968253968
aF0.0
aF0.0
aF0.003968253968253968
aF0.0
aF0.003968253968253968
aF0.0
aF0.0
aF0.0
aF0.0
aF0.0
aF0.0
aF0.0
aF0.0
aF0.0
aF0.0
aF0.003968253968253968
aF0.0
aF0.003968253968253968
aF0.0
aF0.003968253968253968
aF0.003968253968253968
aF0.0
aF0.0
aF0.003968253968253968
aF0.0
aF0.0
aF0.003968253968253968
aF0.0
aF0.0
aF0.0
aF0.003968253968253968
aF0.0
aF0.0
aF0.003968253968253968
aF0.0
asI37
(lp50
F0.22972972972972974
aF0.14864864864864866
aF0.0945945945945946
aF0.10472972972972973
aF0.04391891891891892
aF0.06756756756756757
aF0.0472972972972973
aF0.02364864864864865
aF0.02027027027027027
aF0.013513513513513514
aF0.02702702702702703
aF0.02027027027027027
aF0.010135135135135136
aF0.0033783783783783786
aF0.006756756756756757
aF0.0033783783783783786
aF0.013513513513513514
aF0.006756756756756757
aF0.010135135135135136
aF0.006756756756756757
aF0.0
aF0.006756756756756757
aF0.0
aF0.0033783783783783786
aF0.0
aF0.0033783783783783786
aF0.0033783783783783786
aF0.0
aF0.0
aF0.0
aF0.0
aF0.0033783783783783786
aF0.0033783783783783786
aF0.0033783783783783786
aF0.0
aF0.0
aF0.0033783783783783786
aF0.006756756756756757
aF0.0033783783783783786
aF0.0
aF0.0
aF0.0
aF0.0
aF0.0033783783783783786
aF0.0
aF0.0
aF0.0
aF0.0
aF0.0
aF0.0
aF0.0
aF0.0
aF0.0
aF0.0
aF0.0
aF0.0
aF0.0
aF0.0033783783783783786
aF0.0
aF0.0
aF0.0033783783783783786
aF0.0
aF0.0
aF0.0
aF0.0
aF0.0033783783783783786
aF0.0
aF0.0
aF0.0033783783783783786
aF0.0
aF0.0033783783783783786
aF0.0
aF0.0
aF0.006756756756756757
aF0.0
aF0.0
aF0.0
aF0.0
aF0.0033783783783783786
aF0.0033783783783783786
aF0.0
aF0.0
aF0.0033783783783783786
aF0.0033783783783783786
aF0.0033783783783783786
aF0.013513513513513514
asI38
(lp51
F0.32894736842105265
aF0.19736842105263158
aF0.05263157894736842
aF0.039473684210526314
aF0.02631578947368421
aF0.06578947368421052
aF0.05263157894736842
aF0.013157894736842105
aF0.0
aF0.0
aF0.02631578947368421
aF0.02631578947368421
aF0.0
aF0.0
aF0.0
aF0.0
aF0.0
aF0.0
aF0.0
aF0.013157894736842105
aF0.0
aF0.013157894736842105
aF0.0
aF0.0
aF0.0
aF0.0
aF0.02631578947368421
aF0.0
aF0.013157894736842105
aF0.0
aF0.013157894736842105
aF0.0
aF0.0
aF0.013157894736842105
aF0.0
aF0.0
aF0.013157894736842105
aF0.0
aF0.0
aF0.0
aF0.0
aF0.0
aF0.0
aF0.0
aF0.0
aF0.0
aF0.0
aF0.0
aF0.0
aF0.0
aF0.0
aF0.0
aF0.0
aF0.0
aF0.0
aF0.0
aF0.0
aF0.0
aF0.0
aF0.0
aF0.0
aF0.0
aF0.0
aF0.0
aF0.02631578947368421
aF0.0
aF0.0
aF0.0
aF0.0
aF0.0
aF0.0
aF0.0
aF0.0
aF0.0
aF0.0
aF0.0
aF0.0
aF0.0
aF0.0
aF0.0
aF0.0
aF0.013157894736842105
aF0.0
aF0.0
aF0.0
aF0.02631578947368421
asI39
(lp52
F0.24358974358974358
aF0.14102564102564102
aF0.1282051282051282
aF0.057692307692307696
aF0.05128205128205128
aF0.04487179487179487
aF0.038461538461538464
aF0.03205128205128205
aF0.00641025641025641
aF0.01282051282051282
aF0.01282051282051282
aF0.02564102564102564
aF0.01282051282051282
aF0.00641025641025641
aF0.0
aF0.03205128205128205
aF0.00641025641025641
aF0.00641025641025641
aF0.0
aF0.01282051282051282
aF0.01282051282051282
aF0.0
aF0.0
aF0.00641025641025641
aF0.0
aF0.0
aF0.00641025641025641
aF0.0
aF0.00641025641025641
aF0.0
aF0.00641025641025641
aF0.0
aF0.00641025641025641
aF0.00641025641025641
aF0.00641025641025641
aF0.00641025641025641
aF0.0
aF0.0
aF0.0
aF0.0
aF0.0
aF0.0
aF0.0
aF0.0
aF0.0
aF0.0
aF0.0
aF0.0
aF0.00641025641025641
aF0.0
aF0.0
aF0.0
aF0.0
aF0.0
aF0.0
aF0.00641025641025641
aF0.0
aF0.0
aF0.0
aF0.0
aF0.0
aF0.019230769230769232
aF0.0
aF0.0
aF0.0
aF0.0
aF0.0
aF0.0
aF0.0
aF0.0
aF0.0
aF0.00641025641025641
aF0.0
aF0.0
aF0.0
aF0.0
aF0.0
aF0.0
aF0.00641025641025641
aF0.0
aF0.0
aF0.0
aF0.00641025641025641
aF0.0
aF0.00641025641025641
aF0.00641025641025641
asI40
(lp53
F0.29375
aF0.14375
aF0.1
aF0.05
aF0.05
aF0.05625
aF0.0125
aF0.0
aF0.025
aF0.025
aF0.03125
aF0.025
aF0.0
aF0.01875
aF0.0125
aF0.00625
aF0.0
aF0.0
aF0.01875
aF0.0125
aF0.0125
aF0.0
aF0.0
aF0.00625
aF0.00625
aF0.00625
aF0.0
aF0.0
aF0.0
aF0.0
aF0.0
aF0.00625
aF0.0
aF0.0
aF0.0125
aF0.0
aF0.0
aF0.0
aF0.0
aF0.0
aF0.0
aF0.0
aF0.00625
aF0.0
aF0.0
aF0.0
aF0.00625
aF0.0
aF0.0
aF0.0
aF0.0
aF0.0
aF0.0
aF0.0
aF0.0
aF0.0
aF0.00625
aF0.0
aF0.0
aF0.0
aF0.00625
aF0.0
aF0.0
aF0.0
aF0.00625
aF0.0
aF0.0
aF0.0
aF0.0
aF0.0
aF0.0
aF0.0
aF0.0
aF0.00625
aF0.0
aF0.0
aF0.0
aF0.0
aF0.00625
aF0.0
aF0.00625
aF0.0
aF0.0
aF0.0125
aF0.0
aF0.00625
asI42
(lp54
F0.30952380952380953
aF0.14285714285714285
aF0.09523809523809523
aF0.11904761904761904
aF0.03571428571428571
aF0.03571428571428571
aF0.03571428571428571
aF0.023809523809523808
aF0.03571428571428571
aF0.03571428571428571
aF0.011904761904761904
aF0.011904761904761904
aF0.0
aF0.0
aF0.0
aF0.011904761904761904
aF0.011904761904761904
aF0.011904761904761904
aF0.0
aF0.011904761904761904
aF0.0
aF0.0
aF0.0
aF0.0
aF0.0
aF0.0
aF0.0
aF0.0
aF0.0
aF0.0
aF0.0
aF0.0
aF0.0
aF0.0
aF0.011904761904761904
aF0.0
aF0.0
aF0.0
aF0.0
aF0.0
aF0.0
aF0.0
aF0.0
aF0.0
aF0.0
aF0.0
aF0.0
aF0.0
aF0.0
aF0.0
aF0.0
aF0.0
aF0.0
aF0.0
aF0.0
aF0.0
aF0.0
aF0.0
aF0.011904761904761904
aF0.0
aF0.0
aF0.0
aF0.0
aF0.0
aF0.0
aF0.0
aF0.011904761904761904
aF0.0
aF0.0
aF0.0
aF0.0
aF0.0
aF0.0
aF0.0
aF0.0
aF0.0
aF0.0
aF0.011904761904761904
aF0.0
aF0.0
aF0.011904761904761904
aF0.0
aF0.0
aF0.0
aF0.0
aF0.0
asI43
(lp55
F0.32558139534883723
aF0.18604651162790697
aF0.13953488372093023
aF0.06976744186046512
aF0.0
aF0.0
aF0.023255813953488372
aF0.046511627906976744
aF0.0
aF0.0
aF0.023255813953488372
aF0.0
aF0.0
aF0.0
aF0.0
aF0.0
aF0.046511627906976744
aF0.0
aF0.0
aF0.0
aF0.0
aF0.0
aF0.0
aF0.0
aF0.0
aF0.0
aF0.0
aF0.0
aF0.0
aF0.046511627906976744
aF0.0
aF0.0
aF0.0
aF0.0
aF0.0
aF0.0
aF0.0
aF0.0
aF0.0
aF0.0
aF0.0
aF0.0
aF0.0
aF0.0
aF0.0
aF0.0
aF0.0
aF0.0
aF0.0
aF0.0
aF0.0
aF0.0
aF0.0
aF0.0
aF0.0
aF0.0
aF0.0
aF0.0
aF0.0
aF0.0
aF0.0
aF0.0
aF0.023255813953488372
aF0.0
aF0.0
aF0.0
aF0.0
aF0.0
aF0.023255813953488372
aF0.0
aF0.0
aF0.0
aF0.0
aF0.0
aF0.0
aF0.0
aF0.0
aF0.0
aF0.0
aF0.0
aF0.0
aF0.0
aF0.023255813953488372
aF0.0
aF0.023255813953488372
aF0.0
asI44
(lp56
F0.24242424242424243
aF0.13636363636363635
aF0.09848484848484848
aF0.07575757575757576
aF0.06818181818181818
aF0.06060606060606061
aF0.022727272727272728
aF0.015151515151515152
aF0.030303030303030304
aF0.0
aF0.015151515151515152
aF0.015151515151515152
aF0.007575757575757576
aF0.015151515151515152
aF0.0
aF0.007575757575757576
aF0.007575757575757576
aF0.015151515151515152
aF0.0
aF0.007575757575757576
aF0.007575757575757576
aF0.007575757575757576
aF0.007575757575757576
aF0.0
aF0.0
aF0.015151515151515152
aF0.015151515151515152
aF0.0
aF0.007575757575757576
aF0.0
aF0.0
aF0.0
aF0.0
aF0.007575757575757576
aF0.0
aF0.0
aF0.0
aF0.0
aF0.0
aF0.0
aF0.0
aF0.007575757575757576
aF0.0
aF0.0
aF0.0
aF0.0
aF0.0
aF0.0
aF0.0
aF0.0
aF0.0
aF0.0
aF0.0
aF0.007575757575757576
aF0.0
aF0.0
aF0.0
aF0.0
aF0.0
aF0.0
aF0.0
aF0.0
aF0.007575757575757576
aF0.0
aF0.0
aF0.007575757575757576
aF0.0
aF0.007575757575757576
aF0.0
aF0.0
aF0.0
aF0.0
aF0.007575757575757576
aF0.0
aF0.0
aF0.0
aF0.007575757575757576
aF0.0
aF0.015151515151515152
aF0.0
aF0.0
aF0.0
aF0.007575757575757576
aF0.0
aF0.0
aF0.015151515151515152
asI45
(lp57
F0.26666666666666666
aF0.11851851851851852
aF0.14074074074074075
aF0.08148148148148149
aF0.06666666666666667
aF0.044444444444444446
aF0.014814814814814815
aF0.02962962962962963
aF0.02962962962962963
aF0.022222222222222223
aF0.007407407407407408
aF0.0
aF0.014814814814814815
aF0.007407407407407408
aF0.02962962962962963
aF0.007407407407407408
aF0.0
aF0.007407407407407408
aF0.014814814814814815
aF0.007407407407407408
aF0.0
aF0.007407407407407408
aF0.0
aF0.007407407407407408
aF0.0
aF0.0
aF0.014814814814814815
aF0.0
aF0.0
aF0.007407407407407408
aF0.0
aF0.0
aF0.0
aF0.0
aF0.0
aF0.0
aF0.0
aF0.0
aF0.0
aF0.0
aF0.007407407407407408
aF0.0
aF0.0
aF0.0
aF0.0
aF0.0
aF0.0
aF0.0
aF0.0
aF0.0
aF0.0
aF0.0
aF0.0
aF0.0
aF0.007407407407407408
aF0.0
aF0.0
aF0.0
aF0.0
aF0.0
aF0.007407407407407408
aF0.0
aF0.0
aF0.0
aF0.0
aF0.0
aF0.0
aF0.007407407407407408
aF0.014814814814814815
aF0.0
aF0.0
aF0.0
aF0.0
aF0.007407407407407408
aF0.0
aF0.0
aF0.0
aF0.0
aF0.0
aF0.0
aF0.0
aF0.0
aF0.0
aF0.0
aF0.0
aF0.0
asI48
(lp58
F0.25
aF0.2013888888888889
aF0.08333333333333333
aF0.09722222222222222
aF0.06944444444444445
aF0.034722222222222224
aF0.013888888888888888
aF0.020833333333333332
aF0.041666666666666664
aF0.020833333333333332
aF0.034722222222222224
aF0.020833333333333332
aF0.0
aF0.0
aF0.0
aF0.0
aF0.006944444444444444
aF0.006944444444444444
aF0.027777777777777776
aF0.0
aF0.0
aF0.0
aF0.0
aF0.0
aF0.0
aF0.006944444444444444
aF0.006944444444444444
aF0.0
aF0.0
aF0.0
aF0.0
aF0.0
aF0.006944444444444444
aF0.0
aF0.0
aF0.0
aF0.0
aF0.006944444444444444
aF0.0
aF0.0
aF0.0
aF0.0
aF0.0
aF0.006944444444444444
aF0.0
aF0.0
aF0.0
aF0.0
aF0.0
aF0.0
aF0.0
aF0.0
aF0.0
aF0.0
aF0.0
aF0.0
aF0.0
aF0.0
aF0.0
aF0.0
aF0.0
aF0.0
aF0.0
aF0.0
aF0.006944444444444444
aF0.0
aF0.0
aF0.0
aF0.0
aF0.0
aF0.0
aF0.0
aF0.0
aF0.0
aF0.0
aF0.0
aF0.006944444444444444
aF0.0
aF0.006944444444444444
aF0.0
aF0.006944444444444444
aF0.0
aF0.0
aF0.0
aF0.006944444444444444
aF0.0
asI49
(lp59
F0.25170068027210885
aF0.17006802721088435
aF0.11564625850340136
aF0.04081632653061224
aF0.02040816326530612
aF0.06802721088435375
aF0.02040816326530612
aF0.034013605442176874
aF0.013605442176870748
aF0.047619047619047616
aF0.006802721088435374
aF0.02040816326530612
aF0.02040816326530612
aF0.0
aF0.0
aF0.027210884353741496
aF0.006802721088435374
aF0.0
aF0.013605442176870748
aF0.0
aF0.0
aF0.006802721088435374
aF0.0
aF0.0
aF0.0
aF0.013605442176870748
aF0.013605442176870748
aF0.0
aF0.0
aF0.0
aF0.0
aF0.0
aF0.006802721088435374
aF0.0
aF0.006802721088435374
aF0.0
aF0.0
aF0.0
aF0.0
aF0.0
aF0.0
aF0.0
aF0.006802721088435374
aF0.0
aF0.006802721088435374
aF0.0
aF0.0
aF0.0
aF0.0
aF0.0
aF0.0
aF0.0
aF0.006802721088435374
aF0.0
aF0.0
aF0.0
aF0.0
aF0.0
aF0.0
aF0.0
aF0.006802721088435374
aF0.0
aF0.0
aF0.0
aF0.0
aF0.0
aF0.0
aF0.0
aF0.0
aF0.0
aF0.0
aF0.006802721088435374
aF0.006802721088435374
aF0.013605442176870748
aF0.0
aF0.0
aF0.0
aF0.0
aF0.006802721088435374
aF0.0
aF0.0
aF0.0
aF0.006802721088435374
aF0.0
aF0.0
aF0.006802721088435374
asI50
(lp60
F0.28
aF0.14
aF0.1
aF0.1
aF0.08
aF0.06
aF0.02
aF0.0
aF0.02
aF0.06
aF0.0
aF0.0
aF0.0
aF0.0
aF0.0
aF0.02
aF0.02
aF0.0
aF0.0
aF0.0
aF0.0
aF0.02
aF0.0
aF0.0
aF0.0
aF0.0
aF0.0
aF0.0
aF0.0
aF0.0
aF0.0
aF0.02
aF0.0
aF0.0
aF0.0
aF0.0
aF0.0
aF0.0
aF0.0
aF0.0
aF0.0
aF0.0
aF0.0
aF0.02
aF0.0
aF0.0
aF0.0
aF0.0
aF0.0
aF0.0
aF0.0
aF0.0
aF0.0
aF0.0
aF0.0
aF0.0
aF0.0
aF0.0
aF0.0
aF0.0
aF0.0
aF0.0
aF0.0
aF0.0
aF0.0
aF0.0
aF0.0
aF0.0
aF0.0
aF0.02
aF0.0
aF0.0
aF0.0
aF0.0
aF0.0
aF0.0
aF0.0
aF0.0
aF0.0
aF0.02
aF0.0
aF0.0
aF0.0
aF0.0
aF0.0
aF0.0
asI51
(lp61
F0.29411764705882354
aF0.17647058823529413
aF0.0784313725490196
aF0.11764705882352941
aF0.09803921568627451
aF0.058823529411764705
aF0.0196078431372549
aF0.0196078431372549
aF0.0
aF0.0392156862745098
aF0.0
aF0.0
aF0.0
aF0.0
aF0.0
aF0.0196078431372549
aF0.0
aF0.0
aF0.0
aF0.0
aF0.0
aF0.0
aF0.0
aF0.0
aF0.0
aF0.0392156862745098
aF0.0196078431372549
aF0.0
aF0.0
aF0.0
aF0.0
aF0.0
aF0.0
aF0.0
aF0.0
aF0.0
aF0.0
aF0.0
aF0.0
aF0.0
aF0.0
aF0.0
aF0.0
aF0.0
aF0.0
aF0.0
aF0.0
aF0.0
aF0.0
aF0.0
aF0.0
aF0.0
aF0.0
aF0.0196078431372549
aF0.0
aF0.0
aF0.0
aF0.0
aF0.0
aF0.0
aF0.0
aF0.0
aF0.0
aF0.0
aF0.0
aF0.0
aF0.0
aF0.0
aF0.0
aF0.0
aF0.0
aF0.0
aF0.0
aF0.0
aF0.0
aF0.0
aF0.0
aF0.0
aF0.0
aF0.0
aF0.0
aF0.0
aF0.0
aF0.0
aF0.0
aF0.0
asI52
(lp62
F0.2403846153846154
aF0.14423076923076922
aF0.08653846153846154
aF0.1346153846153846
aF0.057692307692307696
aF0.0673076923076923
aF0.038461538461538464
aF0.028846153846153848
aF0.04807692307692308
aF0.019230769230769232
aF0.009615384615384616
aF0.019230769230769232
aF0.019230769230769232
aF0.0
aF0.009615384615384616
aF0.009615384615384616
aF0.0
aF0.0
aF0.0
aF0.0
aF0.009615384615384616
aF0.0
aF0.0
aF0.0
aF0.0
aF0.009615384615384616
aF0.0
aF0.0
aF0.009615384615384616
aF0.0
aF0.0
aF0.0
aF0.0
aF0.0
aF0.0
aF0.0
aF0.0
aF0.009615384615384616
aF0.0
aF0.0
aF0.0
aF0.0
aF0.0
aF0.0
aF0.0
aF0.0
aF0.0
aF0.0
aF0.0
aF0.0
aF0.0
aF0.0
aF0.0
aF0.0
aF0.0
aF0.0
aF0.0
aF0.0
aF0.0
aF0.0
aF0.0
aF0.009615384615384616
aF0.0
aF0.0
aF0.0
aF0.0
aF0.0
aF0.0
aF0.0
aF0.0
aF0.0
aF0.0
aF0.0
aF0.009615384615384616
aF0.0
aF0.0
aF0.0
aF0.0
aF0.0
aF0.0
aF0.0
aF0.0
aF0.0
aF0.009615384615384616
aF0.0
aF0.0
asI53
(lp63
F0.3018867924528302
aF0.1320754716981132
aF0.08962264150943396
aF0.08490566037735849
aF0.0660377358490566
aF0.0330188679245283
aF0.04716981132075472
aF0.02358490566037736
aF0.02830188679245283
aF0.02358490566037736
aF0.02830188679245283
aF0.009433962264150943
aF0.018867924528301886
aF0.0047169811320754715
aF0.009433962264150943
aF0.0
aF0.0047169811320754715
aF0.0
aF0.0
aF0.014150943396226415
aF0.0
aF0.0
aF0.0
aF0.0
aF0.0
aF0.0047169811320754715
aF0.0047169811320754715
aF0.0
aF0.0047169811320754715
aF0.0
aF0.0
aF0.0047169811320754715
aF0.0047169811320754715
aF0.0
aF0.0
aF0.0
aF0.0
aF0.0
aF0.0
aF0.0
aF0.0
aF0.0
aF0.0
aF0.0
aF0.0
aF0.0
aF0.0
aF0.009433962264150943
aF0.0
aF0.0
aF0.0047169811320754715
aF0.0
aF0.0
aF0.0
aF0.0047169811320754715
aF0.0
aF0.0
aF0.0047169811320754715
aF0.0
aF0.0
aF0.0
aF0.0047169811320754715
aF0.0
aF0.0
aF0.0
aF0.0
aF0.0
aF0.0
aF0.0
aF0.0
aF0.0
aF0.0047169811320754715
aF0.0
aF0.0
aF0.0
aF0.0
aF0.0
aF0.0
aF0.0
aF0.0
aF0.009433962264150943
aF0.0
aF0.0047169811320754715
aF0.0
aF0.0
aF0.009433962264150943
asI54
(lp64
F0.25925925925925924
aF0.1111111111111111
aF0.09259259259259259
aF0.1111111111111111
aF0.05555555555555555
aF0.018518518518518517
aF0.05555555555555555
aF0.018518518518518517
aF0.018518518518518517
aF0.018518518518518517
aF0.0
aF0.037037037037037035
aF0.018518518518518517
aF0.018518518518518517
aF0.0
aF0.0
aF0.0
aF0.037037037037037035
aF0.0
aF0.0
aF0.0
aF0.05555555555555555
aF0.0
aF0.0
aF0.0
aF0.0
aF0.0
aF0.0
aF0.0
aF0.0
aF0.0
aF0.0
aF0.0
aF0.0
aF0.0
aF0.0
aF0.018518518518518517
aF0.0
aF0.0
aF0.0
aF0.0
aF0.0
aF0.0
aF0.0
aF0.0
aF0.0
aF0.0
aF0.0
aF0.0
aF0.0
aF0.0
aF0.0
aF0.0
aF0.0
aF0.0
aF0.0
aF0.0
aF0.0
aF0.0
aF0.0
aF0.0
aF0.0
aF0.0
aF0.0
aF0.0
aF0.0
aF0.0
aF0.0
aF0.0
aF0.0
aF0.0
aF0.0
aF0.0
aF0.0
aF0.0
aF0.018518518518518517
aF0.0
aF0.0
aF0.0
aF0.0
aF0.0
aF0.0
aF0.018518518518518517
aF0.0
aF0.018518518518518517
aF0.0
asI55
(lp65
F0.2545454545454545
aF0.18181818181818182
aF0.03636363636363636
aF0.12727272727272726
aF0.10909090909090909
aF0.03636363636363636
aF0.01818181818181818
aF0.01818181818181818
aF0.03636363636363636
aF0.01818181818181818
aF0.03636363636363636
aF0.0
aF0.03636363636363636
aF0.01818181818181818
aF0.0
aF0.01818181818181818
aF0.0
aF0.01818181818181818
aF0.0
aF0.0
aF0.0
aF0.0
aF0.0
aF0.0
aF0.0
aF0.0
aF0.0
aF0.0
aF0.0
aF0.0
aF0.0
aF0.01818181818181818
aF0.0
aF0.0
aF0.0
aF0.0
aF0.0
aF0.0
aF0.0
aF0.0
aF0.0
aF0.0
aF0.0
aF0.0
aF0.0
aF0.0
aF0.0
aF0.0
aF0.0
aF0.0
aF0.0
aF0.0
aF0.0
aF0.0
aF0.0
aF0.0
aF0.0
aF0.0
aF0.0
aF0.01818181818181818
aF0.0
aF0.0
aF0.0
aF0.0
aF0.0
aF0.0
aF0.0
aF0.0
aF0.0
aF0.0
aF0.0
aF0.0
aF0.0
aF0.0
aF0.0
aF0.0
aF0.0
aF0.0
aF0.0
aF0.0
aF0.0
aF0.0
aF0.0
aF0.0
aF0.0
aF0.0
asI56
(lp66
F0.26785714285714285
aF0.125
aF0.16071428571428573
aF0.017857142857142856
aF0.07142857142857142
aF0.017857142857142856
aF0.03571428571428571
aF0.05357142857142857
aF0.0
aF0.0
aF0.017857142857142856
aF0.017857142857142856
aF0.0
aF0.017857142857142856
aF0.017857142857142856
aF0.0
aF0.0
aF0.0
aF0.0
aF0.0
aF0.0
aF0.0
aF0.017857142857142856
aF0.0
aF0.0
aF0.0
aF0.03571428571428571
aF0.0
aF0.017857142857142856
aF0.0
aF0.0
aF0.0
aF0.0
aF0.017857142857142856
aF0.0
aF0.0
aF0.0
aF0.0
aF0.0
aF0.0
aF0.0
aF0.0
aF0.0
aF0.0
aF0.0
aF0.0
aF0.0
aF0.017857142857142856
aF0.0
aF0.0
aF0.0
aF0.0
aF0.0
aF0.0
aF0.0
aF0.0
aF0.0
aF0.0
aF0.017857142857142856
aF0.0
aF0.0
aF0.017857142857142856
aF0.0
aF0.0
aF0.0
aF0.0
aF0.0
aF0.0
aF0.0
aF0.0
aF0.0
aF0.0
aF0.0
aF0.0
aF0.0
aF0.0
aF0.0
aF0.0
aF0.0
aF0.0
aF0.0
aF0.017857142857142856
aF0.017857142857142856
aF0.0
aF0.0
aF0.0
asI57
(lp67
F0.19298245614035087
aF0.08771929824561403
aF0.10526315789473684
aF0.10526315789473684
aF0.08771929824561403
aF0.05263157894736842
aF0.03508771929824561
aF0.05263157894736842
aF0.017543859649122806
aF0.03508771929824561
aF0.0
aF0.0
aF0.0
aF0.03508771929824561
aF0.0
aF0.03508771929824561
aF0.03508771929824561
aF0.0
aF0.03508771929824561
aF0.0
aF0.0
aF0.017543859649122806
aF0.0
aF0.0
aF0.0
aF0.0
aF0.0
aF0.0
aF0.017543859649122806
aF0.0
aF0.0
aF0.0
aF0.0
aF0.0
aF0.0
aF0.0
aF0.0
aF0.0
aF0.0
aF0.0
aF0.0
aF0.0
aF0.0
aF0.0
aF0.0
aF0.0
aF0.0
aF0.0
aF0.0
aF0.0
aF0.0
aF0.0
aF0.0
aF0.0
aF0.0
aF0.0
aF0.0
aF0.0
aF0.0
aF0.0
aF0.0
aF0.0
aF0.0
aF0.0
aF0.0
aF0.0
aF0.0
aF0.0
aF0.0
aF0.0
aF0.0
aF0.0
aF0.0
aF0.017543859649122806
aF0.0
aF0.0
aF0.0
aF0.0
aF0.0
aF0.0
aF0.0
aF0.017543859649122806
aF0.0
aF0.0
aF0.0
aF0.017543859649122806
asI58
(lp68
F0.2413793103448276
aF0.23275862068965517
aF0.11206896551724138
aF0.05172413793103448
aF0.05172413793103448
aF0.04310344827586207
aF0.017241379310344827
aF0.008620689655172414
aF0.02586206896551724
aF0.017241379310344827
aF0.017241379310344827
aF0.05172413793103448
aF0.0
aF0.0
aF0.017241379310344827
aF0.008620689655172414
aF0.02586206896551724
aF0.0
aF0.0
aF0.008620689655172414
aF0.008620689655172414
aF0.008620689655172414
aF0.0
aF0.0
aF0.0
aF0.0
aF0.0
aF0.0
aF0.0
aF0.0
aF0.0
aF0.008620689655172414
aF0.008620689655172414
aF0.0
aF0.0
aF0.0
aF0.0
aF0.0
aF0.0
aF0.0
aF0.0
aF0.0
aF0.0
aF0.008620689655172414
aF0.0
aF0.0
aF0.0
aF0.0
aF0.0
aF0.0
aF0.0
aF0.0
aF0.0
aF0.0
aF0.0
aF0.0
aF0.0
aF0.0
aF0.0
aF0.0
aF0.008620689655172414
aF0.008620689655172414
aF0.0
aF0.0
aF0.0
aF0.0
aF0.0
aF0.0
aF0.0
aF0.0
aF0.0
aF0.0
aF0.0
aF0.0
aF0.0
aF0.0
aF0.0
aF0.0
aF0.0
aF0.0
aF0.0
aF0.0
aF0.0
aF0.0
aF0.0
aF0.008620689655172414
asI59
(lp69
F0.3050847457627119
aF0.1864406779661017
aF0.0847457627118644
aF0.0423728813559322
aF0.05084745762711865
aF0.05084745762711865
aF0.00847457627118644
aF0.00847457627118644
aF0.025423728813559324
aF0.00847457627118644
aF0.0423728813559322
aF0.01694915254237288
aF0.00847457627118644
aF0.01694915254237288
aF0.0
aF0.025423728813559324
aF0.00847457627118644
aF0.00847457627118644
aF0.00847457627118644
aF0.0
aF0.0
aF0.0
aF0.00847457627118644
aF0.00847457627118644
aF0.0
aF0.0
aF0.025423728813559324
aF0.0
aF0.0
aF0.0
aF0.0
aF0.0
aF0.0
aF0.00847457627118644
aF0.0
aF0.0
aF0.0
aF0.0
aF0.0
aF0.0
aF0.00847457627118644
aF0.0
aF0.0
aF0.0
aF0.0
aF0.00847457627118644
aF0.0
aF0.0
aF0.0
aF0.0
aF0.0
aF0.0
aF0.0
aF0.0
aF0.0
aF0.0
aF0.0
aF0.0
aF0.0
aF0.0
aF0.0
aF0.0
aF0.0
aF0.0
aF0.0
aF0.0
aF0.0
aF0.0
aF0.0
aF0.0
aF0.0
aF0.0
aF0.0
aF0.0
aF0.0
aF0.0
aF0.0
aF0.0
aF0.0
aF0.0
aF0.00847457627118644
aF0.00847457627118644
aF0.0
aF0.00847457627118644
aF0.0
aF0.0
asI61
(lp70
F0.20491803278688525
aF0.18032786885245902
aF0.08196721311475409
aF0.09016393442622951
aF0.06557377049180328
aF0.01639344262295082
aF0.02459016393442623
aF0.040983606557377046
aF0.00819672131147541
aF0.03278688524590164
aF0.03278688524590164
aF0.00819672131147541
aF0.00819672131147541
aF0.00819672131147541
aF0.00819672131147541
aF0.0
aF0.00819672131147541
aF0.01639344262295082
aF0.0
aF0.00819672131147541
aF0.00819672131147541
aF0.01639344262295082
aF0.0
aF0.0
aF0.0
aF0.00819672131147541
aF0.00819672131147541
aF0.0
aF0.01639344262295082
aF0.0
aF0.0
aF0.0
aF0.0
aF0.0
aF0.0
aF0.0
aF0.0
aF0.0
aF0.0
aF0.0
aF0.0
aF0.00819672131147541
aF0.0
aF0.0
aF0.0
aF0.0
aF0.0
aF0.00819672131147541
aF0.0
aF0.0
aF0.0
aF0.0
aF0.0
aF0.0
aF0.0
aF0.0
aF0.0
aF0.00819672131147541
aF0.0
aF0.0
aF0.0
aF0.0
aF0.0
aF0.0
aF0.00819672131147541
aF0.0
aF0.00819672131147541
aF0.00819672131147541
aF0.0
aF0.0
aF0.0
aF0.0
aF0.0
aF0.00819672131147541
aF0.00819672131147541
aF0.0
aF0.0
aF0.0
aF0.0
aF0.00819672131147541
aF0.0
aF0.0
aF0.00819672131147541
aF0.00819672131147541
aF0.0
aF0.00819672131147541
asI62
(lp71
F0.25806451612903225
aF0.11290322580645161
aF0.22580645161290322
aF0.06451612903225806
aF0.04838709677419355
aF0.04838709677419355
aF0.03225806451612903
aF0.016129032258064516
aF0.04838709677419355
aF0.0
aF0.0
aF0.0
aF0.016129032258064516
aF0.016129032258064516
aF0.016129032258064516
aF0.016129032258064516
aF0.0
aF0.0
aF0.016129032258064516
aF0.0
aF0.0
aF0.0
aF0.0
aF0.0
aF0.0
aF0.0
aF0.0
aF0.0
aF0.0
aF0.0
aF0.0
aF0.0
aF0.0
aF0.016129032258064516
aF0.0
aF0.0
aF0.016129032258064516
aF0.0
aF0.0
aF0.0
aF0.0
aF0.0
aF0.0
aF0.0
aF0.0
aF0.0
aF0.0
aF0.0
aF0.0
aF0.0
aF0.0
aF0.0
aF0.0
aF0.0
aF0.0
aF0.0
aF0.0
aF0.0
aF0.0
aF0.0
aF0.0
aF0.016129032258064516
aF0.0
aF0.0
aF0.0
aF0.0
aF0.0
aF0.0
aF0.0
aF0.0
aF0.0
aF0.0
aF0.0
aF0.0
aF0.0
aF0.0
aF0.0
aF0.0
aF0.0
aF0.0
aF0.0
aF0.0
aF0.0
aF0.0
aF0.0
aF0.016129032258064516
asI63
(lp72
F0.291005291005291
aF0.13756613756613756
aF0.09523809523809523
aF0.06878306878306878
aF0.021164021164021163
aF0.037037037037037035
aF0.06349206349206349
aF0.031746031746031744
aF0.026455026455026454
aF0.015873015873015872
aF0.021164021164021163
aF0.005291005291005291
aF0.015873015873015872
aF0.005291005291005291
aF0.005291005291005291
aF0.010582010582010581
aF0.037037037037037035
aF0.005291005291005291
aF0.010582010582010581
aF0.0
aF0.010582010582010581
aF0.0
aF0.005291005291005291
aF0.0
aF0.0
aF0.010582010582010581
aF0.010582010582010581
aF0.0
aF0.005291005291005291
aF0.005291005291005291
aF0.005291005291005291
aF0.0
aF0.005291005291005291
aF0.0
aF0.0
aF0.0
aF0.0
aF0.005291005291005291
aF0.0
aF0.0
aF0.0
aF0.0
aF0.0
aF0.0
aF0.0
aF0.0
aF0.0
aF0.0
aF0.0
aF0.0
aF0.0
aF0.0
aF0.0
aF0.0
aF0.0
aF0.0
aF0.0
aF0.0
aF0.005291005291005291
aF0.0
aF0.0
aF0.0
aF0.0
aF0.0
aF0.0
aF0.0
aF0.005291005291005291
aF0.0
aF0.0
aF0.0
aF0.0
aF0.0
aF0.0
aF0.0
aF0.0
aF0.0
aF0.0
aF0.0
aF0.0
aF0.0
aF0.0
aF0.005291005291005291
aF0.010582010582010581
aF0.0
aF0.0
aF0.005291005291005291
asI68
(lp73
F0.2867647058823529
aF0.13970588235294118
aF0.11029411764705882
aF0.11029411764705882
aF0.03676470588235294
aF0.007352941176470588
aF0.03676470588235294
aF0.022058823529411766
aF0.022058823529411766
aF0.0
aF0.014705882352941176
aF0.014705882352941176
aF0.007352941176470588
aF0.014705882352941176
aF0.0
aF0.0
aF0.007352941176470588
aF0.029411764705882353
aF0.014705882352941176
aF0.007352941176470588
aF0.0
aF0.0
aF0.007352941176470588
aF0.0
aF0.0
aF0.007352941176470588
aF0.0
aF0.0
aF0.007352941176470588
aF0.0
aF0.0
aF0.014705882352941176
aF0.014705882352941176
aF0.0
aF0.007352941176470588
aF0.0
aF0.0
aF0.0
aF0.0
aF0.0
aF0.0
aF0.0
aF0.0
aF0.0
aF0.0
aF0.0
aF0.0
aF0.007352941176470588
aF0.0
aF0.0
aF0.0
aF0.0
aF0.0
aF0.0
aF0.007352941176470588
aF0.0
aF0.0
aF0.0
aF0.0
aF0.0
aF0.0
aF0.014705882352941176
aF0.0
aF0.0
aF0.0
aF0.0
aF0.0
aF0.0
aF0.0
aF0.0
aF0.0
aF0.0
aF0.0
aF0.0
aF0.0
aF0.007352941176470588
aF0.0
aF0.007352941176470588
aF0.0
aF0.0
aF0.0
aF0.0
aF0.0
aF0.007352941176470588
aF0.0
aF0.007352941176470588
asI69
(lp74
F0.2898550724637681
aF0.2028985507246377
aF0.11594202898550725
aF0.057971014492753624
aF0.057971014492753624
aF0.028985507246376812
aF0.028985507246376812
aF0.014492753623188406
aF0.014492753623188406
aF0.014492753623188406
aF0.0
aF0.0
aF0.043478260869565216
aF0.0
aF0.014492753623188406
aF0.0
aF0.0
aF0.0
aF0.028985507246376812
aF0.0
aF0.0
aF0.0
aF0.0
aF0.0
aF0.0
aF0.0
aF0.0
aF0.0
aF0.0
aF0.0
aF0.0
aF0.0
aF0.0
aF0.0
aF0.0
aF0.0
aF0.0
aF0.0
aF0.014492753623188406
aF0.0
aF0.0
aF0.0
aF0.0
aF0.0
aF0.0
aF0.0
aF0.0
aF0.0
aF0.0
aF0.0
aF0.014492753623188406
aF0.0
aF0.0
aF0.0
aF0.0
aF0.0
aF0.014492753623188406
aF0.0
aF0.0
aF0.0
aF0.0
aF0.014492753623188406
aF0.0
aF0.0
aF0.0
aF0.0
aF0.0
aF0.0
aF0.0
aF0.0
aF0.0
aF0.0
aF0.0
aF0.0
aF0.0
aF0.014492753623188406
aF0.0
aF0.0
aF0.0
aF0.0
aF0.0
aF0.014492753623188406
aF0.0
aF0.0
aF0.0
aF0.0
asI70
(lp75
F0.2714285714285714
aF0.2
aF0.08571428571428572
aF0.04285714285714286
aF0.02857142857142857
aF0.11428571428571428
aF0.04285714285714286
aF0.02857142857142857
aF0.0
aF0.02857142857142857
aF0.02857142857142857
aF0.0
aF0.014285714285714285
aF0.014285714285714285
aF0.0
aF0.014285714285714285
aF0.0
aF0.0
aF0.014285714285714285
aF0.014285714285714285
aF0.0
aF0.0
aF0.0
aF0.0
aF0.0
aF0.0
aF0.0
aF0.0
aF0.014285714285714285
aF0.0
aF0.0
aF0.0
aF0.0
aF0.0
aF0.0
aF0.0
aF0.0
aF0.0
aF0.0
aF0.0
aF0.0
aF0.0
aF0.0
aF0.0
aF0.0
aF0.0
aF0.0
aF0.0
aF0.0
aF0.014285714285714285
aF0.0
aF0.0
aF0.0
aF0.0
aF0.0
aF0.0
aF0.0
aF0.0
aF0.0
aF0.0
aF0.0
aF0.0
aF0.0
aF0.0
aF0.0
aF0.0
aF0.0
aF0.014285714285714285
aF0.014285714285714285
aF0.0
aF0.0
aF0.0
aF0.0
aF0.0
aF0.0
aF0.0
aF0.0
aF0.0
aF0.0
aF0.0
aF0.0
aF0.0
aF0.0
aF0.0
aF0.0
aF0.0
asI71
(lp76
F0.2535211267605634
aF0.16901408450704225
aF0.16901408450704225
aF0.056338028169014086
aF0.014084507042253521
aF0.014084507042253521
aF0.028169014084507043
aF0.0
aF0.0
aF0.0
aF0.04225352112676056
aF0.0
aF0.028169014084507043
aF0.0
aF0.0
aF0.0
aF0.014084507042253521
aF0.014084507042253521
aF0.014084507042253521
aF0.0
aF0.0
aF0.0
aF0.014084507042253521
aF0.0
aF0.0
aF0.0
aF0.0
aF0.0
aF0.014084507042253521
aF0.014084507042253521
aF0.014084507042253521
aF0.0
aF0.014084507042253521
aF0.0
aF0.014084507042253521
aF0.0
aF0.0
aF0.014084507042253521
aF0.0
aF0.0
aF0.0
aF0.014084507042253521
aF0.0
aF0.014084507042253521
aF0.0
aF0.0
aF0.0
aF0.0
aF0.0
aF0.0
aF0.0
aF0.0
aF0.014084507042253521
aF0.0
aF0.0
aF0.0
aF0.0
aF0.0
aF0.0
aF0.0
aF0.0
aF0.0
aF0.0
aF0.0
aF0.0
aF0.0
aF0.0
aF0.0
aF0.014084507042253521
aF0.0
aF0.0
aF0.0
aF0.0
aF0.0
aF0.0
aF0.0
aF0.0
aF0.0
aF0.0
aF0.0
aF0.0
aF0.0
aF0.0
aF0.014084507042253521
aF0.014084507042253521
aF0.0
asI72
(lp77
F0.2361111111111111
aF0.16666666666666666
aF0.09722222222222222
aF0.06481481481481481
aF0.046296296296296294
aF0.037037037037037035
aF0.041666666666666664
aF0.027777777777777776
aF0.013888888888888888
aF0.027777777777777776
aF0.023148148148148147
aF0.018518518518518517
aF0.018518518518518517
aF0.023148148148148147
aF0.009259259259259259
aF0.004629629629629629
aF0.009259259259259259
aF0.009259259259259259
aF0.0
aF0.0
aF0.013888888888888888
aF0.0
aF0.009259259259259259
aF0.004629629629629629
aF0.0
aF0.004629629629629629
aF0.004629629629629629
aF0.0
aF0.0
aF0.0
aF0.0
aF0.004629629629629629
aF0.0
aF0.0
aF0.0
aF0.0
aF0.013888888888888888
aF0.0
aF0.0
aF0.0
aF0.0
aF0.0
aF0.0
aF0.0
aF0.0
aF0.0
aF0.004629629629629629
aF0.004629629629629629
aF0.0
aF0.0
aF0.004629629629629629
aF0.0
aF0.004629629629629629
aF0.0
aF0.0
aF0.004629629629629629
aF0.0
aF0.009259259259259259
aF0.004629629629629629
aF0.0
aF0.0
aF0.0
aF0.0
aF0.0
aF0.0
aF0.0
aF0.004629629629629629
aF0.0
aF0.0
aF0.004629629629629629
aF0.0
aF0.0
aF0.0
aF0.0
aF0.0
aF0.004629629629629629
aF0.0
aF0.004629629629629629
aF0.004629629629629629
aF0.0
aF0.0
aF0.0
aF0.0
aF0.0
aF0.009259259259259259
aF0.0
asI73
(lp78
F0.3561643835616438
aF0.0821917808219178
aF0.0821917808219178
aF0.0684931506849315
aF0.0547945205479452
aF0.0410958904109589
aF0.0136986301369863
aF0.0273972602739726
aF0.0547945205479452
aF0.0136986301369863
aF0.0410958904109589
aF0.0136986301369863
aF0.0136986301369863
aF0.0273972602739726
aF0.0136986301369863
aF0.0
aF0.0136986301369863
aF0.0
aF0.0136986301369863
aF0.0
aF0.0136986301369863
aF0.0136986301369863
aF0.0
aF0.0
aF0.0
aF0.0
aF0.0
aF0.0
aF0.0136986301369863
aF0.0
aF0.0
aF0.0
aF0.0
aF0.0
aF0.0
aF0.0
aF0.0
aF0.0
aF0.0
aF0.0136986301369863
aF0.0136986301369863
aF0.0
aF0.0
aF0.0
aF0.0
aF0.0
aF0.0
aF0.0
aF0.0
aF0.0
aF0.0
aF0.0
aF0.0
aF0.0
aF0.0
aF0.0
aF0.0
aF0.0
aF0.0
aF0.0
aF0.0
aF0.0
aF0.0
aF0.0
aF0.0
aF0.0
aF0.0
aF0.0
aF0.0
aF0.0
aF0.0
aF0.0
aF0.0
aF0.0
aF0.0
aF0.0
aF0.0
aF0.0
aF0.0
aF0.0
aF0.0
aF0.0
aF0.0
aF0.0
aF0.0
aF0.0
asI74
(lp79
F0.3918918918918919
aF0.13513513513513514
aF0.13513513513513514
aF0.05405405405405406
aF0.08108108108108109
aF0.0
aF0.02702702702702703
aF0.02702702702702703
aF0.0
aF0.0
aF0.02702702702702703
aF0.04054054054054054
aF0.013513513513513514
aF0.0
aF0.0
aF0.0
aF0.0
aF0.0
aF0.013513513513513514
aF0.0
aF0.0
aF0.0
aF0.0
aF0.0
aF0.0
aF0.013513513513513514
aF0.013513513513513514
aF0.0
aF0.0
aF0.0
aF0.0
aF0.0
aF0.0
aF0.0
aF0.0
aF0.0
aF0.0
aF0.0
aF0.0
aF0.0
aF0.0
aF0.0
aF0.0
aF0.0
aF0.0
aF0.0
aF0.0
aF0.0
aF0.0
aF0.0
aF0.0
aF0.0
aF0.0
aF0.0
aF0.0
aF0.0
aF0.0
aF0.0
aF0.0
aF0.0
aF0.0
aF0.0
aF0.0
aF0.0
aF0.0
aF0.0
aF0.013513513513513514
aF0.013513513513513514
aF0.0
aF0.0
aF0.0
aF0.0
aF0.0
aF0.0
aF0.0
aF0.0
aF0.0
aF0.0
aF0.0
aF0.0
aF0.0
aF0.0
aF0.0
aF0.0
aF0.0
aF0.0
asI331
(lp80
F0.2175226586102719
aF0.1510574018126888
aF0.08761329305135952
aF0.08761329305135952
aF0.06042296072507553
aF0.045317220543806644
aF0.027190332326283987
aF0.03323262839879154
aF0.030211480362537766
aF0.015105740181268883
aF0.030211480362537766
aF0.012084592145015106
aF0.01812688821752266
aF0.015105740181268883
aF0.0030211480362537764
aF0.006042296072507553
aF0.006042296072507553
aF0.00906344410876133
aF0.00906344410876133
aF0.00906344410876133
aF0.006042296072507553
aF0.0030211480362537764
aF0.0030211480362537764
aF0.006042296072507553
aF0.0030211480362537764
aF0.006042296072507553
aF0.0030211480362537764
aF0.0
aF0.0030211480362537764
aF0.0
aF0.0030211480362537764
aF0.0
aF0.0030211480362537764
aF0.0
aF0.012084592145015106
aF0.006042296072507553
aF0.0030211480362537764
aF0.0030211480362537764
aF0.0
aF0.0
aF0.006042296072507553
aF0.0
aF0.0
aF0.0030211480362537764
aF0.0
aF0.0
aF0.0
aF0.006042296072507553
aF0.0
aF0.0
aF0.0
aF0.0030211480362537764
aF0.0030211480362537764
aF0.0
aF0.0030211480362537764
aF0.0030211480362537764
aF0.0030211480362537764
aF0.0030211480362537764
aF0.0
aF0.0
aF0.0
aF0.0
aF0.0
aF0.0
aF0.0
aF0.0
aF0.0
aF0.0
aF0.0
aF0.0
aF0.0
aF0.0
aF0.0
aF0.0030211480362537764
aF0.0030211480362537764
aF0.0
aF0.0030211480362537764
aF0.0030211480362537764
aF0.0030211480362537764
aF0.0030211480362537764
aF0.0
aF0.0030211480362537764
aF0.0030211480362537764
aF0.0030211480362537764
aF0.0030211480362537764
aF0.0
asI76
(lp81
F0.2631578947368421
aF0.19736842105263158
aF0.14473684210526316
aF0.09210526315789473
aF0.02631578947368421
aF0.05263157894736842
aF0.0
aF0.013157894736842105
aF0.039473684210526314
aF0.0
aF0.013157894736842105
aF0.0
aF0.02631578947368421
aF0.0
aF0.0
aF0.0
aF0.0
aF0.0
aF0.0
aF0.0
aF0.0
aF0.0
aF0.0
aF0.013157894736842105
aF0.0
aF0.013157894736842105
aF0.0
aF0.0
aF0.013157894736842105
aF0.0
aF0.0
aF0.0
aF0.0
aF0.0
aF0.0
aF0.02631578947368421
aF0.0
aF0.013157894736842105
aF0.0
aF0.0
aF0.0
aF0.0
aF0.013157894736842105
aF0.0
aF0.0
aF0.0
aF0.0
aF0.0
aF0.0
aF0.0
aF0.0
aF0.0
aF0.0
aF0.0
aF0.013157894736842105
aF0.0
aF0.0
aF0.0
aF0.0
aF0.0
aF0.0
aF0.0
aF0.0
aF0.0
aF0.0
aF0.0
aF0.0
aF0.0
aF0.0
aF0.0
aF0.0
aF0.0
aF0.0
aF0.013157894736842105
aF0.0
aF0.0
aF0.013157894736842105
aF0.0
aF0.0
aF0.0
aF0.0
aF0.0
aF0.0
aF0.0
aF0.0
aF0.0
asI77
(lp82
F0.2857142857142857
aF0.19480519480519481
aF0.1038961038961039
aF0.07792207792207792
aF0.05194805194805195
aF0.03896103896103896
aF0.025974025974025976
aF0.025974025974025976
aF0.03896103896103896
aF0.025974025974025976
aF0.012987012987012988
aF0.012987012987012988
aF0.012987012987012988
aF0.0
aF0.0
aF0.0
aF0.025974025974025976
aF0.0
aF0.0
aF0.0
aF0.012987012987012988
aF0.0
aF0.0
aF0.0
aF0.0
aF0.0
aF0.0
aF0.0
aF0.0
aF0.0
aF0.0
aF0.0
aF0.0
aF0.0
aF0.012987012987012988
aF0.0
aF0.0
aF0.0
aF0.0
aF0.0
aF0.012987012987012988
aF0.0
aF0.0
aF0.0
aF0.0
aF0.0
aF0.0
aF0.0
aF0.0
aF0.0
aF0.0
aF0.0
aF0.0
aF0.0
aF0.0
aF0.0
aF0.0
aF0.0
aF0.0
aF0.0
aF0.0
aF0.0
aF0.0
aF0.0
aF0.0
aF0.0
aF0.012987012987012988
aF0.0
aF0.0
aF0.0
aF0.0
aF0.0
aF0.0
aF0.012987012987012988
aF0.0
aF0.0
aF0.0
aF0.0
aF0.0
aF0.0
aF0.0
aF0.0
aF0.0
aF0.0
aF0.0
aF0.0
asI82
(lp83
F0.2865853658536585
aF0.15853658536585366
aF0.0975609756097561
aF0.054878048780487805
aF0.0975609756097561
aF0.06097560975609756
aF0.018292682926829267
aF0.018292682926829267
aF0.018292682926829267
aF0.006097560975609756
aF0.012195121951219513
aF0.018292682926829267
aF0.012195121951219513
aF0.012195121951219513
aF0.006097560975609756
aF0.012195121951219513
aF0.0
aF0.0
aF0.0
aF0.0
aF0.0
aF0.012195121951219513
aF0.0
aF0.0
aF0.0
aF0.0
aF0.006097560975609756
aF0.0
aF0.0
aF0.0
aF0.0
aF0.0
aF0.006097560975609756
aF0.006097560975609756
aF0.0
aF0.0
aF0.0
aF0.0
aF0.006097560975609756
aF0.0
aF0.0
aF0.0
aF0.0
aF0.0
aF0.0
aF0.0
aF0.0
aF0.0
aF0.0
aF0.0
aF0.0
aF0.0
aF0.0
aF0.0
aF0.006097560975609756
aF0.0
aF0.006097560975609756
aF0.0
aF0.0
aF0.0
aF0.0
aF0.006097560975609756
aF0.0
aF0.006097560975609756
aF0.0
aF0.006097560975609756
aF0.0
aF0.006097560975609756
aF0.0
aF0.0
aF0.0
aF0.0
aF0.0
aF0.0
aF0.006097560975609756
aF0.0
aF0.0
aF0.006097560975609756
aF0.006097560975609756
aF0.0
aF0.006097560975609756
aF0.0
aF0.006097560975609756
aF0.006097560975609756
aF0.0
aF0.0
asI83
(lp84
F0.20481927710843373
aF0.13253012048192772
aF0.060240963855421686
aF0.10843373493975904
aF0.08433734939759036
aF0.03614457831325301
aF0.024096385542168676
aF0.024096385542168676
aF0.012048192771084338
aF0.012048192771084338
aF0.024096385542168676
aF0.03614457831325301
aF0.012048192771084338
aF0.0
aF0.0
aF0.0
aF0.04819277108433735
aF0.0
aF0.024096385542168676
aF0.012048192771084338
aF0.0
aF0.012048192771084338
aF0.0
aF0.0
aF0.0
aF0.0
aF0.012048192771084338
aF0.0
aF0.0
aF0.012048192771084338
aF0.0
aF0.0
aF0.0
aF0.0
aF0.0
aF0.0
aF0.0
aF0.0
aF0.0
aF0.0
aF0.012048192771084338
aF0.012048192771084338
aF0.0
aF0.0
aF0.0
aF0.0
aF0.0
aF0.0
aF0.0
aF0.0
aF0.0
aF0.0
aF0.0
aF0.0
aF0.012048192771084338
aF0.0
aF0.0
aF0.0
aF0.0
aF0.012048192771084338
aF0.0
aF0.0
aF0.0
aF0.012048192771084338
aF0.0
aF0.0
aF0.012048192771084338
aF0.0
aF0.0
aF0.0
aF0.0
aF0.0
aF0.0
aF0.0
aF0.0
aF0.0
aF0.0
aF0.0
aF0.0
aF0.0
aF0.0
aF0.0
aF0.012048192771084338
aF0.012048192771084338
aF0.012048192771084338
aF0.0
asI86
(lp85
F0.18604651162790697
aF0.13953488372093023
aF0.09302325581395349
aF0.06976744186046512
aF0.06976744186046512
aF0.046511627906976744
aF0.011627906976744186
aF0.03488372093023256
aF0.011627906976744186
aF0.03488372093023256
aF0.05813953488372093
aF0.011627906976744186
aF0.011627906976744186
aF0.011627906976744186
aF0.011627906976744186
aF0.011627906976744186
aF0.011627906976744186
aF0.011627906976744186
aF0.0
aF0.0
aF0.0
aF0.0
aF0.0
aF0.0
aF0.011627906976744186
aF0.011627906976744186
aF0.0
aF0.0
aF0.0
aF0.0
aF0.011627906976744186
aF0.0
aF0.011627906976744186
aF0.011627906976744186
aF0.011627906976744186
aF0.0
aF0.0
aF0.0
aF0.0
aF0.011627906976744186
aF0.0
aF0.023255813953488372
aF0.0
aF0.0
aF0.0
aF0.0
aF0.0
aF0.0
aF0.0
aF0.0
aF0.0
aF0.0
aF0.0
aF0.0
aF0.0
aF0.0
aF0.0
aF0.0
aF0.0
aF0.011627906976744186
aF0.011627906976744186
aF0.0
aF0.0
aF0.0
aF0.0
aF0.0
aF0.0
aF0.0
aF0.0
aF0.0
aF0.0
aF0.0
aF0.0
aF0.011627906976744186
aF0.0
aF0.0
aF0.0
aF0.0
aF0.011627906976744186
aF0.0
aF0.0
aF0.0
aF0.011627906976744186
aF0.0
aF0.0
aF0.0
asI87
(lp86
F0.26436781609195403
aF0.25287356321839083
aF0.11494252873563218
aF0.05747126436781609
aF0.05747126436781609
aF0.04597701149425287
aF0.034482758620689655
aF0.011494252873563218
aF0.011494252873563218
aF0.022988505747126436
aF0.011494252873563218
aF0.0
aF0.011494252873563218
aF0.011494252873563218
aF0.011494252873563218
aF0.0
aF0.011494252873563218
aF0.0
aF0.011494252873563218
aF0.0
aF0.011494252873563218
aF0.0
aF0.0
aF0.0
aF0.0
aF0.0
aF0.0
aF0.0
aF0.0
aF0.0
aF0.0
aF0.0
aF0.011494252873563218
aF0.0
aF0.0
aF0.0
aF0.0
aF0.0
aF0.0
aF0.0
aF0.0
aF0.0
aF0.0
aF0.0
aF0.011494252873563218
aF0.0
aF0.0
aF0.0
aF0.0
aF0.0
aF0.0
aF0.0
aF0.0
aF0.0
aF0.0
aF0.0
aF0.0
aF0.0
aF0.0
aF0.0
aF0.0
aF0.011494252873563218
aF0.0
aF0.0
aF0.0
aF0.0
aF0.0
aF0.0
aF0.0
aF0.0
aF0.0
aF0.0
aF0.0
aF0.0
aF0.0
aF0.0
aF0.0
aF0.0
aF0.0
aF0.0
aF0.0
aF0.0
aF0.0
aF0.0
aF0.011494252873563218
aF0.0
asI95
(lp87
F0.21052631578947367
aF0.09473684210526316
aF0.1368421052631579
aF0.10526315789473684
aF0.031578947368421054
aF0.05263157894736842
aF0.042105263157894736
aF0.031578947368421054
aF0.031578947368421054
aF0.021052631578947368
aF0.031578947368421054
aF0.0
aF0.0
aF0.031578947368421054
aF0.021052631578947368
aF0.010526315789473684
aF0.021052631578947368
aF0.010526315789473684
aF0.0
aF0.0
aF0.0
aF0.0
aF0.0
aF0.0
aF0.0
aF0.010526315789473684
aF0.010526315789473684
aF0.0
aF0.0
aF0.010526315789473684
aF0.0
aF0.0
aF0.010526315789473684
aF0.010526315789473684
aF0.010526315789473684
aF0.0
aF0.0
aF0.0
aF0.0
aF0.0
aF0.0
aF0.0
aF0.0
aF0.0
aF0.0
aF0.0
aF0.0
aF0.0
aF0.0
aF0.0
aF0.0
aF0.0
aF0.0
aF0.0
aF0.0
aF0.0
aF0.0
aF0.0
aF0.0
aF0.0
aF0.0
aF0.0
aF0.0
aF0.0
aF0.0
aF0.0
aF0.0
aF0.0
aF0.0
aF0.0
aF0.0
aF0.0
aF0.010526315789473684
aF0.010526315789473684
aF0.0
aF0.0
aF0.0
aF0.0
aF0.0
aF0.0
aF0.010526315789473684
aF0.010526315789473684
aF0.010526315789473684
aF0.0
aF0.0
aF0.0
asI96
(lp88
F0.25
aF0.11458333333333333
aF0.13541666666666666
aF0.08333333333333333
aF0.041666666666666664
aF0.041666666666666664
aF0.0625
aF0.041666666666666664
aF0.010416666666666666
aF0.010416666666666666
aF0.010416666666666666
aF0.0
aF0.010416666666666666
aF0.0
aF0.020833333333333332
aF0.020833333333333332
aF0.010416666666666666
aF0.0
aF0.0
aF0.010416666666666666
aF0.0
aF0.010416666666666666
aF0.0
aF0.0
aF0.0
aF0.010416666666666666
aF0.010416666666666666
aF0.0
aF0.0
aF0.0
aF0.0
aF0.010416666666666666
aF0.010416666666666666
aF0.010416666666666666
aF0.0
aF0.0
aF0.010416666666666666
aF0.0
aF0.0
aF0.0
aF0.0
aF0.0
aF0.0
aF0.010416666666666666
aF0.0
aF0.0
aF0.0
aF0.010416666666666666
aF0.0
aF0.0
aF0.0
aF0.0
aF0.0
aF0.0
aF0.0
aF0.0
aF0.0
aF0.0
aF0.0
aF0.0
aF0.0
aF0.0
aF0.0
aF0.0
aF0.0
aF0.0
aF0.0
aF0.0
aF0.0
aF0.0
aF0.0
aF0.0
aF0.0
aF0.0
aF0.0
aF0.0
aF0.0
aF0.010416666666666666
aF0.0
aF0.010416666666666666
aF0.0
aF0.010416666666666666
aF0.0
aF0.0
aF0.0
aF0.0
asI100
(lp89
F0.27
aF0.15
aF0.09
aF0.11
aF0.05
aF0.04
aF0.04
aF0.04
aF0.01
aF0.02
aF0.02
aF0.0
aF0.02
aF0.01
aF0.01
aF0.01
aF0.01
aF0.0
aF0.01
aF0.0
aF0.01
aF0.01
aF0.0
aF0.0
aF0.0
aF0.0
aF0.0
aF0.0
aF0.01
aF0.0
aF0.0
aF0.02
aF0.0
aF0.0
aF0.0
aF0.0
aF0.0
aF0.0
aF0.0
aF0.0
aF0.01
aF0.0
aF0.0
aF0.01
aF0.0
aF0.0
aF0.0
aF0.0
aF0.0
aF0.0
aF0.0
aF0.0
aF0.0
aF0.0
aF0.0
aF0.0
aF0.0
aF0.0
aF0.0
aF0.0
aF0.0
aF0.0
aF0.0
aF0.0
aF0.0
aF0.0
aF0.0
aF0.0
aF0.0
aF0.0
aF0.01
aF0.0
aF0.0
aF0.0
aF0.0
aF0.01
aF0.0
aF0.0
aF0.0
aF0.0
aF0.0
aF0.0
aF0.0
aF0.0
aF0.0
aF0.0
asI102
(lp90
F0.20588235294117646
aF0.14215686274509803
aF0.11764705882352941
aF0.049019607843137254
aF0.08823529411764706
aF0.04411764705882353
aF0.03431372549019608
aF0.00980392156862745
aF0.029411764705882353
aF0.014705882352941176
aF0.00980392156862745
aF0.00980392156862745
aF0.024509803921568627
aF0.00980392156862745
aF0.00980392156862745
aF0.004901960784313725
aF0.00980392156862745
aF0.004901960784313725
aF0.014705882352941176
aF0.014705882352941176
aF0.0
aF0.00980392156862745
aF0.004901960784313725
aF0.0
aF0.0
aF0.0196078431372549
aF0.00980392156862745
aF0.0
aF0.004901960784313725
aF0.0
aF0.0
aF0.004901960784313725
aF0.00980392156862745
aF0.0
aF0.00980392156862745
aF0.0
aF0.0
aF0.004901960784313725
aF0.0
aF0.0
aF0.0
aF0.004901960784313725
aF0.0
aF0.00980392156862745
aF0.0
aF0.0
aF0.004901960784313725
aF0.0
aF0.0
aF0.0
aF0.0
aF0.004901960784313725
aF0.0
aF0.0
aF0.004901960784313725
aF0.0
aF0.0
aF0.0
aF0.0
aF0.0
aF0.0
aF0.0
aF0.0
aF0.0
aF0.004901960784313725
aF0.004901960784313725
aF0.0
aF0.0
aF0.004901960784313725
aF0.0
aF0.004901960784313725
aF0.0
aF0.0
aF0.0
aF0.0
aF0.004901960784313725
aF0.0
aF0.004901960784313725
aF0.004901960784313725
aF0.004901960784313725
aF0.0
aF0.0
aF0.0
aF0.0
aF0.0
aF0.004901960784313725
asI107
(lp91
F0.2523364485981308
aF0.1308411214953271
aF0.12149532710280374
aF0.07476635514018691
aF0.07476635514018691
aF0.06542056074766354
aF0.037383177570093455
aF0.04672897196261682
aF0.028037383177570093
aF0.028037383177570093
aF0.009345794392523364
aF0.0
aF0.0
aF0.009345794392523364
aF0.009345794392523364
aF0.009345794392523364
aF0.018691588785046728
aF0.0
aF0.018691588785046728
aF0.0
aF0.0
aF0.0
aF0.0
aF0.0
aF0.0
aF0.0
aF0.009345794392523364
aF0.0
aF0.0
aF0.0
aF0.0
aF0.0
aF0.009345794392523364
aF0.009345794392523364
aF0.0
aF0.0
aF0.0
aF0.0
aF0.0
aF0.0
aF0.0
aF0.0
aF0.0
aF0.0
aF0.0
aF0.0
aF0.0
aF0.0
aF0.0
aF0.0
aF0.0
aF0.0
aF0.0
aF0.0
aF0.009345794392523364
aF0.0
aF0.0
aF0.0
aF0.0
aF0.0
aF0.0
aF0.0
aF0.0
aF0.0
aF0.0
aF0.0
aF0.009345794392523364
aF0.0
aF0.0
aF0.0
aF0.0
aF0.0
aF0.0
aF0.0
aF0.0
aF0.0
aF0.0
aF0.0
aF0.0
aF0.0
aF0.0
aF0.0
aF0.0
aF0.009345794392523364
aF0.0
aF0.009345794392523364
asI110
(lp92
F0.2
aF0.17272727272727273
aF0.12727272727272726
aF0.07272727272727272
aF0.03636363636363636
aF0.02727272727272727
aF0.03636363636363636
aF0.045454545454545456
aF0.00909090909090909
aF0.02727272727272727
aF0.01818181818181818
aF0.02727272727272727
aF0.01818181818181818
aF0.00909090909090909
aF0.01818181818181818
aF0.00909090909090909
aF0.00909090909090909
aF0.02727272727272727
aF0.0
aF0.00909090909090909
aF0.00909090909090909
aF0.00909090909090909
aF0.0
aF0.0
aF0.0
aF0.00909090909090909
aF0.0
aF0.0
aF0.0
aF0.0
aF0.0
aF0.0
aF0.0
aF0.0
aF0.0
aF0.0
aF0.0
aF0.0
aF0.0
aF0.0
aF0.0
aF0.0
aF0.0
aF0.0
aF0.0
aF0.0
aF0.0
aF0.0
aF0.00909090909090909
aF0.0
aF0.0
aF0.0
aF0.0
aF0.0
aF0.0
aF0.0
aF0.0
aF0.00909090909090909
aF0.00909090909090909
aF0.0
aF0.0
aF0.00909090909090909
aF0.0
aF0.0
aF0.0
aF0.0
aF0.0
aF0.0
aF0.0
aF0.0
aF0.0
aF0.0
aF0.00909090909090909
aF0.00909090909090909
aF0.0
aF0.0
aF0.0
aF0.0
aF0.0
aF0.00909090909090909
aF0.0
aF0.0
aF0.0
aF0.00909090909090909
aF0.0
aF0.0
asI122
(lp93
F0.27049180327868855
aF0.16393442622950818
aF0.05737704918032787
aF0.06557377049180328
aF0.04918032786885246
aF0.04918032786885246
aF0.05737704918032787
aF0.040983606557377046
aF0.03278688524590164
aF0.01639344262295082
aF0.00819672131147541
aF0.00819672131147541
aF0.00819672131147541
aF0.00819672131147541
aF0.00819672131147541
aF0.01639344262295082
aF0.03278688524590164
aF0.01639344262295082
aF0.0
aF0.0
aF0.01639344262295082
aF0.0
aF0.0
aF0.0
aF0.0
aF0.00819672131147541
aF0.0
aF0.0
aF0.00819672131147541
aF0.0
aF0.0
aF0.0
aF0.00819672131147541
aF0.0
aF0.0
aF0.0
aF0.0
aF0.0
aF0.0
aF0.0
aF0.00819672131147541
aF0.0
aF0.00819672131147541
aF0.0
aF0.0
aF0.0
aF0.0
aF0.0
aF0.0
aF0.0
aF0.0
aF0.0
aF0.0
aF0.0
aF0.0
aF0.0
aF0.0
aF0.0
aF0.0
aF0.0
aF0.0
aF0.0
aF0.0
aF0.0
aF0.00819672131147541
aF0.0
aF0.0
aF0.0
aF0.0
aF0.0
aF0.0
aF0.0
aF0.0
aF0.0
aF0.0
aF0.0
aF0.0
aF0.0
aF0.0
aF0.0
aF0.0
aF0.00819672131147541
aF0.0
aF0.00819672131147541
aF0.0
aF0.00819672131147541
asI127
(lp94
F0.25196850393700787
aF0.11023622047244094
aF0.12598425196850394
aF0.09448818897637795
aF0.06299212598425197
aF0.023622047244094488
aF0.05511811023622047
aF0.015748031496062992
aF0.007874015748031496
aF0.031496062992125984
aF0.015748031496062992
aF0.047244094488188976
aF0.007874015748031496
aF0.007874015748031496
aF0.007874015748031496
aF0.0
aF0.015748031496062992
aF0.0
aF0.007874015748031496
aF0.007874015748031496
aF0.007874015748031496
aF0.0
aF0.015748031496062992
aF0.0
aF0.007874015748031496
aF0.0
aF0.0
aF0.0
aF0.0
aF0.0
aF0.0
aF0.0
aF0.0
aF0.007874015748031496
aF0.0
aF0.0
aF0.0
aF0.0
aF0.007874015748031496
aF0.0
aF0.0
aF0.0
aF0.0
aF0.0
aF0.0
aF0.0
aF0.0
aF0.0
aF0.0
aF0.0
aF0.0
aF0.0
aF0.0
aF0.0
aF0.0
aF0.0
aF0.0
aF0.007874015748031496
aF0.0
aF0.0
aF0.0
aF0.007874015748031496
aF0.0
aF0.0
aF0.0
aF0.0
aF0.007874015748031496
aF0.0
aF0.0
aF0.0
aF0.0
aF0.007874015748031496
aF0.0
aF0.007874015748031496
aF0.0
aF0.0
aF0.0
aF0.0
aF0.0
aF0.0
aF0.0
aF0.0
aF0.007874015748031496
aF0.0
aF0.0
aF0.007874015748031496
asI143
(lp95
F0.2517482517482518
aF0.1888111888111888
aF0.09090909090909091
aF0.13286713286713286
aF0.04895104895104895
aF0.03496503496503497
aF0.013986013986013986
aF0.02097902097902098
aF0.0
aF0.013986013986013986
aF0.013986013986013986
aF0.02097902097902098
aF0.02097902097902098
aF0.0
aF0.006993006993006993
aF0.006993006993006993
aF0.0
aF0.013986013986013986
aF0.0
aF0.0
aF0.0
aF0.006993006993006993
aF0.0
aF0.006993006993006993
aF0.0
aF0.0
aF0.0
aF0.006993006993006993
aF0.0
aF0.0
aF0.0
aF0.0
aF0.0
aF0.0
aF0.006993006993006993
aF0.0
aF0.006993006993006993
aF0.006993006993006993
aF0.0
aF0.0
aF0.013986013986013986
aF0.0
aF0.006993006993006993
aF0.006993006993006993
aF0.0
aF0.0
aF0.0
aF0.0
aF0.0
aF0.0
aF0.0
aF0.0
aF0.0
aF0.0
aF0.0
aF0.0
aF0.0
aF0.0
aF0.0
aF0.0
aF0.0
aF0.006993006993006993
aF0.0
aF0.0
aF0.0
aF0.0
aF0.006993006993006993
aF0.0
aF0.006993006993006993
aF0.0
aF0.0
aF0.0
aF0.0
aF0.006993006993006993
aF0.0
aF0.0
aF0.0
aF0.0
aF0.0
aF0.006993006993006993
aF0.0
aF0.006993006993006993
aF0.0
aF0.0
aF0.0
aF0.006993006993006993
asI150
(lp96
F0.24666666666666667
aF0.16
aF0.10666666666666667
aF0.06666666666666667
aF0.02666666666666667
aF0.05333333333333334
aF0.06
aF0.04666666666666667
aF0.02666666666666667
aF0.02666666666666667
aF0.013333333333333334
aF0.02666666666666667
aF0.0
aF0.0
aF0.013333333333333334
aF0.0
aF0.013333333333333334
aF0.006666666666666667
aF0.006666666666666667
aF0.006666666666666667
aF0.0
aF0.0
aF0.006666666666666667
aF0.0
aF0.0
aF0.0
aF0.0
aF0.0
aF0.0
aF0.0
aF0.006666666666666667
aF0.013333333333333334
aF0.0
aF0.0
aF0.006666666666666667
aF0.0
aF0.0
aF0.0
aF0.0
aF0.0
aF0.0
aF0.0
aF0.0
aF0.0
aF0.006666666666666667
aF0.0
aF0.0
aF0.0
aF0.0
aF0.0
aF0.0
aF0.0
aF0.0
aF0.0
aF0.006666666666666667
aF0.0
aF0.0
aF0.0
aF0.0
aF0.0
aF0.0
aF0.0
aF0.0
aF0.0
aF0.0
aF0.0
aF0.0
aF0.0
aF0.0
aF0.0
aF0.0
aF0.006666666666666667
aF0.0
aF0.006666666666666667
aF0.0
aF0.006666666666666667
aF0.0
aF0.0
aF0.006666666666666667
aF0.0
aF0.006666666666666667
aF0.006666666666666667
aF0.0
aF0.0
aF0.0
aF0.006666666666666667
asI166
(lp97
F0.25301204819277107
aF0.16265060240963855
aF0.10240963855421686
aF0.10843373493975904
aF0.04819277108433735
aF0.024096385542168676
aF0.030120481927710843
aF0.03614457831325301
aF0.024096385542168676
aF0.018072289156626505
aF0.018072289156626505
aF0.006024096385542169
aF0.024096385542168676
aF0.0
aF0.012048192771084338
aF0.018072289156626505
aF0.012048192771084338
aF0.0
aF0.0
aF0.012048192771084338
aF0.0
aF0.0
aF0.0
aF0.0
aF0.012048192771084338
aF0.0
aF0.018072289156626505
aF0.0
aF0.0
aF0.006024096385542169
aF0.0
aF0.0
aF0.0
aF0.0
aF0.0
aF0.0
aF0.0
aF0.006024096385542169
aF0.006024096385542169
aF0.0
aF0.0
aF0.0
aF0.006024096385542169
aF0.0
aF0.0
aF0.0
aF0.0
aF0.012048192771084338
aF0.0
aF0.0
aF0.0
aF0.0
aF0.0
aF0.006024096385542169
aF0.0
aF0.0
aF0.0
aF0.0
aF0.0
aF0.0
aF0.0
aF0.0
aF0.0
aF0.0
aF0.0
aF0.0
aF0.006024096385542169
aF0.0
aF0.0
aF0.0
aF0.006024096385542169
aF0.0
aF0.0
aF0.0
aF0.0
aF0.0
aF0.0
aF0.0
aF0.0
aF0.006024096385542169
aF0.0
aF0.0
aF0.0
aF0.0
aF0.0
aF0.0
asI174
(lp98
F0.29310344827586204
aF0.1724137931034483
aF0.08045977011494253
aF0.034482758620689655
aF0.06321839080459771
aF0.040229885057471264
aF0.05172413793103448
aF0.011494252873563218
aF0.017241379310344827
aF0.017241379310344827
aF0.005747126436781609
aF0.011494252873563218
aF0.011494252873563218
aF0.005747126436781609
aF0.011494252873563218
aF0.005747126436781609
aF0.0
aF0.005747126436781609
aF0.011494252873563218
aF0.0
aF0.0
aF0.011494252873563218
aF0.011494252873563218
aF0.0
aF0.0
aF0.0
aF0.005747126436781609
aF0.011494252873563218
aF0.005747126436781609
aF0.0
aF0.0
aF0.011494252873563218
aF0.005747126436781609
aF0.005747126436781609
aF0.0
aF0.005747126436781609
aF0.0
aF0.0
aF0.0
aF0.0
aF0.0
aF0.0
aF0.0
aF0.0
aF0.0
aF0.0
aF0.0
aF0.0
aF0.0
aF0.0
aF0.005747126436781609
aF0.005747126436781609
aF0.0
aF0.005747126436781609
aF0.0
aF0.0
aF0.005747126436781609
aF0.0
aF0.005747126436781609
aF0.0
aF0.0
aF0.0
aF0.0
aF0.0
aF0.0
aF0.0
aF0.0
aF0.0
aF0.0
aF0.0
aF0.005747126436781609
aF0.005747126436781609
aF0.0
aF0.0
aF0.0
aF0.0
aF0.005747126436781609
aF0.0
aF0.005747126436781609
aF0.005747126436781609
aF0.0
aF0.0
aF0.0
aF0.005747126436781609
aF0.005747126436781609
aF0.005747126436781609
asI176
(lp99
F0.2159090909090909
aF0.16477272727272727
aF0.13068181818181818
aF0.08522727272727272
aF0.022727272727272728
aF0.056818181818181816
aF0.05113636363636364
aF0.028409090909090908
aF0.005681818181818182
aF0.022727272727272728
aF0.005681818181818182
aF0.011363636363636364
aF0.005681818181818182
aF0.005681818181818182
aF0.011363636363636364
aF0.005681818181818182
aF0.011363636363636364
aF0.022727272727272728
aF0.011363636363636364
aF0.0
aF0.0
aF0.0
aF0.005681818181818182
aF0.0
aF0.0
aF0.005681818181818182
aF0.0
aF0.005681818181818182
aF0.0
aF0.0
aF0.0
aF0.0
aF0.0
aF0.0
aF0.005681818181818182
aF0.0
aF0.005681818181818182
aF0.0
aF0.0
aF0.005681818181818182
aF0.005681818181818182
aF0.0
aF0.0
aF0.005681818181818182
aF0.0
aF0.0
aF0.0
aF0.005681818181818182
aF0.005681818181818182
aF0.0
aF0.005681818181818182
aF0.0
aF0.0
aF0.0
aF0.005681818181818182
aF0.0
aF0.011363636363636364
aF0.0
aF0.0
aF0.0
aF0.0
aF0.0
aF0.0
aF0.0
aF0.0
aF0.0
aF0.005681818181818182
aF0.005681818181818182
aF0.005681818181818182
aF0.0
aF0.005681818181818182
aF0.0
aF0.0
aF0.0
aF0.0
aF0.0
aF0.0
aF0.005681818181818182
aF0.0
aF0.0
aF0.0
aF0.0
aF0.0
aF0.005681818181818182
aF0.005681818181818182
aF0.005681818181818182
asI230
(lp100
F0.21304347826086956
aF0.1608695652173913
aF0.11739130434782609
aF0.0782608695652174
aF0.06521739130434782
aF0.05217391304347826
aF0.008695652173913044
aF0.0391304347826087
aF0.017391304347826087
aF0.021739130434782608
aF0.021739130434782608
aF0.013043478260869565
aF0.021739130434782608
aF0.004347826086956522
aF0.004347826086956522
aF0.008695652173913044
aF0.017391304347826087
aF0.004347826086956522
aF0.008695652173913044
aF0.008695652173913044
aF0.0
aF0.013043478260869565
aF0.004347826086956522
aF0.0
aF0.0
aF0.004347826086956522
aF0.004347826086956522
aF0.0
aF0.0
aF0.0
aF0.0
aF0.008695652173913044
aF0.008695652173913044
aF0.0
aF0.004347826086956522
aF0.0
aF0.0
aF0.008695652173913044
aF0.0
aF0.0
aF0.0
aF0.0
aF0.0
aF0.0
aF0.0
aF0.0
aF0.004347826086956522
aF0.0
aF0.0
aF0.0
aF0.0
aF0.0
aF0.0
aF0.004347826086956522
aF0.004347826086956522
aF0.0
aF0.0
aF0.004347826086956522
aF0.0
aF0.0
aF0.004347826086956522
aF0.0
aF0.0
aF0.0
aF0.0
aF0.0
aF0.004347826086956522
aF0.004347826086956522
aF0.0
aF0.0
aF0.0
aF0.0
aF0.0
aF0.0
aF0.004347826086956522
aF0.004347826086956522
aF0.004347826086956522
aF0.0
aF0.0
aF0.0
aF0.0
aF0.004347826086956522
aF0.004347826086956522
aF0.0
aF0.0
aF0.004347826086956522
asI234
(lp101
F0.29914529914529914
aF0.14957264957264957
aF0.09401709401709402
aF0.0811965811965812
aF0.042735042735042736
aF0.02564102564102564
aF0.05555555555555555
aF0.01282051282051282
aF0.01282051282051282
aF0.017094017094017096
aF0.029914529914529916
aF0.0
aF0.0
aF0.008547008547008548
aF0.0
aF0.021367521367521368
aF0.008547008547008548
aF0.004273504273504274
aF0.008547008547008548
aF0.008547008547008548
aF0.008547008547008548
aF0.008547008547008548
aF0.01282051282051282
aF0.004273504273504274
aF0.0
aF0.004273504273504274
aF0.004273504273504274
aF0.004273504273504274
aF0.0
aF0.008547008547008548
aF0.0
aF0.004273504273504274
aF0.0
aF0.004273504273504274
aF0.004273504273504274
aF0.0
aF0.004273504273504274
aF0.0
aF0.0
aF0.004273504273504274
aF0.0
aF0.0
aF0.004273504273504274
aF0.0
aF0.0
aF0.0
aF0.0
aF0.0
aF0.004273504273504274
aF0.0
aF0.0
aF0.0
aF0.0
aF0.0
aF0.0
aF0.0
aF0.0
aF0.0
aF0.0
aF0.0
aF0.004273504273504274
aF0.008547008547008548
aF0.0
aF0.0
aF0.0
aF0.0
aF0.0
aF0.004273504273504274
aF0.0
aF0.004273504273504274
aF0.0
aF0.0
aF0.0
aF0.0
aF0.0
aF0.0
aF0.0
aF0.0
aF0.0
aF0.0
aF0.0
aF0.004273504273504274
aF0.004273504273504274
aF0.0
aF0.0
aF0.004273504273504274
assS'popt'
p102
cnumpy.core.multiarray
_reconstruct
p103
(cnumpy
ndarray
p104
(I0
tp105
S'b'
p106
tp107
Rp108
(I1
(I3
tp109
g8
I00
S'\xa6\xf4\xe1r{\xbb\x04@\x90\x17iE5 \x98\xc0\xeaG\x86K"u\x94\xc0'
p110
tp111
bs.