(dp0
S'count'
p1
(lp2
F1994.7766666666669
aF1142.0633333333333
aF714.4633333333331
aF475.3099999999999
aF333.86666666666684
aF242.2300000000002
aF181.91666666666669
aF139.57666666666674
aF109.91333333333334
aF87.92999999999996
aF71.36999999999998
aF58.9833333333333
aF49.43999999999996
aF41.279999999999966
aF34.75666666666668
aF29.99666666666664
aF26.093333333333323
aF22.826666666666654
aF20.123333333333324
aF17.32333333333334
aF15.439999999999989
aF14.096666666666664
aF11.913333333333334
aF11.266666666666653
aF9.49666666666666
aF8.979999999999997
aF7.733333333333333
aF7.343333333333336
aF6.7366666666666575
aF5.9799999999999915
aF5.863333333333328
aF5.293333333333326
aF4.756666666666659
aF4.386666666666662
aF4.123333333333327
aF3.9099999999999917
aF3.5066666666666633
aF3.1833333333333322
aF3.173333333333332
aF2.833333333333332
aF2.5800000000000014
aF2.3266666666666698
aF2.3600000000000017
aF2.2566666666666673
aF2.086666666666667
aF1.8733333333333353
aF1.8166666666666693
aF1.7666666666666677
aF1.6333333333333346
aF1.6100000000000008
aF1.4366666666666674
aF1.340000000000001
aF1.3300000000000007
aF1.2166666666666677
aF1.1600000000000004
aF1.1200000000000012
aF1.0933333333333337
aF1.0266666666666664
aF0.9566666666666658
aF1.006666666666666
aF0.9900000000000001
aF0.86
aF0.7699999999999997
aF0.896666666666666
aF0.7499999999999998
aF0.6866666666666663
aF0.6433333333333338
aF0.7233333333333332
aF0.5933333333333335
aF0.6100000000000001
aF0.6233333333333332
aF0.5766666666666669
aF0.6300000000000002
aF0.5500000000000004
aF0.5133333333333341
aF0.5166666666666675
aF0.42666666666666686
aF0.4133333333333336
aF0.46666666666666723
aF0.4000000000000002
aF0.40333333333333365
aF0.38333333333333347
aF0.4100000000000002
aF0.37333333333333346
aF0.4000000000000004
aF0.2666666666666664
aF0.4233333333333337
aF0.29999999999999993
aF0.35333333333333355
aF0.2999999999999999
aF0.3500000000000003
aF0.30666666666666664
aF0.28333333333333316
aF0.25999999999999973
aF0.24999999999999972
aF0.2933333333333333
aF0.24999999999999967
aF0.26333333333333314
aF0.19666666666666646
aF0.25666666666666643
aF0.27333333333333315
aF0.2566666666666664
aF0.18333333333333313
aF0.24333333333333307
aF0.21666666666666642
aF0.17333333333333314
aF0.19333333333333313
aF0.13333333333333325
aF0.20666666666666647
aF0.1933333333333331
aF0.16999999999999985
aF0.1799999999999998
aF0.13999999999999987
aF0.17333333333333314
aF0.18333333333333315
aF0.1633333333333332
aF0.16333333333333316
aF0.15333333333333318
aF0.14666666666666653
aF0.16666666666666652
aF0.1433333333333332
aF0.18666666666666648
aF0.14333333333333323
aF0.12333333333333327
aF0.1166666666666666
aF0.11333333333333324
aF0.1433333333333332
aF0.15666666666666654
aF0.1066666666666666
aF0.1433333333333332
aF0.13999999999999987
aF0.14666666666666653
aF0.11666666666666659
aF0.12333333333333324
aF0.09666666666666661
aF0.0833333333333333
aF0.07999999999999997
aF0.12333333333333324
aF0.07666666666666665
aF0.09999999999999994
aF0.10666666666666659
aF0.08666666666666663
aF0.0833333333333333
aF0.07999999999999997
aF0.09333333333333328
aF0.07999999999999997
aF0.07666666666666665
aF0.08999999999999996
aF0.09999999999999994
aF0.06333333333333334
aF0.08666666666666663
aF0.09666666666666662
aF0.06333333333333334
aF0.10333333333333329
aF0.06666666666666667
aF0.1066666666666666
aF0.08999999999999996
aF0.07666666666666665
aF0.07333333333333332
aF0.11999999999999991
aF0.08666666666666663
aF0.07999999999999997
aF0.07333333333333332
aF0.09666666666666662
aF0.05333333333333334
aF0.07666666666666666
aF0.06666666666666667
aF0.06333333333333334
aF0.05333333333333334
aF0.03333333333333333
aF0.043333333333333335
aF0.06333333333333334
aF0.05666666666666667
aF0.06333333333333334
aF0.05333333333333334
aF0.06999999999999999
aF0.05666666666666667
aF0.07333333333333332
aF0.06666666666666667
aF0.05
aF0.03666666666666667
aF0.060000000000000005
aF0.03666666666666667
aF0.05333333333333334
aF0.060000000000000005
aF0.04666666666666667
aF0.043333333333333335
aF0.04666666666666667
aF0.060000000000000005
aF0.05666666666666667
aF0.023333333333333334
aF0.05333333333333334
aF0.030000000000000002
aF0.030000000000000002
aF0.04666666666666667
aF0.02666666666666667
aF0.04
aF0.04
aF0.06333333333333334
aF0.03666666666666667
aF0.05666666666666667
aF0.05
aF0.05
aF0.043333333333333335
aF0.05333333333333334
aF0.04666666666666667
aF0.04
aF0.04666666666666667
aF0.030000000000000002
aF0.03333333333333333
aF0.03333333333333333
aF0.030000000000000002
aF0.013333333333333334
aF0.03666666666666667
aF0.02
aF0.02
aF0.060000000000000005
aF0.04
aF0.016666666666666666
aF0.030000000000000002
aF0.023333333333333334
aF0.02666666666666667
aF0.016666666666666666
aF0.04
aF0.030000000000000002
aF0.023333333333333334
aF0.023333333333333334
aF0.02
aF0.03333333333333333
aF0.04
aF0.02
aF0.023333333333333334
aF0.03333333333333333
aF0.02666666666666667
aF0.01
aF0.016666666666666666
aF0.030000000000000002
aF0.04
aF0.023333333333333334
aF0.013333333333333334
aF0.030000000000000002
aF0.016666666666666666
aF0.02666666666666667
aF0.03333333333333333
aF0.013333333333333334
aF0.016666666666666666
aF0.013333333333333334
aF0.02666666666666667
aF0.023333333333333334
aF0.02
aF0.030000000000000002
aF0.016666666666666666
aF0.023333333333333334
aF0.013333333333333334
aF0.02
aF0.02
aF0.013333333333333334
aF0.013333333333333334
aF0.02666666666666667
aF0.02666666666666667
aF0.030000000000000002
aF0.02
aF0.02
aF0.023333333333333334
aF0.013333333333333334
aF0.023333333333333334
aF0.023333333333333334
aF0.016666666666666666
aF0.006666666666666667
aF0.013333333333333334
aF0.030000000000000002
aF0.016666666666666666
aF0.013333333333333334
aF0.006666666666666667
aF0.023333333333333334
aF0.02
aF0.030000000000000002
aF0.02
aF0.02666666666666667
aF0.023333333333333334
aF0.01
aF0.013333333333333334
aF0.013333333333333334
aF0.023333333333333334
aF0.006666666666666667
aF0.006666666666666667
aF0.013333333333333334
aF0.023333333333333334
aF0.023333333333333334
aF0.013333333333333334
aF0.0033333333333333335
aF0.01
aF0.0033333333333333335
aF0.01
aF0.0033333333333333335
aF0.0033333333333333335
aF0.0033333333333333335
aF0.01
aF0.0033333333333333335
aF0.01
aF0.006666666666666667
aF0.01
aF0.006666666666666667
aF0.01
aF0.01
aF0.01
aF0.016666666666666666
aF0.01
aF0.0033333333333333335
aF0.01
aF0.013333333333333334
aF0.01
aF0.016666666666666666
aF0.006666666666666667
aF0.016666666666666666
aF0.006666666666666667
aF0.01
aF0.013333333333333334
aF0.0033333333333333335
aF0.006666666666666667
aF0.006666666666666667
aF0.013333333333333334
aF0.016666666666666666
aF0.006666666666666667
aF0.0033333333333333335
aF0.0033333333333333335
aF0.0033333333333333335
aF0.0033333333333333335
aF0.01
aF0.0033333333333333335
aF0.01
aF0.01
aF0.006666666666666667
aF0.01
aF0.0033333333333333335
aF0.006666666666666667
aF0.006666666666666667
aF0.0033333333333333335
aF0.006666666666666667
aF0.013333333333333334
aF0.006666666666666667
aF0.006666666666666667
aF0.0033333333333333335
aF0.01
aF0.0033333333333333335
aF0.0033333333333333335
aF0.006666666666666667
aF0.0033333333333333335
aF0.006666666666666667
aF0.0033333333333333335
aF0.006666666666666667
aF0.0033333333333333335
aF0.0033333333333333335
aF0.006666666666666667
aF0.006666666666666667
aF0.006666666666666667
aF0.0033333333333333335
aF0.006666666666666667
aF0.0033333333333333335
aF0.0033333333333333335
aF0.0033333333333333335
aF0.0033333333333333335
aF0.0033333333333333335
aF0.0033333333333333335
aF0.0033333333333333335
aF0.0033333333333333335
aF0.006666666666666667
aF0.0033333333333333335
aF0.0033333333333333335
aF0.0033333333333333335
aF0.006666666666666667
aF0.0033333333333333335
aF0.0033333333333333335
aF0.0033333333333333335
aF0.0033333333333333335
aF0.0033333333333333335
aF0.0033333333333333335
aF0.0033333333333333335
aF0.0033333333333333335
aF0.0033333333333333335
aF0.0033333333333333335
aF0.0033333333333333335
aF0.0033333333333333335
aF0.0033333333333333335
aF0.0033333333333333335
asS'index'
p3
(lp4
I4
aI5
aI6
aI7
aI8
aI9
aI10
aI11
aI12
aI13
aI14
aI15
aI16
aI17
aI18
aI19
aI20
aI21
aI22
aI23
aI24
aI25
aI26
aI27
aI28
aI29
aI30
aI31
aI32
aI33
aI34
aI35
aI36
aI37
aI38
aI39
aI40
aI41
aI42
aI43
aI44
aI45
aI46
aI47
aI48
aI49
aI50
aI51
aI52
aI53
aI54
aI55
aI56
aI57
aI58
aI59
aI60
aI61
aI62
aI63
aI64
aI65
aI66
aI67
aI68
aI69
aI70
aI71
aI72
aI73
aI74
aI75
aI76
aI77
aI78
aI79
aI80
aI81
aI82
aI83
aI84
aI85
aI86
aI87
aI88
aI89
aI90
aI91
aI92
aI93
aI94
aI95
aI96
aI97
aI98
aI99
aI100
aI101
aI102
aI103
aI104
aI105
aI106
aI107
aI108
aI109
aI110
aI111
aI112
aI113
aI114
aI115
aI116
aI117
aI118
aI119
aI120
aI121
aI122
aI123
aI124
aI125
aI126
aI127
aI128
aI129
aI130
aI131
aI132
aI133
aI134
aI135
aI136
aI137
aI138
aI139
aI140
aI141
aI142
aI143
aI144
aI145
aI146
aI147
aI148
aI149
aI150
aI151
aI152
aI153
aI154
aI155
aI156
aI157
aI158
aI159
aI160
aI161
aI162
aI163
aI164
aI165
aI166
aI167
aI168
aI169
aI170
aI171
aI172
aI173
aI174
aI175
aI176
aI177
aI178
aI179
aI180
aI181
aI182
aI183
aI184
aI185
aI186
aI187
aI188
aI189
aI190
aI191
aI192
aI193
aI194
aI195
aI196
aI197
aI198
aI199
aI200
aI201
aI202
aI203
aI204
aI205
aI206
aI207
aI208
aI209
aI210
aI211
aI212
aI213
aI214
aI215
aI216
aI217
aI218
aI219
aI220
aI221
aI222
aI223
aI224
aI225
aI226
aI227
aI228
aI229
aI230
aI231
aI232
aI233
aI234
aI235
aI236
aI237
aI238
aI239
aI240
aI241
aI242
aI243
aI244
aI245
aI246
aI247
aI248
aI249
aI250
aI251
aI252
aI253
aI254
aI255
aI256
aI257
aI258
aI259
aI260
aI261
aI262
aI263
aI264
aI265
aI266
aI267
aI268
aI269
aI270
aI271
aI272
aI273
aI274
aI275
aI276
aI277
aI278
aI279
aI280
aI281
aI282
aI283
aI284
aI285
aI286
aI287
aI288
aI289
aI290
aI291
aI292
aI293
aI294
aI296
aI297
aI298
aI299
aI300
aI301
aI302
aI303
aI304
aI305
aI306
aI307
aI308
aI309
aI310
aI311
aI313
aI314
aI315
aI317
aI318
aI319
aI320
aI321
aI322
aI324
aI325
aI327
aI328
aI329
aI330
aI331
aI334
aI335
aI336
aI337
aI338
aI339
aI340
aI341
aI342
aI343
aI346
aI347
aI348
aI349
aI350
aI351
aI352
aI353
aI355
aI356
aI357
aI359
aI360
aI361
aI362
aI365
aI366
aI367
aI368
aI369
aI371
aI373
aI376
aI377
aI378
aI379
aI380
aI381
aI382
aI383
aI384
aI385
aI389
aI393
aI394
aI395
aI397
aI398
aI400
aI405
aI406
aI418
aI424
aI427
aI428
aI434
aI437
aI440
aI456
aI502
aI543
aI548
asS'prob'
p5
(lp6
F0.1994776666666667
aF0.11420633333333333
aF0.07144633333333332
aF0.04753099999999999
aF0.03338666666666668
aF0.02422300000000002
aF0.01819166666666667
aF0.013957666666666674
aF0.010991333333333334
aF0.008792999999999997
aF0.0071369999999999975
aF0.00589833333333333
aF0.004943999999999996
aF0.004127999999999996
aF0.003475666666666668
aF0.002999666666666664
aF0.0026093333333333324
aF0.0022826666666666655
aF0.0020123333333333326
aF0.0017323333333333342
aF0.001543999999999999
aF0.0014096666666666665
aF0.0011913333333333333
aF0.0011266666666666654
aF0.000949666666666666
aF0.0008979999999999997
aF0.0007733333333333333
aF0.0007343333333333337
aF0.0006736666666666657
aF0.0005979999999999991
aF0.0005863333333333328
aF0.0005293333333333326
aF0.0004756666666666659
aF0.00043866666666666625
aF0.0004123333333333327
aF0.00039099999999999915
aF0.00035066666666666634
aF0.00031833333333333323
aF0.0003173333333333332
aF0.0002833333333333332
aF0.00025800000000000015
aF0.00023266666666666696
aF0.00023600000000000015
aF0.00022566666666666674
aF0.00020866666666666668
aF0.00018733333333333354
aF0.00018166666666666694
aF0.00017666666666666677
aF0.00016333333333333347
aF0.00016100000000000006
aF0.00014366666666666675
aF0.00013400000000000009
aF0.00013300000000000006
aF0.00012166666666666677
aF0.00011600000000000004
aF0.00011200000000000012
aF0.00010933333333333337
aF0.00010266666666666664
aF9.566666666666658e-05
aF0.00010066666666666659
aF9.900000000000001e-05
aF8.6e-05
aF7.699999999999997e-05
aF8.966666666666659e-05
aF7.499999999999998e-05
aF6.866666666666664e-05
aF6.433333333333337e-05
aF7.233333333333332e-05
aF5.933333333333335e-05
aF6.100000000000001e-05
aF6.233333333333332e-05
aF5.766666666666669e-05
aF6.300000000000003e-05
aF5.5000000000000036e-05
aF5.1333333333333407e-05
aF5.166666666666675e-05
aF4.266666666666668e-05
aF4.133333333333336e-05
aF4.6666666666666726e-05
aF4.000000000000002e-05
aF4.033333333333336e-05
aF3.833333333333335e-05
aF4.100000000000002e-05
aF3.7333333333333344e-05
aF4.0000000000000044e-05
aF2.666666666666664e-05
aF4.2333333333333364e-05
aF2.9999999999999994e-05
aF3.5333333333333356e-05
aF2.9999999999999987e-05
aF3.500000000000003e-05
aF3.066666666666666e-05
aF2.8333333333333315e-05
aF2.5999999999999975e-05
aF2.499999999999997e-05
aF2.933333333333333e-05
aF2.4999999999999967e-05
aF2.6333333333333314e-05
aF1.9666666666666646e-05
aF2.5666666666666642e-05
aF2.7333333333333314e-05
aF2.566666666666664e-05
aF1.8333333333333313e-05
aF2.4333333333333306e-05
aF2.1666666666666643e-05
aF1.7333333333333315e-05
aF1.9333333333333313e-05
aF1.3333333333333325e-05
aF2.0666666666666646e-05
aF1.933333333333331e-05
aF1.6999999999999983e-05
aF1.799999999999998e-05
aF1.3999999999999988e-05
aF1.7333333333333315e-05
aF1.8333333333333316e-05
aF1.6333333333333318e-05
aF1.6333333333333315e-05
aF1.5333333333333318e-05
aF1.4666666666666653e-05
aF1.666666666666665e-05
aF1.433333333333332e-05
aF1.866666666666665e-05
aF1.4333333333333324e-05
aF1.2333333333333326e-05
aF1.166666666666666e-05
aF1.1333333333333324e-05
aF1.433333333333332e-05
aF1.5666666666666653e-05
aF1.066666666666666e-05
aF1.433333333333332e-05
aF1.3999999999999988e-05
aF1.4666666666666653e-05
aF1.1666666666666658e-05
aF1.2333333333333324e-05
aF9.666666666666662e-06
aF8.33333333333333e-06
aF7.999999999999998e-06
aF1.2333333333333324e-05
aF7.666666666666664e-06
aF9.999999999999994e-06
aF1.0666666666666659e-05
aF8.666666666666663e-06
aF8.33333333333333e-06
aF7.999999999999998e-06
aF9.333333333333328e-06
aF7.999999999999998e-06
aF7.666666666666664e-06
aF8.999999999999995e-06
aF9.999999999999994e-06
aF6.333333333333334e-06
aF8.666666666666663e-06
aF9.666666666666662e-06
aF6.333333333333334e-06
aF1.033333333333333e-05
aF6.666666666666667e-06
aF1.066666666666666e-05
aF8.999999999999995e-06
aF7.666666666666664e-06
aF7.333333333333332e-06
aF1.1999999999999992e-05
aF8.666666666666663e-06
aF7.999999999999998e-06
aF7.333333333333332e-06
aF9.666666666666662e-06
aF5.333333333333334e-06
aF7.666666666666666e-06
aF6.666666666666667e-06
aF6.333333333333334e-06
aF5.333333333333334e-06
aF3.3333333333333333e-06
aF4.333333333333333e-06
aF6.333333333333334e-06
aF5.666666666666667e-06
aF6.333333333333334e-06
aF5.333333333333334e-06
aF6.999999999999999e-06
aF5.666666666666667e-06
aF7.333333333333332e-06
aF6.666666666666667e-06
aF5e-06
aF3.6666666666666666e-06
aF6e-06
aF3.6666666666666666e-06
aF5.333333333333334e-06
aF6e-06
aF4.666666666666667e-06
aF4.333333333333333e-06
aF4.666666666666667e-06
aF6e-06
aF5.666666666666667e-06
aF2.3333333333333336e-06
aF5.333333333333334e-06
aF3e-06
aF3e-06
aF4.666666666666667e-06
aF2.666666666666667e-06
aF4e-06
aF4e-06
aF6.333333333333334e-06
aF3.6666666666666666e-06
aF5.666666666666667e-06
aF5e-06
aF5e-06
aF4.333333333333333e-06
aF5.333333333333334e-06
aF4.666666666666667e-06
aF4e-06
aF4.666666666666667e-06
aF3e-06
aF3.3333333333333333e-06
aF3.3333333333333333e-06
aF3e-06
aF1.3333333333333334e-06
aF3.6666666666666666e-06
aF2e-06
aF2e-06
aF6e-06
aF4e-06
aF1.6666666666666667e-06
aF3e-06
aF2.3333333333333336e-06
aF2.666666666666667e-06
aF1.6666666666666667e-06
aF4e-06
aF3e-06
aF2.3333333333333336e-06
aF2.3333333333333336e-06
aF2e-06
aF3.3333333333333333e-06
aF4e-06
aF2e-06
aF2.3333333333333336e-06
aF3.3333333333333333e-06
aF2.666666666666667e-06
aF1e-06
aF1.6666666666666667e-06
aF3e-06
aF4e-06
aF2.3333333333333336e-06
aF1.3333333333333334e-06
aF3e-06
aF1.6666666666666667e-06
aF2.666666666666667e-06
aF3.3333333333333333e-06
aF1.3333333333333334e-06
aF1.6666666666666667e-06
aF1.3333333333333334e-06
aF2.666666666666667e-06
aF2.3333333333333336e-06
aF2e-06
aF3e-06
aF1.6666666666666667e-06
aF2.3333333333333336e-06
aF1.3333333333333334e-06
aF2e-06
aF2e-06
aF1.3333333333333334e-06
aF1.3333333333333334e-06
aF2.666666666666667e-06
aF2.666666666666667e-06
aF3e-06
aF2e-06
aF2e-06
aF2.3333333333333336e-06
aF1.3333333333333334e-06
aF2.3333333333333336e-06
aF2.3333333333333336e-06
aF1.6666666666666667e-06
aF6.666666666666667e-07
aF1.3333333333333334e-06
aF3e-06
aF1.6666666666666667e-06
aF1.3333333333333334e-06
aF6.666666666666667e-07
aF2.3333333333333336e-06
aF2e-06
aF3e-06
aF2e-06
aF2.666666666666667e-06
aF2.3333333333333336e-06
aF1e-06
aF1.3333333333333334e-06
aF1.3333333333333334e-06
aF2.3333333333333336e-06
aF6.666666666666667e-07
aF6.666666666666667e-07
aF1.3333333333333334e-06
aF2.3333333333333336e-06
aF2.3333333333333336e-06
aF1.3333333333333334e-06
aF3.3333333333333335e-07
aF1e-06
aF3.3333333333333335e-07
aF1e-06
aF3.3333333333333335e-07
aF3.3333333333333335e-07
aF3.3333333333333335e-07
aF1e-06
aF3.3333333333333335e-07
aF1e-06
aF6.666666666666667e-07
aF1e-06
aF6.666666666666667e-07
aF1e-06
aF1e-06
aF1e-06
aF1.6666666666666667e-06
aF1e-06
aF3.3333333333333335e-07
aF1e-06
aF1.3333333333333334e-06
aF1e-06
aF1.6666666666666667e-06
aF6.666666666666667e-07
aF1.6666666666666667e-06
aF6.666666666666667e-07
aF1e-06
aF1.3333333333333334e-06
aF3.3333333333333335e-07
aF6.666666666666667e-07
aF6.666666666666667e-07
aF1.3333333333333334e-06
aF1.6666666666666667e-06
aF6.666666666666667e-07
aF3.3333333333333335e-07
aF3.3333333333333335e-07
aF3.3333333333333335e-07
aF3.3333333333333335e-07
aF1e-06
aF3.3333333333333335e-07
aF1e-06
aF1e-06
aF6.666666666666667e-07
aF1e-06
aF3.3333333333333335e-07
aF6.666666666666667e-07
aF6.666666666666667e-07
aF3.3333333333333335e-07
aF6.666666666666667e-07
aF1.3333333333333334e-06
aF6.666666666666667e-07
aF6.666666666666667e-07
aF3.3333333333333335e-07
aF1e-06
aF3.3333333333333335e-07
aF3.3333333333333335e-07
aF6.666666666666667e-07
aF3.3333333333333335e-07
aF6.666666666666667e-07
aF3.3333333333333335e-07
aF6.666666666666667e-07
aF3.3333333333333335e-07
aF3.3333333333333335e-07
aF6.666666666666667e-07
aF6.666666666666667e-07
aF6.666666666666667e-07
aF3.3333333333333335e-07
aF6.666666666666667e-07
aF3.3333333333333335e-07
aF3.3333333333333335e-07
aF3.3333333333333335e-07
aF3.3333333333333335e-07
aF3.3333333333333335e-07
aF3.3333333333333335e-07
aF3.3333333333333335e-07
aF3.3333333333333335e-07
aF6.666666666666667e-07
aF3.3333333333333335e-07
aF3.3333333333333335e-07
aF3.3333333333333335e-07
aF6.666666666666667e-07
aF3.3333333333333335e-07
aF3.3333333333333335e-07
aF3.3333333333333335e-07
aF3.3333333333333335e-07
aF3.3333333333333335e-07
aF3.3333333333333335e-07
aF3.3333333333333335e-07
aF3.3333333333333335e-07
aF3.3333333333333335e-07
aF3.3333333333333335e-07
aF3.3333333333333335e-07
aF3.3333333333333335e-07
aF3.3333333333333335e-07
aF3.3333333333333335e-07
asS'kmean'
p7
F4.797642666666665
sS'popt'
p8
cnumpy.core.multiarray
_reconstruct
p9
(cnumpy
ndarray
p10
(I0
tp11
S'b'
p12
tp13
Rp14
(I1
(I2
tp15
cnumpy
dtype
p16
(S'f8'
p17
I0
I1
tp18
Rp19
(I3
S'<'
p20
NNNI-1
I-1
I0
tp21
bI00
S'\x8d\xa4\x08A\xfe\xb6\x04@\x99\x05\x1ce\x97\x0f\x1d@'
p22
tp23
bs.