(dp0
S'count'
p1
(lp2
I3992
aI2026
aI1130
aI744
aI447
aI327
aI252
aI188
aI129
aI115
aI88
aI52
aI54
aI41
aI42
aI46
aI29
aI16
aI27
aI25
aI23
aI14
aI12
aI10
aI13
aI12
aI14
aI6
aI9
aI8
aI4
aI8
aI8
aI8
aI2
aI2
aI5
aI6
aI3
aI1
aI3
aI3
aI1
aI2
aI1
aI2
aI1
aI3
aI3
aI1
aI1
aI1
aI1
aI4
aI1
aI1
aI1
aI1
aI1
aI2
aI1
aI2
aI1
aI1
aI2
aI1
aI2
aI1
aI2
aI1
aI1
aI1
aI1
aI1
aI1
aI1
aI1
aI1
aI1
aI1
aI1
aI1
aI1
aI1
asS'index'
p3
(lp4
I3
aI4
aI5
aI6
aI7
aI8
aI9
aI10
aI11
aI12
aI13
aI14
aI15
aI16
aI17
aI18
aI19
aI20
aI21
aI22
aI23
aI24
aI25
aI26
aI27
aI28
aI29
aI30
aI31
aI32
aI33
aI34
aI35
aI36
aI37
aI38
aI39
aI40
aI41
aI42
aI43
aI44
aI45
aI46
aI47
aI48
aI49
aI50
aI51
aI52
aI54
aI55
aI58
aI59
aI60
aI61
aI62
aI63
aI64
aI70
aI71
aI73
aI74
aI76
aI78
aI80
aI82
aI89
aI92
aI98
aI107
aI108
aI112
aI116
aI127
aI128
aI134
aI135
aI166
aI205
aI210
aI231
aI263
aI295
asS'prob'
p5
(lp6
F0.3992
aF0.2026
aF0.113
aF0.0744
aF0.0447
aF0.0327
aF0.0252
aF0.0188
aF0.0129
aF0.0115
aF0.0088
aF0.0052
aF0.0054
aF0.0041
aF0.0042
aF0.0046
aF0.0029
aF0.0016
aF0.0027
aF0.0025
aF0.0023
aF0.0014
aF0.0012
aF0.001
aF0.0013
aF0.0012
aF0.0014
aF0.0006
aF0.0009
aF0.0008
aF0.0004
aF0.0008
aF0.0008
aF0.0008
aF0.0002
aF0.0002
aF0.0005
aF0.0006
aF0.0003
aF0.0001
aF0.0003
aF0.0003
aF0.0001
aF0.0002
aF0.0001
aF0.0002
aF0.0001
aF0.0003
aF0.0003
aF0.0001
aF0.0001
aF0.0001
aF0.0001
aF0.0004
aF0.0001
aF0.0001
aF0.0001
aF0.0001
aF0.0001
aF0.0002
aF0.0001
aF0.0002
aF0.0001
aF0.0001
aF0.0002
aF0.0001
aF0.0002
aF0.0001
aF0.0002
aF0.0001
aF0.0001
aF0.0001
aF0.0001
aF0.0001
aF0.0001
aF0.0001
aF0.0001
aF0.0001
aF0.0001
aF0.0001
aF0.0001
aF0.0001
aF0.0001
aF0.0001
asS'kmean'
p7
F5.998199999999997
sS'popt'
p8
cnumpy.core.multiarray
_reconstruct
p9
(cnumpy
ndarray
p10
(I0
tp11
S'b'
p12
tp13
Rp14
(I1
(I2
tp15
cnumpy
dtype
p16
(S'f8'
p17
I0
I1
tp18
Rp19
(I3
S'<'
p20
NNNI-1
I-1
I0
tp21
bI00
S'\x1fO\xfc\x10\x19\xf1\x03@\xca\x97p*c\xdb\x18@'
p22
tp23
bs.