(dp0
S'average_clustering'
p1
F0.032657662561973694
sS'links'
p2
I5981
sS'popt2'
p3
cnumpy.core.multiarray
_reconstruct
p4
(cnumpy
ndarray
p5
(I0
tp6
S'b'
p7
tp8
Rp9
(I1
(I3
tp10
cnumpy
dtype
p11
(S'f8'
p12
I0
I1
tp13
Rp14
(I3
S'<'
p15
NNNI-1
I-1
I0
tp16
bI00
S'\xf1\xeat!A\x08\x04@\xb1iS5\x1c\xaay@\xa6\xa0\x12\xbdW\x93x@'
p17
tp18
bsS'kmean'
p19
F5.981999999999999
sS'uncorrelated_prob'
p20
(lp21
F0.2001003009027081
aF0.1283851554663992
aF0.0986292209963223
aF0.0732196589769308
aF0.03978602474088933
aF0.06285523236375794
aF0.03911735205616851
aF0.031761952524239384
aF0.022066198595787363
aF0.022066198595787363
aF0.017385489802741558
aF0.01170177198261451
aF0.017552657973921765
aF0.010698762955533266
aF0.0056837178201270475
aF0.012036108324974924
aF0.012704781009695755
aF0.010030090270812437
aF0.02106318956870612
aF0.011033099297893681
aF0.01922433968572384
aF0.004012036108324975
aF0.008358408559010365
aF0.004513540621865597
aF0.009695753928452023
aF0.005182213306586426
aF0.01170177198261451
aF0.012704781009695755
aF0.006519558676028084
aF0.013707790036776997
aF0.007021063189568706
aF0.009027081243731194
aF0.016549648946840523
aF0.023905048478769644
asS'popt'
p22
g4
(g5
(I0
tp23
g7
tp24
Rp25
(I1
(I2
tp26
g14
I00
S'\xac2\r\x10:\xfd\x03@n3\xe5k\xf1\xd8\x18@'
p27
tp28
bsS'size'
p29
I1000
sS'count'
p30
(lp31
I399
aI192
aI118
aI73
aI34
aI47
aI26
aI19
aI12
aI11
aI8
aI5
aI7
aI4
aI2
aI4
aI4
aI3
aI6
aI3
aI5
aI1
aI2
aI1
aI2
aI1
aI2
aI2
aI1
aI2
aI1
aI1
aI1
aI1
asS'index'
p32
(lp33
I3
aI4
aI5
aI6
aI7
aI8
aI9
aI10
aI11
aI12
aI13
aI14
aI15
aI16
aI17
aI18
aI19
aI20
aI21
aI22
aI23
aI24
aI25
aI27
aI29
aI31
aI35
aI38
aI39
aI41
aI42
aI54
aI99
aI143
asS'dgr_dgr_func'
p34
(dp35
I3
(lp36
F0.0
aF0.10944026733500417
aF0.11027568922305764
aF0.09523809523809523
aF0.05430242272347535
aF0.09440267335004177
aF0.06015037593984962
aF0.047619047619047616
aF0.03759398496240601
aF0.03007518796992481
aF0.022556390977443608
aF0.01670843776106934
aF0.023391812865497075
aF0.014202172096908938
aF0.005847953216374269
aF0.015873015873015872
aF0.02172096908939014
aF0.013366750208855471
aF0.022556390977443608
aF0.015037593984962405
aF0.025898078529657476
aF0.009189640768588136
aF0.011695906432748537
aF0.005012531328320802
aF0.01670843776106934
aF0.005847953216374269
aF0.010025062656641603
aF0.015873015873015872
aF0.005012531328320802
aF0.01670843776106934
aF0.012531328320802004
aF0.012531328320802004
aF0.015873015873015872
aF0.026733500417710943
asI4
(lp37
F0.17057291666666666
aF0.09375
aF0.09635416666666667
aF0.059895833333333336
aF0.04296875
aF0.07421875
aF0.044270833333333336
aF0.036458333333333336
aF0.0234375
aF0.02734375
aF0.0234375
aF0.01953125
aF0.024739583333333332
aF0.006510416666666667
aF0.009114583333333334
aF0.006510416666666667
aF0.013020833333333334
aF0.015625
aF0.024739583333333332
aF0.009114583333333334
aF0.0234375
aF0.00390625
aF0.010416666666666666
aF0.0026041666666666665
aF0.01171875
aF0.0078125
aF0.016927083333333332
aF0.014322916666666666
aF0.00390625
aF0.015625
aF0.01171875
aF0.009114583333333334
aF0.022135416666666668
aF0.024739583333333332
asI5
(lp38
F0.22372881355932203
aF0.12542372881355932
aF0.08135593220338982
aF0.06949152542372881
aF0.04406779661016949
aF0.0576271186440678
aF0.03220338983050847
aF0.03728813559322034
aF0.020338983050847456
aF0.022033898305084745
aF0.01694915254237288
aF0.01864406779661017
aF0.013559322033898305
aF0.010169491525423728
aF0.006779661016949152
aF0.02711864406779661
aF0.00847457627118644
aF0.006779661016949152
aF0.010169491525423728
aF0.00847457627118644
aF0.00847457627118644
aF0.003389830508474576
aF0.011864406779661017
aF0.006779661016949152
aF0.003389830508474576
aF0.006779661016949152
aF0.00847457627118644
aF0.015254237288135594
aF0.006779661016949152
aF0.013559322033898305
aF0.006779661016949152
aF0.011864406779661017
aF0.020338983050847456
aF0.03559322033898305
asI6
(lp39
F0.2602739726027397
aF0.1050228310502283
aF0.09360730593607305
aF0.0319634703196347
aF0.0319634703196347
aF0.03881278538812785
aF0.0410958904109589
aF0.05707762557077625
aF0.0136986301369863
aF0.0182648401826484
aF0.02054794520547945
aF0.0045662100456621
aF0.0091324200913242
aF0.0228310502283105
aF0.00684931506849315
aF0.00684931506849315
aF0.01141552511415525
aF0.0136986301369863
aF0.02511415525114155
aF0.0228310502283105
aF0.02054794520547945
aF0.00228310502283105
aF0.01141552511415525
aF0.0045662100456621
aF0.00684931506849315
aF0.0045662100456621
aF0.0182648401826484
aF0.02054794520547945
aF0.00228310502283105
aF0.02511415525114155
aF0.0045662100456621
aF0.00684931506849315
aF0.0228310502283105
aF0.0136986301369863
asI7
(lp40
F0.27310924369747897
aF0.13865546218487396
aF0.1092436974789916
aF0.058823529411764705
aF0.03361344537815126
aF0.03361344537815126
aF0.01680672268907563
aF0.01680672268907563
aF0.008403361344537815
aF0.037815126050420166
aF0.01680672268907563
aF0.008403361344537815
aF0.01680672268907563
aF0.012605042016806723
aF0.008403361344537815
aF0.02100840336134454
aF0.012605042016806723
aF0.008403361344537815
aF0.004201680672268907
aF0.012605042016806723
aF0.029411764705882353
aF0.0
aF0.008403361344537815
aF0.0
aF0.008403361344537815
aF0.004201680672268907
aF0.004201680672268907
aF0.012605042016806723
aF0.008403361344537815
aF0.01680672268907563
aF0.008403361344537815
aF0.008403361344537815
aF0.025210084033613446
aF0.01680672268907563
asI8
(lp41
F0.300531914893617
aF0.15159574468085107
aF0.09042553191489362
aF0.04521276595744681
aF0.02127659574468085
aF0.05851063829787234
aF0.034574468085106384
aF0.013297872340425532
aF0.015957446808510637
aF0.010638297872340425
aF0.015957446808510637
aF0.0026595744680851063
aF0.023936170212765957
aF0.013297872340425532
aF0.0026595744680851063
aF0.013297872340425532
aF0.010638297872340425
aF0.007978723404255319
aF0.03723404255319149
aF0.0026595744680851063
aF0.023936170212765957
aF0.0
aF0.0026595744680851063
aF0.0
aF0.005319148936170213
aF0.005319148936170213
aF0.013297872340425532
aF0.0026595744680851063
aF0.013297872340425532
aF0.007978723404255319
aF0.007978723404255319
aF0.007978723404255319
aF0.007978723404255319
aF0.02925531914893617
asI9
(lp42
F0.3076923076923077
aF0.1452991452991453
aF0.0811965811965812
aF0.07692307692307693
aF0.017094017094017096
aF0.05555555555555555
aF0.008547008547008548
aF0.008547008547008548
aF0.01282051282051282
aF0.008547008547008548
aF0.004273504273504274
aF0.008547008547008548
aF0.017094017094017096
aF0.008547008547008548
aF0.004273504273504274
aF0.008547008547008548
aF0.008547008547008548
aF0.01282051282051282
aF0.029914529914529916
aF0.021367521367521368
aF0.004273504273504274
aF0.004273504273504274
aF0.004273504273504274
aF0.004273504273504274
aF0.021367521367521368
aF0.004273504273504274
aF0.017094017094017096
aF0.017094017094017096
aF0.004273504273504274
aF0.004273504273504274
aF0.004273504273504274
aF0.008547008547008548
aF0.02564102564102564
aF0.029914529914529916
asI10
(lp43
F0.3
aF0.14736842105263157
aF0.11578947368421053
aF0.13157894736842105
aF0.021052631578947368
aF0.02631578947368421
aF0.010526315789473684
aF0.021052631578947368
aF0.015789473684210527
aF0.015789473684210527
aF0.021052631578947368
aF0.0
aF0.005263157894736842
aF0.005263157894736842
aF0.0
aF0.0
aF0.010526315789473684
aF0.010526315789473684
aF0.005263157894736842
aF0.005263157894736842
aF0.02631578947368421
aF0.0
aF0.005263157894736842
aF0.005263157894736842
aF0.0
aF0.010526315789473684
aF0.010526315789473684
aF0.005263157894736842
aF0.005263157894736842
aF0.015789473684210527
aF0.0
aF0.010526315789473684
aF0.015789473684210527
aF0.021052631578947368
asI11
(lp44
F0.3409090909090909
aF0.13636363636363635
aF0.09090909090909091
aF0.045454545454545456
aF0.015151515151515152
aF0.045454545454545456
aF0.022727272727272728
aF0.022727272727272728
aF0.0
aF0.030303030303030304
aF0.022727272727272728
aF0.007575757575757576
aF0.015151515151515152
aF0.0
aF0.007575757575757576
aF0.015151515151515152
aF0.022727272727272728
aF0.007575757575757576
aF0.022727272727272728
aF0.015151515151515152
aF0.015151515151515152
aF0.0
aF0.007575757575757576
aF0.007575757575757576
aF0.007575757575757576
aF0.007575757575757576
aF0.015151515151515152
aF0.015151515151515152
aF0.0
aF0.0
aF0.007575757575757576
aF0.0
aF0.015151515151515152
aF0.015151515151515152
asI12
(lp45
F0.2727272727272727
aF0.1590909090909091
aF0.09848484848484848
aF0.06060606060606061
aF0.06818181818181818
aF0.030303030303030304
aF0.015151515151515152
aF0.022727272727272728
aF0.030303030303030304
aF0.0
aF0.007575757575757576
aF0.007575757575757576
aF0.015151515151515152
aF0.015151515151515152
aF0.0
aF0.015151515151515152
aF0.007575757575757576
aF0.007575757575757576
aF0.022727272727272728
aF0.015151515151515152
aF0.015151515151515152
aF0.0
aF0.0
aF0.007575757575757576
aF0.0
aF0.007575757575757576
aF0.007575757575757576
aF0.007575757575757576
aF0.022727272727272728
aF0.015151515151515152
aF0.0
aF0.007575757575757576
aF0.030303030303030304
aF0.007575757575757576
asI13
(lp46
F0.25961538461538464
aF0.17307692307692307
aF0.09615384615384616
aF0.08653846153846154
aF0.038461538461538464
aF0.057692307692307696
aF0.009615384615384616
aF0.038461538461538464
aF0.028846153846153848
aF0.009615384615384616
aF0.019230769230769232
aF0.009615384615384616
aF0.0
aF0.0
aF0.009615384615384616
aF0.009615384615384616
aF0.009615384615384616
aF0.0
aF0.009615384615384616
aF0.009615384615384616
aF0.019230769230769232
aF0.0
aF0.009615384615384616
aF0.0
aF0.0
aF0.0
aF0.0
aF0.009615384615384616
aF0.028846153846153848
aF0.009615384615384616
aF0.0
aF0.009615384615384616
aF0.009615384615384616
aF0.028846153846153848
asI14
(lp47
F0.2857142857142857
aF0.21428571428571427
aF0.15714285714285714
aF0.02857142857142857
aF0.02857142857142857
aF0.014285714285714285
aF0.02857142857142857
aF0.0
aF0.014285714285714285
aF0.014285714285714285
aF0.014285714285714285
aF0.0
aF0.02857142857142857
aF0.0
aF0.0
aF0.0
aF0.0
aF0.0
aF0.02857142857142857
aF0.0
aF0.02857142857142857
aF0.014285714285714285
aF0.0
aF0.02857142857142857
aF0.0
aF0.0
aF0.0
aF0.014285714285714285
aF0.0
aF0.014285714285714285
aF0.0
aF0.02857142857142857
aF0.014285714285714285
aF0.0
asI15
(lp48
F0.26666666666666666
aF0.18095238095238095
aF0.0761904761904762
aF0.0380952380952381
aF0.0380952380952381
aF0.08571428571428572
aF0.0380952380952381
aF0.009523809523809525
aF0.01904761904761905
aF0.01904761904761905
aF0.0
aF0.01904761904761905
aF0.0
aF0.0
aF0.009523809523809525
aF0.0
aF0.0
aF0.009523809523809525
aF0.009523809523809525
aF0.0
aF0.0380952380952381
aF0.009523809523809525
aF0.0
aF0.009523809523809525
aF0.01904761904761905
aF0.0
aF0.01904761904761905
aF0.009523809523809525
aF0.009523809523809525
aF0.009523809523809525
aF0.0
aF0.009523809523809525
aF0.02857142857142857
aF0.01904761904761905
asI16
(lp49
F0.265625
aF0.078125
aF0.09375
aF0.15625
aF0.046875
aF0.078125
aF0.03125
aF0.015625
aF0.0
aF0.03125
aF0.0
aF0.0
aF0.0
aF0.0
aF0.015625
aF0.0
aF0.03125
aF0.015625
aF0.0
aF0.0
aF0.0
aF0.0
aF0.0
aF0.0
aF0.03125
aF0.0
aF0.015625
aF0.015625
aF0.015625
aF0.0
aF0.015625
aF0.015625
aF0.0
aF0.03125
asI17
(lp50
F0.20588235294117646
aF0.20588235294117646
aF0.11764705882352941
aF0.08823529411764706
aF0.058823529411764705
aF0.029411764705882353
aF0.029411764705882353
aF0.0
aF0.029411764705882353
aF0.0
aF0.029411764705882353
aF0.0
aF0.029411764705882353
aF0.029411764705882353
aF0.0
aF0.058823529411764705
aF0.0
aF0.0
aF0.029411764705882353
aF0.0
aF0.0
aF0.0
aF0.029411764705882353
aF0.0
aF0.0
aF0.0
aF0.0
aF0.0
aF0.0
aF0.0
aF0.0
aF0.0
aF0.0
aF0.029411764705882353
asI18
(lp51
F0.2638888888888889
aF0.06944444444444445
aF0.2222222222222222
aF0.041666666666666664
aF0.06944444444444445
aF0.06944444444444445
aF0.027777777777777776
aF0.0
aF0.027777777777777776
aF0.027777777777777776
aF0.013888888888888888
aF0.0
aF0.0
aF0.0
aF0.027777777777777776
aF0.0
aF0.0
aF0.013888888888888888
aF0.013888888888888888
aF0.013888888888888888
aF0.027777777777777776
aF0.0
aF0.0
aF0.0
aF0.0
aF0.0
aF0.013888888888888888
aF0.013888888888888888
aF0.013888888888888888
aF0.0
aF0.0
aF0.0
aF0.0
aF0.027777777777777776
asI19
(lp52
F0.34210526315789475
aF0.13157894736842105
aF0.06578947368421052
aF0.06578947368421052
aF0.039473684210526314
aF0.05263157894736842
aF0.02631578947368421
aF0.02631578947368421
aF0.039473684210526314
aF0.013157894736842105
aF0.013157894736842105
aF0.0
aF0.0
aF0.02631578947368421
aF0.0
aF0.0
aF0.0
aF0.0
aF0.05263157894736842
aF0.013157894736842105
aF0.0
aF0.0
aF0.0
aF0.0
aF0.013157894736842105
aF0.0
aF0.013157894736842105
aF0.02631578947368421
aF0.0
aF0.013157894736842105
aF0.013157894736842105
aF0.0
aF0.0
aF0.013157894736842105
asI20
(lp53
F0.26666666666666666
aF0.2
aF0.06666666666666667
aF0.1
aF0.03333333333333333
aF0.05
aF0.05
aF0.03333333333333333
aF0.016666666666666666
aF0.016666666666666666
aF0.0
aF0.0
aF0.016666666666666666
aF0.016666666666666666
aF0.0
aF0.016666666666666666
aF0.0
aF0.0
aF0.016666666666666666
aF0.0
aF0.016666666666666666
aF0.0
aF0.016666666666666666
aF0.0
aF0.016666666666666666
aF0.0
aF0.0
aF0.0
aF0.0
aF0.0
aF0.0
aF0.016666666666666666
aF0.016666666666666666
aF0.016666666666666666
asI21
(lp54
F0.21428571428571427
aF0.15079365079365079
aF0.047619047619047616
aF0.0873015873015873
aF0.007936507936507936
aF0.1111111111111111
aF0.05555555555555555
aF0.007936507936507936
aF0.023809523809523808
aF0.023809523809523808
aF0.007936507936507936
aF0.015873015873015872
aF0.007936507936507936
aF0.0
aF0.007936507936507936
aF0.007936507936507936
aF0.031746031746031744
aF0.007936507936507936
aF0.031746031746031744
aF0.007936507936507936
aF0.023809523809523808
aF0.0
aF0.015873015873015872
aF0.015873015873015872
aF0.007936507936507936
aF0.0
aF0.015873015873015872
aF0.007936507936507936
aF0.0
aF0.0
aF0.007936507936507936
aF0.0
aF0.015873015873015872
aF0.031746031746031744
asI22
(lp55
F0.2727272727272727
aF0.10606060606060606
aF0.07575757575757576
aF0.15151515151515152
aF0.045454545454545456
aF0.015151515151515152
aF0.07575757575757576
aF0.015151515151515152
aF0.030303030303030304
aF0.030303030303030304
aF0.015151515151515152
aF0.0
aF0.0
aF0.0
aF0.0
aF0.015151515151515152
aF0.015151515151515152
aF0.0
aF0.015151515151515152
aF0.0
aF0.015151515151515152
aF0.0
aF0.0
aF0.0
aF0.015151515151515152
aF0.0
aF0.015151515151515152
aF0.0
aF0.0
aF0.030303030303030304
aF0.0
aF0.015151515151515152
aF0.0
aF0.030303030303030304
asI23
(lp56
F0.26956521739130435
aF0.1565217391304348
aF0.043478260869565216
aF0.0782608695652174
aF0.06086956521739131
aF0.0782608695652174
aF0.008695652173913044
aF0.043478260869565216
aF0.017391304347826087
aF0.017391304347826087
aF0.017391304347826087
aF0.017391304347826087
aF0.034782608695652174
aF0.0
aF0.0
aF0.017391304347826087
aF0.0
aF0.008695652173913044
aF0.02608695652173913
aF0.008695652173913044
aF0.0
aF0.0
aF0.008695652173913044
aF0.0
aF0.0
aF0.008695652173913044
aF0.0
aF0.008695652173913044
aF0.0
aF0.017391304347826087
aF0.008695652173913044
aF0.008695652173913044
aF0.0
aF0.034782608695652174
asI24
(lp57
F0.4583333333333333
aF0.125
aF0.08333333333333333
aF0.041666666666666664
aF0.0
aF0.0
aF0.041666666666666664
aF0.0
aF0.0
aF0.0
aF0.0
aF0.041666666666666664
aF0.041666666666666664
aF0.0
aF0.0
aF0.0
aF0.0
aF0.0
aF0.0
aF0.0
aF0.0
aF0.0
aF0.0
aF0.0
aF0.0
aF0.0
aF0.0
aF0.0
aF0.041666666666666664
aF0.041666666666666664
aF0.0
aF0.0
aF0.041666666666666664
aF0.041666666666666664
asI25
(lp58
F0.28
aF0.16
aF0.14
aF0.1
aF0.04
aF0.02
aF0.02
aF0.02
aF0.02
aF0.0
aF0.02
aF0.0
aF0.0
aF0.0
aF0.02
aF0.0
aF0.0
aF0.02
aF0.04
aF0.0
aF0.02
aF0.0
aF0.04
aF0.0
aF0.02
aF0.0
aF0.0
aF0.0
aF0.0
aF0.02
aF0.0
aF0.0
aF0.0
aF0.0
asI27
(lp59
F0.2222222222222222
aF0.07407407407407407
aF0.14814814814814814
aF0.07407407407407407
aF0.0
aF0.0
aF0.037037037037037035
aF0.037037037037037035
aF0.037037037037037035
aF0.037037037037037035
aF0.0
aF0.07407407407407407
aF0.037037037037037035
aF0.0
aF0.0
aF0.0
aF0.0
aF0.0
aF0.07407407407407407
aF0.0
aF0.0
aF0.0
aF0.0
aF0.0
aF0.0
aF0.0
aF0.0
aF0.0
aF0.0
aF0.037037037037037035
aF0.0
aF0.037037037037037035
aF0.037037037037037035
aF0.037037037037037035
asI29
(lp60
F0.3448275862068966
aF0.15517241379310345
aF0.034482758620689655
aF0.05172413793103448
aF0.034482758620689655
aF0.034482758620689655
aF0.08620689655172414
aF0.0
aF0.017241379310344827
aF0.0
aF0.0
aF0.0
aF0.034482758620689655
aF0.034482758620689655
aF0.0
aF0.0
aF0.017241379310344827
aF0.017241379310344827
aF0.017241379310344827
aF0.017241379310344827
aF0.0
aF0.0
aF0.017241379310344827
aF0.0
aF0.0
aF0.0
aF0.034482758620689655
aF0.0
aF0.0
aF0.017241379310344827
aF0.0
aF0.0
aF0.0
aF0.034482758620689655
asI31
(lp61
F0.22580645161290322
aF0.1935483870967742
aF0.12903225806451613
aF0.06451612903225806
aF0.03225806451612903
aF0.06451612903225806
aF0.03225806451612903
aF0.06451612903225806
aF0.03225806451612903
aF0.03225806451612903
aF0.0
aF0.0
aF0.0
aF0.0
aF0.0
aF0.0
aF0.0
aF0.0
aF0.0
aF0.0
aF0.03225806451612903
aF0.0
aF0.0
aF0.0
aF0.0
aF0.0
aF0.0
aF0.03225806451612903
aF0.0
aF0.03225806451612903
aF0.0
aF0.0
aF0.0
aF0.03225806451612903
asI35
(lp62
F0.17142857142857143
aF0.18571428571428572
aF0.07142857142857142
aF0.11428571428571428
aF0.014285714285714285
aF0.07142857142857142
aF0.05714285714285714
aF0.02857142857142857
aF0.02857142857142857
aF0.014285714285714285
aF0.0
aF0.0
aF0.02857142857142857
aF0.014285714285714285
aF0.0
aF0.014285714285714285
aF0.014285714285714285
aF0.0
aF0.02857142857142857
aF0.014285714285714285
aF0.0
aF0.0
aF0.0
aF0.0
aF0.02857142857142857
aF0.0
aF0.0
aF0.014285714285714285
aF0.02857142857142857
aF0.014285714285714285
aF0.0
aF0.0
aF0.014285714285714285
aF0.02857142857142857
asI38
(lp63
F0.25
aF0.14473684210526316
aF0.11842105263157894
aF0.11842105263157894
aF0.039473684210526314
aF0.013157894736842105
aF0.05263157894736842
aF0.013157894736842105
aF0.02631578947368421
aF0.013157894736842105
aF0.013157894736842105
aF0.013157894736842105
aF0.013157894736842105
aF0.013157894736842105
aF0.0
aF0.013157894736842105
aF0.02631578947368421
aF0.0
aF0.013157894736842105
aF0.0
aF0.013157894736842105
aF0.0
aF0.0
aF0.0
aF0.0
aF0.013157894736842105
aF0.013157894736842105
aF0.0
aF0.013157894736842105
aF0.0
aF0.0
aF0.013157894736842105
aF0.013157894736842105
aF0.02631578947368421
asI39
(lp64
F0.15384615384615385
aF0.07692307692307693
aF0.10256410256410256
aF0.02564102564102564
aF0.05128205128205128
aF0.1282051282051282
aF0.02564102564102564
aF0.02564102564102564
aF0.0
aF0.07692307692307693
aF0.07692307692307693
aF0.0
aF0.02564102564102564
aF0.02564102564102564
aF0.0
aF0.02564102564102564
aF0.0
aF0.0
aF0.0
aF0.0
aF0.0
aF0.02564102564102564
aF0.0
aF0.0
aF0.0
aF0.0
aF0.05128205128205128
aF0.02564102564102564
aF0.0
aF0.02564102564102564
aF0.0
aF0.0
aF0.02564102564102564
aF0.02564102564102564
asI41
(lp65
F0.24390243902439024
aF0.14634146341463414
aF0.0975609756097561
aF0.13414634146341464
aF0.04878048780487805
aF0.036585365853658534
aF0.012195121951219513
aF0.036585365853658534
aF0.0
aF0.024390243902439025
aF0.012195121951219513
aF0.012195121951219513
aF0.012195121951219513
aF0.0
aF0.0
aF0.0
aF0.012195121951219513
aF0.0
aF0.0
aF0.024390243902439025
aF0.024390243902439025
aF0.012195121951219513
aF0.012195121951219513
aF0.012195121951219513
aF0.012195121951219513
aF0.012195121951219513
aF0.012195121951219513
aF0.0
aF0.012195121951219513
aF0.0
aF0.0
aF0.0
aF0.012195121951219513
aF0.024390243902439025
asI42
(lp66
F0.35714285714285715
aF0.21428571428571427
aF0.09523809523809523
aF0.047619047619047616
aF0.047619047619047616
aF0.07142857142857142
aF0.023809523809523808
aF0.0
aF0.023809523809523808
aF0.0
aF0.0
aF0.0
aF0.0
aF0.023809523809523808
aF0.0
aF0.0
aF0.023809523809523808
aF0.0
aF0.023809523809523808
aF0.0
aF0.023809523809523808
aF0.0
aF0.0
aF0.0
aF0.0
aF0.0
aF0.0
aF0.0
aF0.0
aF0.0
aF0.0
aF0.0
aF0.023809523809523808
aF0.0
asI99
(lp67
F0.1919191919191919
aF0.1717171717171717
aF0.12121212121212122
aF0.10101010101010101
aF0.06060606060606061
aF0.030303030303030304
aF0.06060606060606061
aF0.030303030303030304
aF0.020202020202020204
aF0.04040404040404041
aF0.010101010101010102
aF0.010101010101010102
aF0.030303030303030304
aF0.0
aF0.0
aF0.0
aF0.0
aF0.010101010101010102
aF0.020202020202020204
aF0.0
aF0.0
aF0.010101010101010102
aF0.0
aF0.010101010101010102
aF0.0
aF0.0
aF0.010101010101010102
aF0.010101010101010102
aF0.010101010101010102
aF0.010101010101010102
aF0.010101010101010102
aF0.010101010101010102
aF0.0
aF0.010101010101010102
asI54
(lp68
F0.2777777777777778
aF0.12962962962962962
aF0.12962962962962962
aF0.05555555555555555
aF0.037037037037037035
aF0.05555555555555555
aF0.037037037037037035
aF0.037037037037037035
aF0.0
aF0.018518518518518517
aF0.018518518518518517
aF0.037037037037037035
aF0.018518518518518517
aF0.018518518518518517
aF0.0
aF0.0
aF0.0
aF0.018518518518518517
aF0.0
aF0.018518518518518517
aF0.018518518518518517
aF0.0
aF0.0
aF0.018518518518518517
aF0.0
aF0.0
aF0.0
aF0.018518518518518517
aF0.0
aF0.0
aF0.0
aF0.0
aF0.018518518518518517
aF0.018518518518518517
asI143
(lp69
F0.22377622377622378
aF0.13286713286713286
aF0.14685314685314685
aF0.04195804195804196
aF0.027972027972027972
aF0.07692307692307693
aF0.04895104895104895
aF0.027972027972027972
aF0.013986013986013986
aF0.006993006993006993
aF0.02097902097902098
aF0.0
aF0.013986013986013986
aF0.013986013986013986
aF0.006993006993006993
aF0.013986013986013986
aF0.006993006993006993
aF0.006993006993006993
aF0.027972027972027972
aF0.013986013986013986
aF0.027972027972027972
aF0.006993006993006993
aF0.0
aF0.006993006993006993
aF0.013986013986013986
aF0.006993006993006993
aF0.013986013986013986
aF0.013986013986013986
aF0.006993006993006993
aF0.013986013986013986
aF0.0
aF0.006993006993006993
aF0.006993006993006993
aF0.0
assS'assortativity'
p70
cnumpy.core.multiarray
scalar
p71
(g14
S'\xc5\x8b}\xdb8E\xab\xbf'
p72
tp73
Rp74
sS'kmin'
p75
I3
sS'kmax'
p76
I143
sS'prob'
p77
(lp78
F0.399
aF0.192
aF0.118
aF0.073
aF0.034
aF0.047
aF0.026
aF0.019
aF0.012
aF0.011
aF0.008
aF0.005
aF0.007
aF0.004
aF0.002
aF0.004
aF0.004
aF0.003
aF0.006
aF0.003
aF0.005
aF0.001
aF0.002
aF0.001
aF0.002
aF0.001
aF0.002
aF0.002
aF0.001
aF0.002
aF0.001
aF0.001
aF0.001
aF0.001
as.