(dp0
S'average_clustering'
p1
F0.03396658724444203
sS'links'
p2
I5982
sS'popt2'
p3
cnumpy.core.multiarray
_reconstruct
p4
(cnumpy
ndarray
p5
(I0
tp6
S'b'
p7
tp8
Rp9
(I1
(I3
tp10
cnumpy
dtype
p11
(S'f8'
p12
I0
I1
tp13
Rp14
(I3
S'<'
p15
NNNI-1
I-1
I0
tp16
bI00
S'\xf4\xb1"\xa3\n+\x04@\xb2\xfem\'\xdd\xf7\x9e\xc0\x9e<\x9cS\xdd\xec\x9c\xc0'
p17
tp18
bsS'kmean'
p19
F5.982
sS'uncorrelated_prob'
p20
(lp21
F0.19608826479438315
aF0.14108993647609494
aF0.09695753928452022
aF0.06920762286860582
aF0.05265797392176529
aF0.04012036108324975
aF0.03761283851554664
aF0.02841858910063524
aF0.029421598127716483
aF0.014042126379137413
aF0.013039117352056168
aF0.02106318956870612
aF0.015045135406218655
aF0.0160481444332999
aF0.019893012370444666
aF0.006018054162487462
aF0.01905717151454363
aF0.006686726847208292
aF0.017552657973921765
aF0.007355399531929121
aF0.007689735874289535
aF0.00802407221664995
aF0.012537612838515547
aF0.0043463724506853894
aF0.004513540621865597
aF0.004680708793045804
aF0.004847876964226012
aF0.016549648946840523
aF0.006352390504847877
aF0.013373453694416584
aF0.007355399531929121
aF0.009027081243731194
aF0.017051153460381142
aF0.01788699431628218
aF0.0183884988298228
asS'popt'
p22
g4
(g5
(I0
tp23
g7
tp24
Rp25
(I1
(I2
tp26
g14
I00
S'\x00\xba\x15\xf9\xb3\x97\x03@tE\x88\xa6\xb4a\x17@'
p27
tp28
bsS'size'
p29
I1000
sS'count'
p30
(lp31
I391
aI211
aI116
aI69
aI45
aI30
aI25
aI17
aI16
aI7
aI6
aI9
aI6
aI6
aI7
aI2
aI6
aI2
aI5
aI2
aI2
aI2
aI3
aI1
aI1
aI1
aI1
aI3
aI1
aI2
aI1
aI1
aI1
aI1
aI1
asS'index'
p32
(lp33
I3
aI4
aI5
aI6
aI7
aI8
aI9
aI10
aI11
aI12
aI13
aI14
aI15
aI16
aI17
aI18
aI19
aI20
aI21
aI22
aI23
aI24
aI25
aI26
aI27
aI28
aI29
aI33
aI38
aI40
aI44
aI54
aI102
aI107
aI110
asS'dgr_dgr_func'
p34
(dp35
I3
(lp36
F0.0
aF0.12020460358056266
aF0.10485933503836317
aF0.09718670076726342
aF0.06564364876385337
aF0.059676044330775786
aF0.04859335038363171
aF0.03580562659846547
aF0.03324808184143223
aF0.0247229326513214
aF0.017902813299232736
aF0.03580562659846547
aF0.017050298380221655
aF0.02216538789428815
aF0.028132992327365727
aF0.005967604433077579
aF0.028985507246376812
aF0.0076726342710997444
aF0.02216538789428815
aF0.00937766410912191
aF0.005115089514066497
aF0.014492753623188406
aF0.014492753623188406
aF0.0076726342710997444
aF0.008525149190110827
aF0.005967604433077579
aF0.0076726342710997444
aF0.0247229326513214
aF0.0076726342710997444
aF0.021312872975277068
aF0.010230179028132993
aF0.011935208866155157
aF0.023870417732310314
aF0.03239556692242114
aF0.01875532821824382
asI4
(lp37
F0.1670616113744076
aF0.0971563981042654
aF0.08175355450236967
aF0.07464454976303317
aF0.06872037914691943
aF0.04739336492890995
aF0.04265402843601896
aF0.041469194312796206
aF0.04265402843601896
aF0.014218009478672985
aF0.015402843601895734
aF0.02962085308056872
aF0.022511848341232227
aF0.013033175355450236
aF0.023696682464454975
aF0.0071090047393364926
aF0.023696682464454975
aF0.01066350710900474
aF0.030805687203791468
aF0.0071090047393364926
aF0.01066350710900474
aF0.0035545023696682463
aF0.01066350710900474
aF0.0035545023696682463
aF0.005924170616113744
aF0.001184834123222749
aF0.0071090047393364926
aF0.02014218009478673
aF0.004739336492890996
aF0.013033175355450236
aF0.008293838862559242
aF0.004739336492890996
aF0.014218009478672985
aF0.014218009478672985
aF0.016587677725118485
asI5
(lp38
F0.2120689655172414
aF0.11896551724137931
aF0.10344827586206896
aF0.04655172413793104
aF0.04310344827586207
aF0.017241379310344827
aF0.04827586206896552
aF0.034482758620689655
aF0.029310344827586206
aF0.008620689655172414
aF0.015517241379310345
aF0.017241379310344827
aF0.01896551724137931
aF0.02413793103448276
aF0.02586206896551724
aF0.006896551724137931
aF0.027586206896551724
aF0.01206896551724138
aF0.015517241379310345
aF0.008620689655172414
aF0.013793103448275862
aF0.006896551724137931
aF0.013793103448275862
aF0.0017241379310344827
aF0.005172413793103448
aF0.0
aF0.0034482758620689655
aF0.017241379310344827
aF0.006896551724137931
aF0.010344827586206896
aF0.010344827586206896
aF0.013793103448275862
aF0.013793103448275862
aF0.022413793103448276
aF0.02586206896551724
asI6
(lp39
F0.2753623188405797
aF0.15217391304347827
aF0.06521739130434782
aF0.03864734299516908
aF0.050724637681159424
aF0.03864734299516908
aF0.03864734299516908
aF0.014492753623188406
aF0.021739130434782608
aF0.021739130434782608
aF0.007246376811594203
aF0.00966183574879227
aF0.01932367149758454
aF0.016908212560386472
aF0.014492753623188406
aF0.00966183574879227
aF0.016908212560386472
aF0.004830917874396135
aF0.01932367149758454
aF0.004830917874396135
aF0.012077294685990338
aF0.00966183574879227
aF0.007246376811594203
aF0.004830917874396135
aF0.0024154589371980675
aF0.012077294685990338
aF0.004830917874396135
aF0.01932367149758454
aF0.0024154589371980675
aF0.014492753623188406
aF0.012077294685990338
aF0.0024154589371980675
aF0.021739130434782608
aF0.014492753623188406
aF0.01932367149758454
asI7
(lp40
F0.24444444444444444
aF0.18412698412698414
aF0.07936507936507936
aF0.06666666666666667
aF0.012698412698412698
aF0.02857142857142857
aF0.022222222222222223
aF0.022222222222222223
aF0.03492063492063492
aF0.015873015873015872
aF0.015873015873015872
aF0.022222222222222223
aF0.009523809523809525
aF0.01904761904761905
aF0.012698412698412698
aF0.009523809523809525
aF0.012698412698412698
aF0.015873015873015872
aF0.015873015873015872
aF0.0031746031746031746
aF0.006349206349206349
aF0.006349206349206349
aF0.025396825396825397
aF0.0
aF0.006349206349206349
aF0.0031746031746031746
aF0.0031746031746031746
aF0.01904761904761905
aF0.009523809523809525
aF0.01904761904761905
aF0.006349206349206349
aF0.006349206349206349
aF0.009523809523809525
aF0.01904761904761905
aF0.012698412698412698
asI8
(lp41
F0.2916666666666667
aF0.16666666666666666
aF0.041666666666666664
aF0.06666666666666667
aF0.0375
aF0.041666666666666664
aF0.0375
aF0.025
aF0.020833333333333332
aF0.008333333333333333
aF0.020833333333333332
aF0.008333333333333333
aF0.008333333333333333
aF0.0125
aF0.0125
aF0.008333333333333333
aF0.008333333333333333
aF0.008333333333333333
aF0.025
aF0.0125
aF0.004166666666666667
aF0.016666666666666666
aF0.016666666666666666
aF0.008333333333333333
aF0.004166666666666667
aF0.0
aF0.0
aF0.0125
aF0.0
aF0.004166666666666667
aF0.004166666666666667
aF0.0125
aF0.016666666666666666
aF0.016666666666666666
aF0.020833333333333332
asI9
(lp42
F0.25333333333333335
aF0.16
aF0.12444444444444444
aF0.07111111111111111
aF0.03111111111111111
aF0.04
aF0.044444444444444446
aF0.022222222222222223
aF0.035555555555555556
aF0.008888888888888889
aF0.0044444444444444444
aF0.0
aF0.017777777777777778
aF0.013333333333333334
aF0.0044444444444444444
aF0.0044444444444444444
aF0.0044444444444444444
aF0.0
aF0.008888888888888889
aF0.0044444444444444444
aF0.008888888888888889
aF0.0044444444444444444
aF0.013333333333333334
aF0.0044444444444444444
aF0.008888888888888889
aF0.0
aF0.0044444444444444444
aF0.0
aF0.0044444444444444444
aF0.017777777777777778
aF0.008888888888888889
aF0.008888888888888889
aF0.02666666666666667
aF0.013333333333333334
aF0.022222222222222223
asI10
(lp43
F0.24705882352941178
aF0.20588235294117646
aF0.11764705882352941
aF0.03529411764705882
aF0.041176470588235294
aF0.03529411764705882
aF0.029411764705882353
aF0.0
aF0.011764705882352941
aF0.011764705882352941
aF0.011764705882352941
aF0.023529411764705882
aF0.011764705882352941
aF0.0058823529411764705
aF0.01764705882352941
aF0.0058823529411764705
aF0.01764705882352941
aF0.0
aF0.0058823529411764705
aF0.0
aF0.011764705882352941
aF0.0
aF0.023529411764705882
aF0.0
aF0.0058823529411764705
aF0.011764705882352941
aF0.0
aF0.029411764705882353
aF0.01764705882352941
aF0.0058823529411764705
aF0.0
aF0.01764705882352941
aF0.023529411764705882
aF0.0058823529411764705
aF0.011764705882352941
asI11
(lp44
F0.2215909090909091
aF0.20454545454545456
aF0.09659090909090909
aF0.05113636363636364
aF0.0625
aF0.028409090909090908
aF0.045454545454545456
aF0.011363636363636364
aF0.022727272727272728
aF0.005681818181818182
aF0.005681818181818182
aF0.022727272727272728
aF0.017045454545454544
aF0.028409090909090908
aF0.017045454545454544
aF0.011363636363636364
aF0.028409090909090908
aF0.0
aF0.0
aF0.005681818181818182
aF0.011363636363636364
aF0.0
aF0.011363636363636364
aF0.0
aF0.0
aF0.011363636363636364
aF0.0
aF0.0
aF0.0
aF0.005681818181818182
aF0.005681818181818182
aF0.0
aF0.022727272727272728
aF0.03977272727272727
aF0.005681818181818182
asI12
(lp45
F0.34523809523809523
aF0.14285714285714285
aF0.05952380952380952
aF0.10714285714285714
aF0.05952380952380952
aF0.023809523809523808
aF0.023809523809523808
aF0.023809523809523808
aF0.011904761904761904
aF0.0
aF0.0
aF0.011904761904761904
aF0.03571428571428571
aF0.011904761904761904
aF0.03571428571428571
aF0.011904761904761904
aF0.0
aF0.0
aF0.011904761904761904
aF0.011904761904761904
aF0.0
aF0.0
aF0.0
aF0.0
aF0.0
aF0.0
aF0.0
aF0.0
aF0.011904761904761904
aF0.0
aF0.0
aF0.011904761904761904
aF0.011904761904761904
aF0.03571428571428571
aF0.0
asI13
(lp46
F0.2692307692307692
aF0.16666666666666666
aF0.11538461538461539
aF0.038461538461538464
aF0.0641025641025641
aF0.0641025641025641
aF0.01282051282051282
aF0.02564102564102564
aF0.01282051282051282
aF0.0
aF0.0
aF0.02564102564102564
aF0.0
aF0.01282051282051282
aF0.02564102564102564
aF0.0
aF0.01282051282051282
aF0.0
aF0.01282051282051282
aF0.0
aF0.0
aF0.02564102564102564
aF0.01282051282051282
aF0.0
aF0.0
aF0.0
aF0.0
aF0.02564102564102564
aF0.01282051282051282
aF0.0
aF0.0
aF0.0
aF0.02564102564102564
aF0.0
aF0.038461538461538464
asI14
(lp47
F0.3333333333333333
aF0.1984126984126984
aF0.07936507936507936
aF0.031746031746031744
aF0.05555555555555555
aF0.015873015873015872
aF0.0
aF0.031746031746031744
aF0.031746031746031744
aF0.007936507936507936
aF0.015873015873015872
aF0.0
aF0.015873015873015872
aF0.0
aF0.023809523809523808
aF0.0
aF0.023809523809523808
aF0.007936507936507936
aF0.007936507936507936
aF0.007936507936507936
aF0.0
aF0.0
aF0.007936507936507936
aF0.0
aF0.0
aF0.007936507936507936
aF0.0
aF0.007936507936507936
aF0.007936507936507936
aF0.007936507936507936
aF0.015873015873015872
aF0.0
aF0.023809523809523808
aF0.015873015873015872
aF0.015873015873015872
asI15
(lp48
F0.2222222222222222
aF0.2111111111111111
aF0.12222222222222222
aF0.08888888888888889
aF0.03333333333333333
aF0.022222222222222223
aF0.044444444444444446
aF0.022222222222222223
aF0.03333333333333333
aF0.03333333333333333
aF0.0
aF0.022222222222222223
aF0.0
aF0.011111111111111112
aF0.0
aF0.0
aF0.0
aF0.011111111111111112
aF0.0
aF0.0
aF0.0
aF0.011111111111111112
aF0.0
aF0.0
aF0.0
aF0.0
aF0.0
aF0.011111111111111112
aF0.011111111111111112
aF0.022222222222222223
aF0.011111111111111112
aF0.011111111111111112
aF0.011111111111111112
aF0.011111111111111112
aF0.022222222222222223
asI16
(lp49
F0.2708333333333333
aF0.11458333333333333
aF0.14583333333333334
aF0.07291666666666667
aF0.0625
aF0.03125
aF0.03125
aF0.010416666666666666
aF0.052083333333333336
aF0.010416666666666666
aF0.010416666666666666
aF0.0
aF0.010416666666666666
aF0.0
aF0.0
aF0.0
aF0.010416666666666666
aF0.0
aF0.020833333333333332
aF0.0
aF0.0
aF0.0
aF0.03125
aF0.0
aF0.0
aF0.020833333333333332
aF0.0
aF0.0
aF0.0
aF0.020833333333333332
aF0.010416666666666666
aF0.010416666666666666
aF0.020833333333333332
aF0.010416666666666666
aF0.020833333333333332
asI17
(lp50
F0.2773109243697479
aF0.16806722689075632
aF0.12605042016806722
aF0.05042016806722689
aF0.03361344537815126
aF0.025210084033613446
aF0.008403361344537815
aF0.025210084033613446
aF0.025210084033613446
aF0.025210084033613446
aF0.01680672268907563
aF0.025210084033613446
aF0.0
aF0.0
aF0.0
aF0.0
aF0.0
aF0.008403361344537815
aF0.025210084033613446
aF0.008403361344537815
aF0.008403361344537815
aF0.025210084033613446
aF0.008403361344537815
aF0.01680672268907563
aF0.0
aF0.0
aF0.008403361344537815
aF0.01680672268907563
aF0.008403361344537815
aF0.01680672268907563
aF0.0
aF0.008403361344537815
aF0.008403361344537815
aF0.008403361344537815
aF0.01680672268907563
asI18
(lp51
F0.19444444444444445
aF0.16666666666666666
aF0.1111111111111111
aF0.1111111111111111
aF0.08333333333333333
aF0.05555555555555555
aF0.027777777777777776
aF0.027777777777777776
aF0.05555555555555555
aF0.027777777777777776
aF0.0
aF0.0
aF0.0
aF0.0
aF0.0
aF0.0
aF0.0
aF0.0
aF0.0
aF0.0
aF0.0
aF0.0
aF0.0
aF0.027777777777777776
aF0.0
aF0.0
aF0.0
aF0.0
aF0.0
aF0.027777777777777776
aF0.0
aF0.0
aF0.0
aF0.027777777777777776
aF0.05555555555555555
asI19
(lp52
F0.2982456140350877
aF0.17543859649122806
aF0.14035087719298245
aF0.06140350877192982
aF0.03508771929824561
aF0.017543859649122806
aF0.008771929824561403
aF0.02631578947368421
aF0.043859649122807015
aF0.0
aF0.008771929824561403
aF0.02631578947368421
aF0.0
aF0.008771929824561403
aF0.0
aF0.0
aF0.0
aF0.0
aF0.0
aF0.017543859649122806
aF0.0
aF0.008771929824561403
aF0.017543859649122806
aF0.0
aF0.0
aF0.008771929824561403
aF0.0
aF0.0
aF0.0
aF0.008771929824561403
aF0.0
aF0.02631578947368421
aF0.017543859649122806
aF0.008771929824561403
aF0.03508771929824561
asI20
(lp53
F0.225
aF0.225
aF0.175
aF0.05
aF0.125
aF0.05
aF0.0
aF0.0
aF0.0
aF0.0
aF0.0
aF0.025
aF0.025
aF0.0
aF0.025
aF0.0
aF0.0
aF0.0
aF0.0
aF0.025
aF0.0
aF0.0
aF0.0
aF0.0
aF0.0
aF0.0
aF0.0
aF0.0
aF0.025
aF0.0
aF0.0
aF0.0
aF0.0
aF0.0
aF0.025
asI21
(lp54
F0.24761904761904763
aF0.24761904761904763
aF0.08571428571428572
aF0.0761904761904762
aF0.047619047619047616
aF0.05714285714285714
aF0.01904761904761905
aF0.009523809523809525
aF0.0
aF0.009523809523809525
aF0.009523809523809525
aF0.009523809523809525
aF0.0
aF0.01904761904761905
aF0.02857142857142857
aF0.0
aF0.0
aF0.0
aF0.01904761904761905
aF0.0
aF0.009523809523809525
aF0.0
aF0.0
aF0.0
aF0.0
aF0.0
aF0.009523809523809525
aF0.01904761904761905
aF0.01904761904761905
aF0.009523809523809525
aF0.0
aF0.0
aF0.009523809523809525
aF0.009523809523809525
aF0.02857142857142857
asI22
(lp55
F0.25
aF0.13636363636363635
aF0.11363636363636363
aF0.045454545454545456
aF0.022727272727272728
aF0.06818181818181818
aF0.022727272727272728
aF0.0
aF0.022727272727272728
aF0.022727272727272728
aF0.0
aF0.022727272727272728
aF0.0
aF0.0
aF0.022727272727272728
aF0.0
aF0.045454545454545456
aF0.022727272727272728
aF0.0
aF0.0
aF0.0
aF0.0
aF0.0
aF0.0
aF0.0
aF0.022727272727272728
aF0.0
aF0.0
aF0.022727272727272728
aF0.022727272727272728
aF0.0
aF0.022727272727272728
aF0.022727272727272728
aF0.045454545454545456
aF0.022727272727272728
asI23
(lp56
F0.13043478260869565
aF0.1956521739130435
aF0.17391304347826086
aF0.10869565217391304
aF0.043478260869565216
aF0.021739130434782608
aF0.043478260869565216
aF0.043478260869565216
aF0.043478260869565216
aF0.0
aF0.0
aF0.0
aF0.0
aF0.0
aF0.021739130434782608
aF0.0
aF0.0
aF0.0
aF0.021739130434782608
aF0.0
aF0.0
aF0.0
aF0.021739130434782608
aF0.021739130434782608
aF0.0
aF0.0
aF0.0
aF0.021739130434782608
aF0.021739130434782608
aF0.0
aF0.0
aF0.0
aF0.021739130434782608
aF0.0
aF0.043478260869565216
asI24
(lp57
F0.3541666666666667
aF0.0625
aF0.08333333333333333
aF0.08333333333333333
aF0.041666666666666664
aF0.08333333333333333
aF0.020833333333333332
aF0.0
aF0.0
aF0.0
aF0.041666666666666664
aF0.0
aF0.020833333333333332
aF0.0
aF0.0625
aF0.0
aF0.020833333333333332
aF0.0
aF0.0
aF0.0
aF0.0
aF0.0
aF0.0
aF0.0
aF0.0
aF0.020833333333333332
aF0.020833333333333332
aF0.041666666666666664
aF0.0
aF0.020833333333333332
aF0.020833333333333332
aF0.0
aF0.0
aF0.0
aF0.0
asI25
(lp58
F0.22666666666666666
aF0.12
aF0.10666666666666667
aF0.04
aF0.10666666666666667
aF0.05333333333333334
aF0.04
aF0.05333333333333334
aF0.02666666666666667
aF0.0
aF0.013333333333333334
aF0.013333333333333334
aF0.0
aF0.04
aF0.013333333333333334
aF0.0
aF0.02666666666666667
aF0.0
aF0.0
aF0.0
aF0.013333333333333334
aF0.0
aF0.0
aF0.0
aF0.0
aF0.013333333333333334
aF0.013333333333333334
aF0.013333333333333334
aF0.0
aF0.0
aF0.0
aF0.04
aF0.013333333333333334
aF0.0
aF0.013333333333333334
asI26
(lp59
F0.34615384615384615
aF0.11538461538461539
aF0.038461538461538464
aF0.07692307692307693
aF0.0
aF0.07692307692307693
aF0.038461538461538464
aF0.0
aF0.0
aF0.0
aF0.0
aF0.0
aF0.0
aF0.0
aF0.07692307692307693
aF0.038461538461538464
aF0.0
aF0.0
aF0.0
aF0.0
aF0.038461538461538464
aF0.0
aF0.0
aF0.0
aF0.0
aF0.0
aF0.038461538461538464
aF0.038461538461538464
aF0.0
aF0.0
aF0.0
aF0.038461538461538464
aF0.0
aF0.0
aF0.038461538461538464
asI27
(lp60
F0.37037037037037035
aF0.18518518518518517
aF0.1111111111111111
aF0.037037037037037035
aF0.07407407407407407
aF0.037037037037037035
aF0.07407407407407407
aF0.037037037037037035
aF0.0
aF0.0
aF0.0
aF0.0
aF0.0
aF0.0
aF0.0
aF0.0
aF0.0
aF0.0
aF0.0
aF0.0
aF0.0
aF0.0
aF0.0
aF0.0
aF0.0
aF0.0
aF0.0
aF0.0
aF0.0
aF0.0
aF0.0
aF0.0
aF0.037037037037037035
aF0.037037037037037035
aF0.0
asI28
(lp61
F0.25
aF0.03571428571428571
aF0.0
aF0.17857142857142858
aF0.03571428571428571
aF0.0
aF0.0
aF0.07142857142857142
aF0.07142857142857142
aF0.0
aF0.0
aF0.03571428571428571
aF0.0
aF0.07142857142857142
aF0.0
aF0.0
aF0.03571428571428571
aF0.0
aF0.0
aF0.03571428571428571
aF0.0
aF0.03571428571428571
aF0.03571428571428571
aF0.0
aF0.0
aF0.0
aF0.0
aF0.0
aF0.0
aF0.03571428571428571
aF0.0
aF0.0
aF0.03571428571428571
aF0.03571428571428571
aF0.0
asI29
(lp62
F0.3103448275862069
aF0.20689655172413793
aF0.06896551724137931
aF0.06896551724137931
aF0.034482758620689655
aF0.0
aF0.034482758620689655
aF0.0
aF0.0
aF0.0
aF0.0
aF0.0
aF0.0
aF0.0
aF0.034482758620689655
aF0.0
aF0.0
aF0.0
aF0.034482758620689655
aF0.0
aF0.0
aF0.034482758620689655
aF0.034482758620689655
aF0.034482758620689655
aF0.0
aF0.0
aF0.0
aF0.034482758620689655
aF0.0
aF0.0
aF0.034482758620689655
aF0.0
aF0.0
aF0.0
aF0.034482758620689655
asI33
(lp63
F0.29292929292929293
aF0.1717171717171717
aF0.10101010101010101
aF0.08080808080808081
aF0.06060606060606061
aF0.030303030303030304
aF0.0
aF0.050505050505050504
aF0.0
aF0.0
aF0.020202020202020204
aF0.010101010101010102
aF0.010101010101010102
aF0.0
aF0.020202020202020204
aF0.0
aF0.0
aF0.0
aF0.020202020202020204
aF0.0
aF0.010101010101010102
aF0.020202020202020204
aF0.010101010101010102
aF0.010101010101010102
aF0.0
aF0.0
aF0.010101010101010102
aF0.0
aF0.010101010101010102
aF0.010101010101010102
aF0.0
aF0.010101010101010102
aF0.020202020202020204
aF0.0
aF0.020202020202020204
asI102
(lp64
F0.27450980392156865
aF0.11764705882352941
aF0.0784313725490196
aF0.08823529411764706
aF0.029411764705882353
aF0.0392156862745098
aF0.058823529411764705
aF0.0392156862745098
aF0.0392156862745098
aF0.00980392156862745
aF0.0196078431372549
aF0.029411764705882353
aF0.00980392156862745
aF0.0196078431372549
aF0.00980392156862745
aF0.0
aF0.0196078431372549
aF0.0
aF0.00980392156862745
aF0.00980392156862745
aF0.00980392156862745
aF0.0
aF0.00980392156862745
aF0.0
aF0.00980392156862745
aF0.00980392156862745
aF0.0
aF0.0196078431372549
aF0.0
aF0.00980392156862745
aF0.00980392156862745
aF0.00980392156862745
aF0.0
aF0.0
aF0.00980392156862745
asI38
(lp65
F0.23684210526315788
aF0.10526315789473684
aF0.10526315789473684
aF0.02631578947368421
aF0.07894736842105263
aF0.0
aF0.02631578947368421
aF0.07894736842105263
aF0.0
aF0.02631578947368421
aF0.02631578947368421
aF0.02631578947368421
aF0.02631578947368421
aF0.0
aF0.02631578947368421
aF0.0
aF0.0
aF0.02631578947368421
aF0.05263157894736842
aF0.02631578947368421
aF0.02631578947368421
aF0.0
aF0.0
aF0.0
aF0.0
aF0.0
aF0.0
aF0.02631578947368421
aF0.0
aF0.0
aF0.0
aF0.0
aF0.0
aF0.02631578947368421
aF0.02631578947368421
asI40
(lp66
F0.3125
aF0.1375
aF0.075
aF0.075
aF0.075
aF0.0125
aF0.05
aF0.0125
aF0.0125
aF0.0
aF0.0
aF0.0125
aF0.025
aF0.025
aF0.025
aF0.0125
aF0.0125
aF0.0
aF0.0125
aF0.0125
aF0.0
aF0.0125
aF0.0
aF0.0
aF0.0
aF0.0125
aF0.0
aF0.0125
aF0.0
aF0.0
aF0.0125
aF0.0125
aF0.0125
aF0.0
aF0.025
asI107
(lp67
F0.35514018691588783
aF0.11214953271028037
aF0.12149532710280374
aF0.056074766355140186
aF0.056074766355140186
aF0.037383177570093455
aF0.028037383177570093
aF0.009345794392523364
aF0.06542056074766354
aF0.028037383177570093
aF0.0
aF0.018691588785046728
aF0.009345794392523364
aF0.009345794392523364
aF0.009345794392523364
aF0.009345794392523364
aF0.009345794392523364
aF0.0
aF0.009345794392523364
aF0.018691588785046728
aF0.0
aF0.0
aF0.0
aF0.0
aF0.009345794392523364
aF0.009345794392523364
aF0.0
aF0.0
aF0.009345794392523364
aF0.0
aF0.0
aF0.009345794392523364
aF0.0
aF0.0
aF0.0
asI44
(lp68
F0.2727272727272727
aF0.1590909090909091
aF0.13636363636363635
aF0.11363636363636363
aF0.045454545454545456
aF0.022727272727272728
aF0.045454545454545456
aF0.0
aF0.022727272727272728
aF0.0
aF0.0
aF0.045454545454545456
aF0.022727272727272728
aF0.022727272727272728
aF0.0
aF0.0
aF0.0
aF0.0
aF0.0
aF0.0
aF0.0
aF0.022727272727272728
aF0.0
aF0.0
aF0.0
aF0.0
aF0.022727272727272728
aF0.0
aF0.0
aF0.022727272727272728
aF0.0
aF0.0
aF0.022727272727272728
aF0.0
aF0.0
asI110
(lp69
F0.2
aF0.12727272727272726
aF0.13636363636363635
aF0.07272727272727272
aF0.03636363636363636
aF0.045454545454545456
aF0.045454545454545456
aF0.01818181818181818
aF0.00909090909090909
aF0.0
aF0.02727272727272727
aF0.01818181818181818
aF0.01818181818181818
aF0.01818181818181818
aF0.01818181818181818
aF0.01818181818181818
aF0.03636363636363636
aF0.00909090909090909
aF0.02727272727272727
aF0.00909090909090909
aF0.01818181818181818
aF0.0
aF0.00909090909090909
aF0.00909090909090909
aF0.0
aF0.0
aF0.00909090909090909
aF0.01818181818181818
aF0.00909090909090909
aF0.01818181818181818
aF0.0
aF0.00909090909090909
aF0.00909090909090909
aF0.0
aF0.0
asI54
(lp70
F0.25925925925925924
aF0.07407407407407407
aF0.14814814814814814
aF0.018518518518518517
aF0.037037037037037035
aF0.05555555555555555
aF0.037037037037037035
aF0.05555555555555555
aF0.0
aF0.018518518518518517
aF0.0
aF0.0
aF0.018518518518518517
aF0.018518518518518517
aF0.018518518518518517
aF0.0
aF0.05555555555555555
aF0.0
aF0.0
aF0.018518518518518517
aF0.0
aF0.0
aF0.05555555555555555
aF0.018518518518518517
aF0.0
aF0.0
aF0.0
aF0.018518518518518517
aF0.0
aF0.018518518518518517
aF0.0
aF0.0
aF0.018518518518518517
aF0.018518518518518517
aF0.018518518518518517
assS'assortativity'
p71
cnumpy.core.multiarray
scalar
p72
(g14
S'\xb8^\xdbBdB\xb3\xbf'
p73
tp74
Rp75
sS'kmin'
p76
I3
sS'kmax'
p77
I110
sS'prob'
p78
(lp79
F0.391
aF0.211
aF0.116
aF0.069
aF0.045
aF0.03
aF0.025
aF0.017
aF0.016
aF0.007
aF0.006
aF0.009
aF0.006
aF0.006
aF0.007
aF0.002
aF0.006
aF0.002
aF0.005
aF0.002
aF0.002
aF0.002
aF0.003
aF0.001
aF0.001
aF0.001
aF0.001
aF0.003
aF0.001
aF0.002
aF0.001
aF0.001
aF0.001
aF0.001
aF0.001
as.