(dp0
S'uncorrelated_prob'
p1
(lp2
F0.20611835506519557
aF0.13105984620528252
aF0.07940488131059846
aF0.058174523570712136
aF0.0667001003009027
aF0.05616850551654965
aF0.04513540621865597
aF0.04012036108324975
aF0.02574389836175192
aF0.0160481444332999
aF0.015212303577398863
aF0.018722835172183216
aF0.0050150451354062184
aF0.021397525911066532
aF0.011367435640254095
aF0.009027081243731194
aF0.012704781009695755
aF0.013373453694416584
aF0.003510531594784353
aF0.007355399531929121
aF0.007689735874289535
aF0.004012036108324975
aF0.004179204279505183
aF0.004513540621865597
aF0.010030090270812437
aF0.005182213306586426
aF0.005349381477766633
aF0.005516549648946841
aF0.011367435640254095
aF0.006018054162487462
aF0.006352390504847877
aF0.006686726847208292
aF0.007021063189568706
aF0.007522567703109328
aF0.017385489802741558
aF0.009695753928452023
aF0.012704781009695755
aF0.026412571046472752
asS'assortativity'
p3
cnumpy.core.multiarray
scalar
p4
(cnumpy
dtype
p5
(S'f8'
p6
I0
I1
tp7
Rp8
(I3
S'<'
p9
NNNI-1
I-1
I0
tp10
bS'\xddH(\xf5\xffP\xb0\xbf'
p11
tp12
Rp13
sS'dgr_dgr_func'
p14
(dp15
I3
(lp16
F0.0
aF0.10786699107866991
aF0.09732360097323602
aF0.08110300081103
aF0.09570154095701541
aF0.07137064071370641
aF0.054339010543390104
aF0.06001622060016221
aF0.034874290348742905
aF0.017842660178426603
aF0.0202757502027575
aF0.0202757502027575
aF0.0072992700729927005
aF0.038929440389294405
aF0.012165450121654502
aF0.012976480129764802
aF0.021897810218978103
aF0.025141930251419302
aF0.0040551500405515
aF0.012976480129764802
aF0.009732360097323601
aF0.0032441200324412004
aF0.0072992700729927005
aF0.0072992700729927005
aF0.012165450121654502
aF0.009732360097323601
aF0.006488240064882401
aF0.0072992700729927005
aF0.014598540145985401
aF0.0056772100567721
aF0.008110300081103
aF0.006488240064882401
aF0.008921330089213302
aF0.0113544201135442
aF0.016220600162206
aF0.017842660178426603
aF0.013787510137875101
aF0.0373073803730738
asI4
(lp17
F0.16964285714285715
aF0.07653061224489796
aF0.06505102040816327
aF0.05229591836734694
aF0.07525510204081633
aF0.07525510204081633
aF0.044642857142857144
aF0.05102040816326531
aF0.03188775510204082
aF0.029336734693877552
aF0.01403061224489796
aF0.017857142857142856
aF0.007653061224489796
aF0.01913265306122449
aF0.015306122448979591
aF0.01913265306122449
aF0.012755102040816327
aF0.01913265306122449
aF0.002551020408163265
aF0.007653061224489796
aF0.01020408163265306
aF0.003826530612244898
aF0.002551020408163265
aF0.003826530612244898
aF0.011479591836734694
aF0.003826530612244898
aF0.008928571428571428
aF0.007653061224489796
aF0.011479591836734694
aF0.01020408163265306
aF0.00510204081632653
aF0.007653061224489796
aF0.008928571428571428
aF0.011479591836734694
aF0.025510204081632654
aF0.01403061224489796
aF0.017857142857142856
aF0.029336734693877552
asI5
(lp18
F0.25263157894736843
aF0.10736842105263159
aF0.08421052631578947
aF0.037894736842105266
aF0.061052631578947365
aF0.037894736842105266
aF0.04842105263157895
aF0.042105263157894736
aF0.02526315789473684
aF0.021052631578947368
aF0.008421052631578947
aF0.02526315789473684
aF0.002105263157894737
aF0.02736842105263158
aF0.008421052631578947
aF0.00631578947368421
aF0.01263157894736842
aF0.010526315789473684
aF0.004210526315789474
aF0.00631578947368421
aF0.00631578947368421
aF0.00631578947368421
aF0.008421052631578947
aF0.00631578947368421
aF0.014736842105263158
aF0.002105263157894737
aF0.008421052631578947
aF0.002105263157894737
aF0.014736842105263158
aF0.008421052631578947
aF0.010526315789473684
aF0.004210526315789474
aF0.004210526315789474
aF0.00631578947368421
aF0.016842105263157894
aF0.010526315789473684
aF0.008421052631578947
aF0.031578947368421054
asI6
(lp19
F0.28735632183908044
aF0.11781609195402298
aF0.05172413793103448
aF0.05172413793103448
aF0.04597701149425287
aF0.06896551724137931
aF0.05172413793103448
aF0.03735632183908046
aF0.02586206896551724
aF0.011494252873563218
aF0.020114942528735632
aF0.022988505747126436
aF0.005747126436781609
aF0.020114942528735632
aF0.014367816091954023
aF0.0028735632183908046
aF0.017241379310344827
aF0.0028735632183908046
aF0.005747126436781609
aF0.0
aF0.0028735632183908046
aF0.005747126436781609
aF0.008620689655172414
aF0.0028735632183908046
aF0.008620689655172414
aF0.0028735632183908046
aF0.005747126436781609
aF0.011494252873563218
aF0.008620689655172414
aF0.005747126436781609
aF0.011494252873563218
aF0.008620689655172414
aF0.0028735632183908046
aF0.0028735632183908046
aF0.014367816091954023
aF0.0028735632183908046
aF0.014367816091954023
aF0.017241379310344827
asI7
(lp20
F0.2957393483709273
aF0.14786967418546365
aF0.07268170426065163
aF0.040100250626566414
aF0.040100250626566414
aF0.06015037593984962
aF0.042606516290726815
aF0.03258145363408521
aF0.015037593984962405
aF0.015037593984962405
aF0.017543859649122806
aF0.022556390977443608
aF0.005012531328320802
aF0.022556390977443608
aF0.012531328320802004
aF0.005012531328320802
aF0.002506265664160401
aF0.002506265664160401
aF0.002506265664160401
aF0.010025062656641603
aF0.005012531328320802
aF0.005012531328320802
aF0.0
aF0.007518796992481203
aF0.010025062656641603
aF0.005012531328320802
aF0.005012531328320802
aF0.005012531328320802
aF0.012531328320802004
aF0.002506265664160401
aF0.005012531328320802
aF0.015037593984962405
aF0.010025062656641603
aF0.0
aF0.017543859649122806
aF0.002506265664160401
aF0.0
aF0.02756892230576441
asI8
(lp21
F0.2619047619047619
aF0.17559523809523808
aF0.05357142857142857
aF0.07142857142857142
aF0.07142857142857142
aF0.041666666666666664
aF0.03571428571428571
aF0.026785714285714284
aF0.017857142857142856
aF0.011904761904761904
aF0.005952380952380952
aF0.020833333333333332
aF0.0
aF0.005952380952380952
aF0.01488095238095238
aF0.0
aF0.011904761904761904
aF0.011904761904761904
aF0.002976190476190476
aF0.0
aF0.008928571428571428
aF0.002976190476190476
aF0.008928571428571428
aF0.002976190476190476
aF0.005952380952380952
aF0.002976190476190476
aF0.008928571428571428
aF0.005952380952380952
aF0.008928571428571428
aF0.0
aF0.002976190476190476
aF0.011904761904761904
aF0.002976190476190476
aF0.017857142857142856
aF0.017857142857142856
aF0.008928571428571428
aF0.011904761904761904
aF0.026785714285714284
asI9
(lp22
F0.24814814814814815
aF0.12962962962962962
aF0.08518518518518518
aF0.06666666666666667
aF0.06296296296296296
aF0.044444444444444446
aF0.06666666666666667
aF0.014814814814814815
aF0.018518518518518517
aF0.014814814814814815
aF0.011111111111111112
aF0.018518518518518517
aF0.0
aF0.011111111111111112
aF0.007407407407407408
aF0.014814814814814815
aF0.007407407407407408
aF0.011111111111111112
aF0.003703703703703704
aF0.003703703703703704
aF0.014814814814814815
aF0.0
aF0.003703703703703704
aF0.007407407407407408
aF0.014814814814814815
aF0.007407407407407408
aF0.0
aF0.003703703703703704
aF0.014814814814814815
aF0.007407407407407408
aF0.003703703703703704
aF0.003703703703703704
aF0.014814814814814815
aF0.007407407407407408
aF0.007407407407407408
aF0.0
aF0.018518518518518517
aF0.02962962962962963
asI10
(lp23
F0.30833333333333335
aF0.16666666666666666
aF0.08333333333333333
aF0.05416666666666667
aF0.05416666666666667
aF0.0375
aF0.016666666666666666
aF0.025
aF0.0125
aF0.0125
aF0.008333333333333333
aF0.0125
aF0.004166666666666667
aF0.008333333333333333
aF0.020833333333333332
aF0.004166666666666667
aF0.008333333333333333
aF0.004166666666666667
aF0.0
aF0.008333333333333333
aF0.008333333333333333
aF0.008333333333333333
aF0.0
aF0.0
aF0.0125
aF0.008333333333333333
aF0.004166666666666667
aF0.004166666666666667
aF0.008333333333333333
aF0.008333333333333333
aF0.004166666666666667
aF0.004166666666666667
aF0.008333333333333333
aF0.008333333333333333
aF0.020833333333333332
aF0.008333333333333333
aF0.0125
aF0.020833333333333332
asI11
(lp24
F0.2792207792207792
aF0.16233766233766234
aF0.07792207792207792
aF0.05844155844155844
aF0.03896103896103896
aF0.03896103896103896
aF0.032467532467532464
aF0.01948051948051948
aF0.025974025974025976
aF0.012987012987012988
aF0.01948051948051948
aF0.012987012987012988
aF0.01948051948051948
aF0.006493506493506494
aF0.006493506493506494
aF0.01948051948051948
aF0.012987012987012988
aF0.006493506493506494
aF0.0
aF0.006493506493506494
aF0.012987012987012988
aF0.006493506493506494
aF0.0
aF0.0
aF0.012987012987012988
aF0.0
aF0.0
aF0.0
aF0.006493506493506494
aF0.0
aF0.012987012987012988
aF0.006493506493506494
aF0.0
aF0.0
aF0.01948051948051948
aF0.025974025974025976
aF0.012987012987012988
aF0.025974025974025976
asI12
(lp25
F0.22916666666666666
aF0.23958333333333334
aF0.10416666666666667
aF0.041666666666666664
aF0.0625
aF0.041666666666666664
aF0.041666666666666664
aF0.03125
aF0.020833333333333332
aF0.0
aF0.010416666666666666
aF0.010416666666666666
aF0.010416666666666666
aF0.010416666666666666
aF0.0
aF0.010416666666666666
aF0.0
aF0.0
aF0.010416666666666666
aF0.020833333333333332
aF0.0
aF0.0
aF0.0
aF0.0
aF0.010416666666666666
aF0.010416666666666666
aF0.010416666666666666
aF0.0
aF0.0
aF0.0
aF0.010416666666666666
aF0.010416666666666666
aF0.0
aF0.010416666666666666
aF0.010416666666666666
aF0.0
aF0.010416666666666666
aF0.020833333333333332
asI13
(lp26
F0.27472527472527475
aF0.12087912087912088
aF0.04395604395604396
aF0.07692307692307693
aF0.07692307692307693
aF0.02197802197802198
aF0.03296703296703297
aF0.02197802197802198
aF0.03296703296703297
aF0.01098901098901099
aF0.0
aF0.0
aF0.0
aF0.03296703296703297
aF0.01098901098901099
aF0.01098901098901099
aF0.02197802197802198
aF0.02197802197802198
aF0.0
aF0.0
aF0.02197802197802198
aF0.0
aF0.0
aF0.01098901098901099
aF0.0
aF0.0
aF0.0
aF0.0
aF0.01098901098901099
aF0.01098901098901099
aF0.01098901098901099
aF0.0
aF0.03296703296703297
aF0.0
aF0.02197802197802198
aF0.0
aF0.04395604395604396
aF0.02197802197802198
asI14
(lp27
F0.22321428571428573
aF0.125
aF0.10714285714285714
aF0.07142857142857142
aF0.08035714285714286
aF0.0625
aF0.044642857142857144
aF0.026785714285714284
aF0.017857142857142856
aF0.008928571428571428
aF0.0
aF0.0
aF0.0
aF0.026785714285714284
aF0.008928571428571428
aF0.0
aF0.008928571428571428
aF0.017857142857142856
aF0.0
aF0.017857142857142856
aF0.008928571428571428
aF0.008928571428571428
aF0.0
aF0.008928571428571428
aF0.0
aF0.0
aF0.008928571428571428
aF0.0
aF0.008928571428571428
aF0.017857142857142856
aF0.0
aF0.008928571428571428
aF0.008928571428571428
aF0.008928571428571428
aF0.0
aF0.008928571428571428
aF0.008928571428571428
aF0.044642857142857144
asI15
(lp28
F0.3
aF0.2
aF0.03333333333333333
aF0.06666666666666667
aF0.06666666666666667
aF0.0
aF0.0
aF0.03333333333333333
aF0.1
aF0.03333333333333333
aF0.0
aF0.0
aF0.0
aF0.0
aF0.0
aF0.0
aF0.0
aF0.0
aF0.0
aF0.0
aF0.03333333333333333
aF0.0
aF0.03333333333333333
aF0.0
aF0.03333333333333333
aF0.0
aF0.0
aF0.0
aF0.03333333333333333
aF0.0
aF0.0
aF0.0
aF0.0
aF0.0
aF0.0
aF0.03333333333333333
aF0.0
aF0.0
asI16
(lp29
F0.375
aF0.1171875
aF0.1015625
aF0.0546875
aF0.0703125
aF0.015625
aF0.0234375
aF0.015625
aF0.0078125
aF0.0078125
aF0.0234375
aF0.0234375
aF0.0
aF0.0
aF0.0
aF0.0078125
aF0.0234375
aF0.0078125
aF0.0
aF0.0
aF0.0
aF0.0078125
aF0.0
aF0.0
aF0.0078125
aF0.0078125
aF0.015625
aF0.0
aF0.0078125
aF0.0078125
aF0.0
aF0.0078125
aF0.0078125
aF0.0
aF0.0234375
aF0.0
aF0.015625
aF0.015625
asI17
(lp30
F0.22058823529411764
aF0.17647058823529413
aF0.058823529411764705
aF0.07352941176470588
aF0.07352941176470588
aF0.07352941176470588
aF0.029411764705882353
aF0.07352941176470588
aF0.014705882352941176
aF0.0
aF0.014705882352941176
aF0.014705882352941176
aF0.0
aF0.0
aF0.0
aF0.0
aF0.0
aF0.0
aF0.0
aF0.0
aF0.0
aF0.014705882352941176
aF0.0
aF0.014705882352941176
aF0.0
aF0.0
aF0.0
aF0.014705882352941176
aF0.014705882352941176
aF0.014705882352941176
aF0.0
aF0.014705882352941176
aF0.0
aF0.0
aF0.029411764705882353
aF0.0
aF0.014705882352941176
aF0.04411764705882353
asI18
(lp31
F0.2962962962962963
aF0.2777777777777778
aF0.05555555555555555
aF0.018518518518518517
aF0.037037037037037035
aF0.0
aF0.07407407407407407
aF0.018518518518518517
aF0.05555555555555555
aF0.018518518518518517
aF0.018518518518518517
aF0.0
aF0.0
aF0.018518518518518517
aF0.0
aF0.0
aF0.018518518518518517
aF0.0
aF0.018518518518518517
aF0.0
aF0.0
aF0.0
aF0.0
aF0.0
aF0.0
aF0.0
aF0.0
aF0.018518518518518517
aF0.018518518518518517
aF0.018518518518518517
aF0.0
aF0.0
aF0.0
aF0.0
aF0.0
aF0.0
aF0.018518518518518517
aF0.0
asI19
(lp32
F0.35526315789473684
aF0.13157894736842105
aF0.07894736842105263
aF0.07894736842105263
aF0.013157894736842105
aF0.05263157894736842
aF0.02631578947368421
aF0.02631578947368421
aF0.02631578947368421
aF0.0
aF0.02631578947368421
aF0.013157894736842105
aF0.0
aF0.039473684210526314
aF0.0
aF0.013157894736842105
aF0.0
aF0.0
aF0.0
aF0.0
aF0.0
aF0.0
aF0.0
aF0.0
aF0.013157894736842105
aF0.013157894736842105
aF0.0
aF0.013157894736842105
aF0.02631578947368421
aF0.0
aF0.0
aF0.0
aF0.0
aF0.013157894736842105
aF0.013157894736842105
aF0.0
aF0.0
aF0.02631578947368421
asI20
(lp33
F0.3875
aF0.1875
aF0.0625
aF0.0125
aF0.0125
aF0.05
aF0.0375
aF0.0125
aF0.0125
aF0.0
aF0.025
aF0.025
aF0.0
aF0.0125
aF0.0
aF0.0
aF0.0
aF0.0
aF0.0125
aF0.0
aF0.0
aF0.0125
aF0.0125
aF0.0
aF0.025
aF0.0125
aF0.0
aF0.0
aF0.0
aF0.0125
aF0.0
aF0.0125
aF0.0
aF0.0
aF0.0125
aF0.025
aF0.0125
aF0.0125
asI21
(lp34
F0.23809523809523808
aF0.09523809523809523
aF0.09523809523809523
aF0.09523809523809523
aF0.047619047619047616
aF0.047619047619047616
aF0.047619047619047616
aF0.0
aF0.0
aF0.047619047619047616
aF0.0
aF0.0
aF0.0
aF0.0
aF0.0
aF0.047619047619047616
aF0.0
aF0.047619047619047616
aF0.0
aF0.047619047619047616
aF0.0
aF0.0
aF0.047619047619047616
aF0.0
aF0.0
aF0.0
aF0.0
aF0.0
aF0.0
aF0.0
aF0.047619047619047616
aF0.0
aF0.0
aF0.0
aF0.0
aF0.0
aF0.0
aF0.047619047619047616
asI22
(lp35
F0.36363636363636365
aF0.13636363636363635
aF0.06818181818181818
aF0.0
aF0.09090909090909091
aF0.0
aF0.022727272727272728
aF0.045454545454545456
aF0.022727272727272728
aF0.045454545454545456
aF0.0
aF0.045454545454545456
aF0.0
aF0.0
aF0.0
aF0.0
aF0.0
aF0.0
aF0.022727272727272728
aF0.0
aF0.0
aF0.0
aF0.0
aF0.0
aF0.0
aF0.0
aF0.022727272727272728
aF0.022727272727272728
aF0.022727272727272728
aF0.0
aF0.0
aF0.0
aF0.0
aF0.0
aF0.045454545454545456
aF0.0
aF0.0
aF0.022727272727272728
asI23
(lp36
F0.2608695652173913
aF0.17391304347826086
aF0.06521739130434782
aF0.021739130434782608
aF0.043478260869565216
aF0.06521739130434782
aF0.08695652173913043
aF0.043478260869565216
aF0.043478260869565216
aF0.0
aF0.043478260869565216
aF0.021739130434782608
aF0.021739130434782608
aF0.0
aF0.0
aF0.0
aF0.0
aF0.0
aF0.0
aF0.0
aF0.0
aF0.0
aF0.0
aF0.0
aF0.021739130434782608
aF0.0
aF0.0
aF0.0
aF0.0
aF0.0
aF0.0
aF0.0
aF0.0
aF0.021739130434782608
aF0.043478260869565216
aF0.021739130434782608
aF0.0
aF0.0
asI24
(lp37
F0.16666666666666666
aF0.125
aF0.125
aF0.08333333333333333
aF0.08333333333333333
aF0.041666666666666664
aF0.0
aF0.08333333333333333
aF0.041666666666666664
aF0.0
aF0.0
aF0.041666666666666664
aF0.0
aF0.041666666666666664
aF0.041666666666666664
aF0.0
aF0.0
aF0.041666666666666664
aF0.0
aF0.0
aF0.0
aF0.0
aF0.0
aF0.0
aF0.0
aF0.041666666666666664
aF0.0
aF0.0
aF0.0
aF0.0
aF0.0
aF0.0
aF0.0
aF0.0
aF0.0
aF0.0
aF0.0
aF0.041666666666666664
asI25
(lp38
F0.36
aF0.08
aF0.16
aF0.12
aF0.0
aF0.12
aF0.04
aF0.0
aF0.0
aF0.0
aF0.0
aF0.0
aF0.04
aF0.0
aF0.0
aF0.0
aF0.0
aF0.04
aF0.04
aF0.0
aF0.0
aF0.0
aF0.0
aF0.0
aF0.0
aF0.0
aF0.0
aF0.0
aF0.0
aF0.0
aF0.0
aF0.0
aF0.0
aF0.0
aF0.0
aF0.0
aF0.0
aF0.0
asI27
(lp39
F0.3333333333333333
aF0.1111111111111111
aF0.1111111111111111
aF0.037037037037037035
aF0.1111111111111111
aF0.037037037037037035
aF0.07407407407407407
aF0.0
aF0.0
aF0.0
aF0.037037037037037035
aF0.037037037037037035
aF0.0
aF0.0
aF0.037037037037037035
aF0.0
aF0.0
aF0.0
aF0.0
aF0.0
aF0.0
aF0.0
aF0.0
aF0.0
aF0.0
aF0.0
aF0.0
aF0.037037037037037035
aF0.037037037037037035
aF0.0
aF0.0
aF0.0
aF0.0
aF0.0
aF0.0
aF0.0
aF0.0
aF0.0
asI30
(lp40
F0.25
aF0.15
aF0.11666666666666667
aF0.05
aF0.06666666666666667
aF0.03333333333333333
aF0.06666666666666667
aF0.05
aF0.03333333333333333
aF0.016666666666666666
aF0.0
aF0.0
aF0.016666666666666666
aF0.016666666666666666
aF0.0
aF0.0
aF0.016666666666666666
aF0.03333333333333333
aF0.0
aF0.0
aF0.016666666666666666
aF0.0
aF0.0
aF0.0
aF0.0
aF0.0
aF0.0
aF0.0
aF0.0
aF0.0
aF0.0
aF0.0
aF0.0
aF0.0
aF0.016666666666666666
aF0.0
aF0.03333333333333333
aF0.016666666666666666
asI31
(lp41
F0.3870967741935484
aF0.0967741935483871
aF0.03225806451612903
aF0.03225806451612903
aF0.06451612903225806
aF0.03225806451612903
aF0.06451612903225806
aF0.06451612903225806
aF0.0
aF0.03225806451612903
aF0.0
aF0.0
aF0.0
aF0.03225806451612903
aF0.0
aF0.0
aF0.03225806451612903
aF0.03225806451612903
aF0.0
aF0.0
aF0.0
aF0.03225806451612903
aF0.0
aF0.0
aF0.0
aF0.0
aF0.0
aF0.0
aF0.0
aF0.0
aF0.03225806451612903
aF0.0
aF0.0
aF0.0
aF0.03225806451612903
aF0.0
aF0.0
aF0.0
asI32
(lp42
F0.25
aF0.21875
aF0.125
aF0.0625
aF0.0625
aF0.09375
aF0.0
aF0.03125
aF0.0
aF0.03125
aF0.0
aF0.03125
aF0.0
aF0.0625
aF0.0
aF0.0
aF0.0
aF0.0
aF0.0
aF0.03125
aF0.0
aF0.0
aF0.0
aF0.0
aF0.0
aF0.0
aF0.0
aF0.0
aF0.0
aF0.0
aF0.0
aF0.0
aF0.0
aF0.0
aF0.0
aF0.0
aF0.0
aF0.0
asI33
(lp43
F0.2727272727272727
aF0.18181818181818182
aF0.030303030303030304
aF0.12121212121212122
aF0.06060606060606061
aF0.06060606060606061
aF0.030303030303030304
aF0.030303030303030304
aF0.0
aF0.0
aF0.0
aF0.0
aF0.0
aF0.0
aF0.030303030303030304
aF0.030303030303030304
aF0.030303030303030304
aF0.0
aF0.0
aF0.030303030303030304
aF0.0
aF0.0
aF0.0
aF0.030303030303030304
aF0.0
aF0.0
aF0.0
aF0.0
aF0.030303030303030304
aF0.0
aF0.0
aF0.0
aF0.0
aF0.0
aF0.0
aF0.0
aF0.030303030303030304
aF0.0
asI34
(lp44
F0.2647058823529412
aF0.1323529411764706
aF0.10294117647058823
aF0.04411764705882353
aF0.07352941176470588
aF0.04411764705882353
aF0.058823529411764705
aF0.029411764705882353
aF0.014705882352941176
aF0.0
aF0.014705882352941176
aF0.014705882352941176
aF0.014705882352941176
aF0.014705882352941176
aF0.014705882352941176
aF0.014705882352941176
aF0.029411764705882353
aF0.0
aF0.0
aF0.014705882352941176
aF0.0
aF0.0
aF0.0
aF0.014705882352941176
aF0.0
aF0.0
aF0.0
aF0.014705882352941176
aF0.0
aF0.0
aF0.014705882352941176
aF0.0
aF0.0
aF0.0
aF0.0
aF0.014705882352941176
aF0.029411764705882353
aF0.014705882352941176
asI36
(lp45
F0.19444444444444445
aF0.2222222222222222
aF0.1111111111111111
aF0.05555555555555555
aF0.027777777777777776
aF0.0
aF0.05555555555555555
aF0.05555555555555555
aF0.0
aF0.0
aF0.027777777777777776
aF0.05555555555555555
aF0.0
aF0.027777777777777776
aF0.027777777777777776
aF0.027777777777777776
aF0.0
aF0.027777777777777776
aF0.0
aF0.0
aF0.0
aF0.0
aF0.0
aF0.0
aF0.0
aF0.0
aF0.0
aF0.0
aF0.0
aF0.0
aF0.0
aF0.0
aF0.027777777777777776
aF0.0
aF0.027777777777777776
aF0.0
aF0.0
aF0.027777777777777776
asI38
(lp46
F0.2631578947368421
aF0.10526315789473684
aF0.13157894736842105
aF0.10526315789473684
aF0.05263157894736842
aF0.02631578947368421
aF0.02631578947368421
aF0.02631578947368421
aF0.05263157894736842
aF0.02631578947368421
aF0.02631578947368421
aF0.0
aF0.0
aF0.0
aF0.0
aF0.0
aF0.0
aF0.0
aF0.02631578947368421
aF0.0
aF0.0
aF0.0
aF0.0
aF0.0
aF0.0
aF0.02631578947368421
aF0.0
aF0.0
aF0.02631578947368421
aF0.0
aF0.0
aF0.0
aF0.0
aF0.02631578947368421
aF0.02631578947368421
aF0.0
aF0.0
aF0.02631578947368421
asI40
(lp47
F0.2
aF0.15
aF0.05
aF0.075
aF0.15
aF0.1
aF0.025
aF0.025
aF0.025
aF0.025
aF0.0
aF0.025
aF0.0
aF0.025
aF0.025
aF0.0
aF0.0
aF0.025
aF0.0
aF0.0
aF0.0
aF0.0
aF0.0
aF0.0
aF0.0
aF0.0
aF0.0
aF0.0
aF0.0
aF0.0
aF0.0
aF0.0
aF0.0
aF0.0
aF0.025
aF0.0
aF0.025
aF0.025
asI42
(lp48
F0.2619047619047619
aF0.16666666666666666
aF0.047619047619047616
aF0.023809523809523808
aF0.09523809523809523
aF0.023809523809523808
aF0.09523809523809523
aF0.047619047619047616
aF0.0
aF0.0
aF0.07142857142857142
aF0.023809523809523808
aF0.0
aF0.023809523809523808
aF0.0
aF0.0
aF0.0
aF0.0
aF0.0
aF0.0
aF0.0
aF0.0
aF0.0
aF0.0
aF0.0
aF0.0
aF0.0
aF0.0
aF0.0
aF0.023809523809523808
aF0.0
aF0.0
aF0.0
aF0.023809523809523808
aF0.023809523809523808
aF0.0
aF0.023809523809523808
aF0.023809523809523808
asI45
(lp49
F0.3111111111111111
aF0.2
aF0.06666666666666667
aF0.022222222222222223
aF0.0
aF0.13333333333333333
aF0.044444444444444446
aF0.044444444444444446
aF0.0
aF0.022222222222222223
aF0.0
aF0.022222222222222223
aF0.0
aF0.0
aF0.0
aF0.0
aF0.022222222222222223
aF0.0
aF0.0
aF0.0
aF0.022222222222222223
aF0.0
aF0.0
aF0.0
aF0.0
aF0.0
aF0.0
aF0.0
aF0.0
aF0.0
aF0.022222222222222223
aF0.0
aF0.022222222222222223
aF0.0
aF0.022222222222222223
aF0.0
aF0.0
aF0.022222222222222223
asI76
(lp50
F0.2236842105263158
aF0.18421052631578946
aF0.05263157894736842
aF0.06578947368421052
aF0.0
aF0.05263157894736842
aF0.06578947368421052
aF0.039473684210526314
aF0.02631578947368421
aF0.013157894736842105
aF0.05263157894736842
aF0.013157894736842105
aF0.0
aF0.02631578947368421
aF0.013157894736842105
aF0.013157894736842105
aF0.0
aF0.013157894736842105
aF0.0
aF0.0
aF0.0
aF0.0
aF0.0
aF0.0
aF0.02631578947368421
aF0.0
aF0.0
aF0.013157894736842105
aF0.02631578947368421
aF0.0
aF0.0
aF0.013157894736842105
aF0.013157894736842105
aF0.0
aF0.02631578947368421
aF0.013157894736842105
aF0.0
aF0.013157894736842105
asI52
(lp51
F0.19230769230769232
aF0.19230769230769232
aF0.07692307692307693
aF0.04807692307692308
aF0.0673076923076923
aF0.057692307692307696
aF0.019230769230769232
aF0.04807692307692308
aF0.028846153846153848
aF0.009615384615384616
aF0.019230769230769232
aF0.0
aF0.0
aF0.028846153846153848
aF0.019230769230769232
aF0.0
aF0.009615384615384616
aF0.009615384615384616
aF0.0
aF0.019230769230769232
aF0.019230769230769232
aF0.0
aF0.0
aF0.0
aF0.009615384615384616
aF0.009615384615384616
aF0.0
aF0.0
aF0.0
aF0.009615384615384616
aF0.009615384615384616
aF0.009615384615384616
aF0.009615384615384616
aF0.009615384615384616
aF0.019230769230769232
aF0.009615384615384616
aF0.019230769230769232
aF0.019230769230769232
asI158
(lp52
F0.2911392405063291
aF0.14556962025316456
aF0.0949367088607595
aF0.0379746835443038
aF0.06962025316455696
aF0.056962025316455694
aF0.05063291139240506
aF0.03164556962025317
aF0.02531645569620253
aF0.012658227848101266
aF0.012658227848101266
aF0.03164556962025317
aF0.0
aF0.012658227848101266
aF0.0189873417721519
aF0.0
aF0.012658227848101266
aF0.006329113924050633
aF0.006329113924050633
aF0.006329113924050633
aF0.0
aF0.006329113924050633
aF0.0
aF0.0
aF0.006329113924050633
aF0.0
aF0.0
aF0.0
aF0.006329113924050633
aF0.006329113924050633
aF0.006329113924050633
aF0.006329113924050633
aF0.006329113924050633
aF0.006329113924050633
aF0.012658227848101266
aF0.006329113924050633
aF0.006329113924050633
aF0.0
asI58
(lp53
F0.3793103448275862
aF0.1896551724137931
aF0.08620689655172414
aF0.017241379310344827
aF0.017241379310344827
aF0.05172413793103448
aF0.0
aF0.034482758620689655
aF0.06896551724137931
aF0.0
aF0.0
aF0.017241379310344827
aF0.017241379310344827
aF0.0
aF0.0
aF0.0
aF0.0
aF0.034482758620689655
aF0.0
aF0.0
aF0.017241379310344827
aF0.0
aF0.0
aF0.0
aF0.0
aF0.0
aF0.0
aF0.0
aF0.017241379310344827
aF0.0
aF0.0
aF0.0
aF0.0
aF0.0
aF0.017241379310344827
aF0.0
aF0.017241379310344827
aF0.017241379310344827
assS'popt'
p54
cnumpy.core.multiarray
_reconstruct
p55
(cnumpy
ndarray
p56
(I0
tp57
S'b'
p58
tp59
Rp60
(I1
(I3
tp61
g8
I00
S"|\x9a%\xfe\x9dX\x04@\x80IQ\xda\xe4\xf6w\xc0Z9\xb7&'\xabu\xc0"
p62
tp63
bs.