(dp0
S'uncorrelated_prob'
p1
(lp2
F0.20110330992978936
aF0.13105984620528252
aF0.09946506185222334
aF0.06318956870611836
aF0.04563691073219659
aF0.05884319625543297
aF0.03911735205616851
aF0.0367769976596456
aF0.022066198595787363
aF0.010030090270812437
aF0.023905048478769644
aF0.009361417586091608
aF0.03259779338014042
aF0.018722835172183216
aF0.008525576730190571
aF0.009027081243731194
aF0.015880976262119692
aF0.003343363423604146
aF0.003510531594784353
aF0.0036776997659645604
aF0.0038448679371447677
aF0.008358408559010365
aF0.0043463724506853894
aF0.014042126379137413
aF0.009695753928452023
aF0.0050150451354062184
aF0.010698762955533266
aF0.011367435640254095
aF0.006352390504847877
aF0.006519558676028084
aF0.007021063189568706
aF0.007188231360748913
aF0.007355399531929121
aF0.01805416248746239
aF0.010197258441992645
aF0.015713808090939484
aF0.0183884988298228
asS'assortativity'
p3
cnumpy.core.multiarray
scalar
p4
(cnumpy
dtype
p5
(S'f8'
p6
I0
I1
tp7
Rp8
(I3
S'<'
p9
NNNI-1
I-1
I0
tp10
bS'91\xa8\x9c\xa2p\xb4\xbf'
p11
tp12
Rp13
sS'dgr_dgr_func'
p14
(dp15
I3
(lp16
F0.0
aF0.1055694098088113
aF0.11886949293433084
aF0.085619285120532
aF0.058187863674147966
aF0.0831255195344971
aF0.05403158769742311
aF0.060681629260182876
aF0.03325020781379884
aF0.01662510390689942
aF0.029925187032418952
aF0.01662510390689942
aF0.043225270157938485
aF0.030756442227763924
aF0.00914380714879468
aF0.010806317539484621
aF0.019118869492934332
aF0.004156275976724855
aF0.0024937655860349127
aF0.004987531172069825
aF0.0033250207813798837
aF0.010806317539484621
aF0.0033250207813798837
aF0.01662510390689942
aF0.012468827930174564
aF0.00997506234413965
aF0.01828761429758936
aF0.014131338320864505
aF0.011637572734829594
aF0.00831255195344971
aF0.007481296758104738
aF0.00914380714879468
aF0.00997506234413965
aF0.02660016625103907
aF0.00997506234413965
aF0.015793848711554447
aF0.02493765586034913
asI4
(lp17
F0.16198979591836735
aF0.08418367346938775
aF0.08673469387755102
aF0.06505102040816327
aF0.061224489795918366
aF0.05229591836734694
aF0.04974489795918367
aF0.03571428571428571
aF0.02806122448979592
aF0.008928571428571428
aF0.030612244897959183
aF0.008928571428571428
aF0.047193877551020405
aF0.015306122448979591
aF0.011479591836734694
aF0.011479591836734694
aF0.02295918367346939
aF0.002551020408163265
aF0.008928571428571428
aF0.0
aF0.0012755102040816326
aF0.01020408163265306
aF0.0012755102040816326
aF0.017857142857142856
aF0.012755102040816327
aF0.003826530612244898
aF0.015306122448979591
aF0.015306122448979591
aF0.00510204081632653
aF0.012755102040816327
aF0.01020408163265306
aF0.011479591836734694
aF0.011479591836734694
aF0.016581632653061226
aF0.008928571428571428
aF0.025510204081632654
aF0.026785714285714284
asI5
(lp18
F0.24033613445378152
aF0.11428571428571428
aF0.07394957983193277
aF0.043697478991596636
aF0.03697478991596639
aF0.07563025210084033
aF0.02857142857142857
aF0.03361344537815126
aF0.01680672268907563
aF0.010084033613445379
aF0.030252100840336135
aF0.005042016806722689
aF0.03865546218487395
aF0.01680672268907563
aF0.015126050420168067
aF0.010084033613445379
aF0.018487394957983194
aF0.005042016806722689
aF0.0033613445378151263
aF0.0016806722689075631
aF0.0067226890756302525
aF0.010084033613445379
aF0.0067226890756302525
aF0.015126050420168067
aF0.013445378151260505
aF0.0033613445378151263
aF0.011764705882352941
aF0.011764705882352941
aF0.008403361344537815
aF0.0033613445378151263
aF0.005042016806722689
aF0.008403361344537815
aF0.005042016806722689
aF0.020168067226890758
aF0.011764705882352941
aF0.020168067226890758
aF0.020168067226890758
asI6
(lp19
F0.2724867724867725
aF0.1349206349206349
aF0.06878306878306878
aF0.05291005291005291
aF0.03968253968253968
aF0.047619047619047616
aF0.0291005291005291
aF0.021164021164021163
aF0.021164021164021163
aF0.010582010582010581
aF0.031746031746031744
aF0.007936507936507936
aF0.04497354497354497
aF0.021164021164021163
aF0.007936507936507936
aF0.005291005291005291
aF0.018518518518518517
aF0.0026455026455026454
aF0.005291005291005291
aF0.005291005291005291
aF0.0
aF0.010582010582010581
aF0.0
aF0.018518518518518517
aF0.013227513227513227
aF0.007936507936507936
aF0.0026455026455026454
aF0.007936507936507936
aF0.0026455026455026454
aF0.0
aF0.013227513227513227
aF0.010582010582010581
aF0.007936507936507936
aF0.013227513227513227
aF0.007936507936507936
aF0.010582010582010581
aF0.023809523809523808
asI7
(lp20
F0.2564102564102564
aF0.17582417582417584
aF0.08058608058608059
aF0.054945054945054944
aF0.04395604395604396
aF0.05860805860805861
aF0.014652014652014652
aF0.02197802197802198
aF0.007326007326007326
aF0.007326007326007326
aF0.014652014652014652
aF0.01098901098901099
aF0.02564102564102564
aF0.02564102564102564
aF0.0
aF0.003663003663003663
aF0.02197802197802198
aF0.003663003663003663
aF0.003663003663003663
aF0.007326007326007326
aF0.0
aF0.0
aF0.01098901098901099
aF0.0
aF0.018315018315018316
aF0.0
aF0.007326007326007326
aF0.018315018315018316
aF0.007326007326007326
aF0.007326007326007326
aF0.003663003663003663
aF0.003663003663003663
aF0.007326007326007326
aF0.03663003663003663
aF0.007326007326007326
aF0.02564102564102564
aF0.007326007326007326
asI8
(lp21
F0.2840909090909091
aF0.11647727272727272
aF0.1278409090909091
aF0.05113636363636364
aF0.045454545454545456
aF0.056818181818181816
aF0.028409090909090908
aF0.017045454545454544
aF0.04261363636363636
aF0.005681818181818182
aF0.017045454545454544
aF0.002840909090909091
aF0.011363636363636364
aF0.022727272727272728
aF0.005681818181818182
aF0.002840909090909091
aF0.014204545454545454
aF0.005681818181818182
aF0.002840909090909091
aF0.0
aF0.008522727272727272
aF0.002840909090909091
aF0.0
aF0.017045454545454544
aF0.011363636363636364
aF0.0
aF0.005681818181818182
aF0.019886363636363636
aF0.005681818181818182
aF0.008522727272727272
aF0.002840909090909091
aF0.005681818181818182
aF0.005681818181818182
aF0.011363636363636364
aF0.014204545454545454
aF0.011363636363636364
aF0.008522727272727272
asI9
(lp22
F0.2777777777777778
aF0.16666666666666666
aF0.07264957264957266
aF0.04700854700854701
aF0.017094017094017096
aF0.042735042735042736
aF0.05128205128205128
aF0.02564102564102564
aF0.021367521367521368
aF0.004273504273504274
aF0.01282051282051282
aF0.021367521367521368
aF0.017094017094017096
aF0.017094017094017096
aF0.01282051282051282
aF0.01282051282051282
aF0.004273504273504274
aF0.0
aF0.004273504273504274
aF0.017094017094017096
aF0.017094017094017096
aF0.004273504273504274
aF0.008547008547008548
aF0.029914529914529916
aF0.004273504273504274
aF0.004273504273504274
aF0.01282051282051282
aF0.0
aF0.004273504273504274
aF0.004273504273504274
aF0.008547008547008548
aF0.01282051282051282
aF0.004273504273504274
aF0.004273504273504274
aF0.01282051282051282
aF0.004273504273504274
aF0.017094017094017096
asI10
(lp23
F0.33181818181818185
aF0.12727272727272726
aF0.09090909090909091
aF0.03636363636363636
aF0.02727272727272727
aF0.02727272727272727
aF0.02727272727272727
aF0.03636363636363636
aF0.004545454545454545
aF0.004545454545454545
aF0.031818181818181815
aF0.0
aF0.022727272727272728
aF0.00909090909090909
aF0.00909090909090909
aF0.00909090909090909
aF0.013636363636363636
aF0.0
aF0.004545454545454545
aF0.0
aF0.0
aF0.004545454545454545
aF0.00909090909090909
aF0.00909090909090909
aF0.0
aF0.013636363636363636
aF0.00909090909090909
aF0.00909090909090909
aF0.00909090909090909
aF0.00909090909090909
aF0.013636363636363636
aF0.004545454545454545
aF0.004545454545454545
aF0.022727272727272728
aF0.01818181818181818
aF0.01818181818181818
aF0.031818181818181815
asI11
(lp24
F0.30303030303030304
aF0.16666666666666666
aF0.07575757575757576
aF0.06060606060606061
aF0.015151515151515152
aF0.11363636363636363
aF0.03787878787878788
aF0.007575757575757576
aF0.015151515151515152
aF0.0
aF0.007575757575757576
aF0.0
aF0.030303030303030304
aF0.007575757575757576
aF0.0
aF0.022727272727272728
aF0.022727272727272728
aF0.007575757575757576
aF0.0
aF0.0
aF0.007575757575757576
aF0.015151515151515152
aF0.0
aF0.007575757575757576
aF0.007575757575757576
aF0.0
aF0.015151515151515152
aF0.0
aF0.0
aF0.0
aF0.007575757575757576
aF0.007575757575757576
aF0.0
aF0.015151515151515152
aF0.007575757575757576
aF0.007575757575757576
aF0.007575757575757576
asI12
(lp25
F0.3333333333333333
aF0.11666666666666667
aF0.1
aF0.06666666666666667
aF0.03333333333333333
aF0.03333333333333333
aF0.016666666666666666
aF0.016666666666666666
aF0.0
aF0.0
aF0.0
aF0.016666666666666666
aF0.016666666666666666
aF0.05
aF0.03333333333333333
aF0.0
aF0.016666666666666666
aF0.0
aF0.0
aF0.016666666666666666
aF0.016666666666666666
aF0.03333333333333333
aF0.0
aF0.0
aF0.0
aF0.0
aF0.0
aF0.016666666666666666
aF0.0
aF0.03333333333333333
aF0.0
aF0.0
aF0.0
aF0.016666666666666666
aF0.016666666666666666
aF0.0
aF0.0
asI13
(lp26
F0.2517482517482518
aF0.16783216783216784
aF0.1258741258741259
aF0.08391608391608392
aF0.027972027972027972
aF0.04195804195804196
aF0.02097902097902098
aF0.04895104895104895
aF0.006993006993006993
aF0.0
aF0.027972027972027972
aF0.0
aF0.04195804195804196
aF0.006993006993006993
aF0.0
aF0.0
aF0.013986013986013986
aF0.0
aF0.006993006993006993
aF0.0
aF0.006993006993006993
aF0.0
aF0.0
aF0.006993006993006993
aF0.0
aF0.02097902097902098
aF0.0
aF0.013986013986013986
aF0.006993006993006993
aF0.013986013986013986
aF0.0
aF0.0
aF0.013986013986013986
aF0.02097902097902098
aF0.006993006993006993
aF0.013986013986013986
aF0.0
asI14
(lp27
F0.35714285714285715
aF0.125
aF0.05357142857142857
aF0.05357142857142857
aF0.05357142857142857
aF0.017857142857142856
aF0.08928571428571429
aF0.0
aF0.0
aF0.017857142857142856
aF0.0
aF0.0
aF0.03571428571428571
aF0.017857142857142856
aF0.017857142857142856
aF0.0
aF0.017857142857142856
aF0.0
aF0.0
aF0.017857142857142856
aF0.0
aF0.0
aF0.0
aF0.0
aF0.0
aF0.0
aF0.0
aF0.017857142857142856
aF0.0
aF0.0
aF0.0
aF0.0
aF0.0
aF0.017857142857142856
aF0.017857142857142856
aF0.03571428571428571
aF0.03571428571428571
asI15
(lp28
F0.26666666666666666
aF0.18974358974358974
aF0.11794871794871795
aF0.08717948717948718
aF0.035897435897435895
aF0.020512820512820513
aF0.020512820512820513
aF0.02564102564102564
aF0.020512820512820513
aF0.005128205128205128
aF0.03076923076923077
aF0.010256410256410256
aF0.010256410256410256
aF0.0
aF0.0
aF0.005128205128205128
aF0.0
aF0.005128205128205128
aF0.0
aF0.0
aF0.010256410256410256
aF0.015384615384615385
aF0.010256410256410256
aF0.010256410256410256
aF0.0
aF0.0
aF0.010256410256410256
aF0.010256410256410256
aF0.015384615384615385
aF0.0
aF0.005128205128205128
aF0.005128205128205128
aF0.010256410256410256
aF0.010256410256410256
aF0.015384615384615385
aF0.015384615384615385
aF0.005128205128205128
asI16
(lp29
F0.33035714285714285
aF0.10714285714285714
aF0.08928571428571429
aF0.07142857142857142
aF0.0625
aF0.07142857142857142
aF0.03571428571428571
aF0.017857142857142856
aF0.008928571428571428
aF0.026785714285714284
aF0.008928571428571428
aF0.008928571428571428
aF0.0
aF0.017857142857142856
aF0.017857142857142856
aF0.008928571428571428
aF0.0
aF0.0
aF0.0
aF0.008928571428571428
aF0.0
aF0.0
aF0.0
aF0.017857142857142856
aF0.0
aF0.0
aF0.017857142857142856
aF0.0
aF0.0
aF0.0
aF0.008928571428571428
aF0.008928571428571428
aF0.0
aF0.0
aF0.008928571428571428
aF0.026785714285714284
aF0.017857142857142856
asI17
(lp30
F0.21568627450980393
aF0.17647058823529413
aF0.17647058823529413
aF0.058823529411764705
aF0.0
aF0.0392156862745098
aF0.058823529411764705
aF0.0392156862745098
aF0.0
aF0.0392156862745098
aF0.0
aF0.0196078431372549
aF0.0
aF0.0392156862745098
aF0.0
aF0.0196078431372549
aF0.0
aF0.0
aF0.0
aF0.0196078431372549
aF0.0
aF0.0196078431372549
aF0.0
aF0.0
aF0.0196078431372549
aF0.0
aF0.0
aF0.0
aF0.0
aF0.0
aF0.0
aF0.0
aF0.0
aF0.0196078431372549
aF0.0
aF0.0196078431372549
aF0.0196078431372549
asI18
(lp31
F0.24074074074074073
aF0.16666666666666666
aF0.1111111111111111
aF0.037037037037037035
aF0.018518518518518517
aF0.018518518518518517
aF0.05555555555555555
aF0.037037037037037035
aF0.05555555555555555
aF0.0
aF0.0
aF0.0
aF0.018518518518518517
aF0.018518518518518517
aF0.018518518518518517
aF0.037037037037037035
aF0.018518518518518517
aF0.0
aF0.0
aF0.0
aF0.0
aF0.0
aF0.0
aF0.0
aF0.018518518518518517
aF0.0
aF0.018518518518518517
aF0.037037037037037035
aF0.0
aF0.018518518518518517
aF0.0
aF0.018518518518518517
aF0.0
aF0.0
aF0.0
aF0.018518518518518517
aF0.018518518518518517
asI19
(lp32
F0.24210526315789474
aF0.18947368421052632
aF0.11578947368421053
aF0.07368421052631578
aF0.06315789473684211
aF0.05263157894736842
aF0.010526315789473684
aF0.031578947368421054
aF0.031578947368421054
aF0.010526315789473684
aF0.021052631578947368
aF0.010526315789473684
aF0.0
aF0.0
aF0.0
aF0.010526315789473684
aF0.0
aF0.010526315789473684
aF0.0
aF0.0
aF0.0
aF0.010526315789473684
aF0.021052631578947368
aF0.010526315789473684
aF0.010526315789473684
aF0.0
aF0.0
aF0.010526315789473684
aF0.0
aF0.0
aF0.0
aF0.010526315789473684
aF0.0
aF0.010526315789473684
aF0.010526315789473684
aF0.010526315789473684
aF0.021052631578947368
asI20
(lp33
F0.25
aF0.1
aF0.15
aF0.05
aF0.05
aF0.1
aF0.0
aF0.0
aF0.05
aF0.0
aF0.0
aF0.0
aF0.05
aF0.0
aF0.0
aF0.0
aF0.05
aF0.0
aF0.0
aF0.0
aF0.0
aF0.0
aF0.05
aF0.0
aF0.0
aF0.0
aF0.0
aF0.0
aF0.0
aF0.0
aF0.0
aF0.0
aF0.0
aF0.0
aF0.05
aF0.0
aF0.05
asI21
(lp34
F0.14285714285714285
aF0.3333333333333333
aF0.09523809523809523
aF0.09523809523809523
aF0.047619047619047616
aF0.047619047619047616
aF0.047619047619047616
aF0.047619047619047616
aF0.0
aF0.0
aF0.047619047619047616
aF0.0
aF0.0
aF0.0
aF0.0
aF0.0
aF0.0
aF0.0
aF0.0
aF0.0
aF0.0
aF0.0
aF0.0
aF0.0
aF0.0
aF0.0
aF0.0
aF0.0
aF0.0
aF0.0
aF0.047619047619047616
aF0.0
aF0.047619047619047616
aF0.0
aF0.0
aF0.0
aF0.0
asI22
(lp35
F0.2727272727272727
aF0.0
aF0.045454545454545456
aF0.09090909090909091
aF0.09090909090909091
aF0.0
aF0.18181818181818182
aF0.0
aF0.0
aF0.045454545454545456
aF0.0
aF0.045454545454545456
aF0.0
aF0.045454545454545456
aF0.045454545454545456
aF0.0
aF0.0
aF0.0
aF0.0
aF0.0
aF0.0
aF0.0
aF0.0
aF0.0
aF0.0
aF0.0
aF0.0
aF0.0
aF0.0
aF0.0
aF0.045454545454545456
aF0.0
aF0.0
aF0.045454545454545456
aF0.0
aF0.0
aF0.045454545454545456
asI23
(lp36
F0.17391304347826086
aF0.043478260869565216
aF0.17391304347826086
aF0.0
aF0.0
aF0.13043478260869565
aF0.17391304347826086
aF0.0
aF0.043478260869565216
aF0.043478260869565216
aF0.043478260869565216
aF0.0
aF0.08695652173913043
aF0.0
aF0.0
aF0.0
aF0.0
aF0.0
aF0.0
aF0.0
aF0.0
aF0.0
aF0.0
aF0.043478260869565216
aF0.0
aF0.0
aF0.0
aF0.043478260869565216
aF0.0
aF0.0
aF0.0
aF0.0
aF0.0
aF0.0
aF0.0
aF0.0
aF0.0
asI25
(lp37
F0.26
aF0.16
aF0.12
aF0.08
aF0.0
aF0.02
aF0.02
aF0.02
aF0.04
aF0.04
aF0.0
aF0.0
aF0.06
aF0.0
aF0.02
aF0.0
aF0.02
aF0.0
aF0.0
aF0.0
aF0.0
aF0.0
aF0.02
aF0.0
aF0.0
aF0.0
aF0.02
aF0.02
aF0.02
aF0.0
aF0.0
aF0.0
aF0.0
aF0.04
aF0.02
aF0.0
aF0.0
asI26
(lp38
F0.15384615384615385
aF0.038461538461538464
aF0.15384615384615385
aF0.0
aF0.11538461538461539
aF0.0
aF0.07692307692307693
aF0.07692307692307693
aF0.0
aF0.0
aF0.0
aF0.0
aF0.07692307692307693
aF0.0
aF0.0
aF0.0
aF0.07692307692307693
aF0.038461538461538464
aF0.0
aF0.0
aF0.0
aF0.038461538461538464
aF0.0
aF0.0
aF0.0
aF0.0
aF0.0
aF0.0
aF0.0
aF0.0
aF0.0
aF0.0
aF0.038461538461538464
aF0.038461538461538464
aF0.038461538461538464
aF0.038461538461538464
aF0.0
asI28
(lp39
F0.23809523809523808
aF0.16666666666666666
aF0.10714285714285714
aF0.08333333333333333
aF0.0
aF0.07142857142857142
aF0.08333333333333333
aF0.023809523809523808
aF0.011904761904761904
aF0.0
aF0.011904761904761904
aF0.0
aF0.023809523809523808
aF0.023809523809523808
aF0.0
aF0.0
aF0.011904761904761904
aF0.0
aF0.0
aF0.0
aF0.011904761904761904
aF0.0
aF0.0
aF0.023809523809523808
aF0.0
aF0.011904761904761904
aF0.011904761904761904
aF0.0
aF0.011904761904761904
aF0.011904761904761904
aF0.0
aF0.0
aF0.011904761904761904
aF0.0
aF0.011904761904761904
aF0.011904761904761904
aF0.023809523809523808
asI29
(lp40
F0.25862068965517243
aF0.1724137931034483
aF0.13793103448275862
aF0.08620689655172414
aF0.08620689655172414
aF0.06896551724137931
aF0.017241379310344827
aF0.0
aF0.017241379310344827
aF0.0
aF0.0
aF0.0
aF0.0
aF0.0
aF0.017241379310344827
aF0.017241379310344827
aF0.017241379310344827
aF0.0
aF0.0
aF0.0
aF0.0
aF0.0
aF0.0
aF0.0
aF0.034482758620689655
aF0.0
aF0.017241379310344827
aF0.0
aF0.0
aF0.0
aF0.017241379310344827
aF0.0
aF0.0
aF0.034482758620689655
aF0.0
aF0.0
aF0.0
asI30
(lp41
F0.4
aF0.1
aF0.06666666666666667
aF0.1
aF0.0
aF0.0
aF0.03333333333333333
aF0.1
aF0.0
aF0.0
aF0.1
aF0.0
aF0.0
aF0.0
aF0.0
aF0.0
aF0.0
aF0.0
aF0.0
aF0.0
aF0.0
aF0.0
aF0.0
aF0.03333333333333333
aF0.0
aF0.0
aF0.0
aF0.03333333333333333
aF0.0
aF0.0
aF0.0
aF0.0
aF0.03333333333333333
aF0.0
aF0.0
aF0.0
aF0.0
asI32
(lp42
F0.34375
aF0.1875
aF0.109375
aF0.015625
aF0.03125
aF0.03125
aF0.046875
aF0.03125
aF0.03125
aF0.0
aF0.0
aF0.0
aF0.03125
aF0.03125
aF0.0
aF0.015625
aF0.0
aF0.0
aF0.0
aF0.0
aF0.0
aF0.015625
aF0.0
aF0.015625
aF0.015625
aF0.0
aF0.0
aF0.0
aF0.0
aF0.0
aF0.015625
aF0.0
aF0.0
aF0.0
aF0.0
aF0.015625
aF0.015625
asI34
(lp43
F0.25
aF0.17647058823529413
aF0.10294117647058823
aF0.04411764705882353
aF0.07352941176470588
aF0.10294117647058823
aF0.0
aF0.029411764705882353
aF0.0
aF0.014705882352941176
aF0.029411764705882353
aF0.014705882352941176
aF0.029411764705882353
aF0.0
aF0.0
aF0.029411764705882353
aF0.014705882352941176
aF0.0
aF0.0
aF0.0
aF0.014705882352941176
aF0.014705882352941176
aF0.0
aF0.0
aF0.0
aF0.014705882352941176
aF0.0
aF0.0
aF0.0
aF0.0
aF0.0
aF0.014705882352941176
aF0.014705882352941176
aF0.0
aF0.0
aF0.014705882352941176
aF0.0
asI38
(lp44
F0.3684210526315789
aF0.10526315789473684
aF0.13157894736842105
aF0.02631578947368421
aF0.05263157894736842
aF0.05263157894736842
aF0.02631578947368421
aF0.05263157894736842
aF0.0
aF0.0
aF0.02631578947368421
aF0.0
aF0.07894736842105263
aF0.0
aF0.0
aF0.0
aF0.0
aF0.0
aF0.0
aF0.0
aF0.0
aF0.02631578947368421
aF0.0
aF0.02631578947368421
aF0.0
aF0.0
aF0.0
aF0.0
aF0.0
aF0.0
aF0.0
aF0.0
aF0.0
aF0.02631578947368421
aF0.0
aF0.0
aF0.0
asI39
(lp45
F0.2564102564102564
aF0.2564102564102564
aF0.05128205128205128
aF0.0
aF0.05128205128205128
aF0.07692307692307693
aF0.02564102564102564
aF0.05128205128205128
aF0.0
aF0.05128205128205128
aF0.05128205128205128
aF0.0
aF0.0
aF0.0
aF0.0
aF0.02564102564102564
aF0.0
aF0.0
aF0.0
aF0.0
aF0.0
aF0.0
aF0.0
aF0.02564102564102564
aF0.0
aF0.0
aF0.0
aF0.0
aF0.0
aF0.0
aF0.0
aF0.0
aF0.0
aF0.0
aF0.02564102564102564
aF0.02564102564102564
aF0.02564102564102564
asI42
(lp46
F0.21428571428571427
aF0.19047619047619047
aF0.07142857142857142
aF0.11904761904761904
aF0.023809523809523808
aF0.023809523809523808
aF0.047619047619047616
aF0.07142857142857142
aF0.023809523809523808
aF0.0
aF0.0
aF0.0
aF0.023809523809523808
aF0.023809523809523808
aF0.0
aF0.0
aF0.0
aF0.0
aF0.023809523809523808
aF0.023809523809523808
aF0.0
aF0.0
aF0.0
aF0.0
aF0.023809523809523808
aF0.0
aF0.023809523809523808
aF0.0
aF0.0
aF0.0
aF0.0
aF0.0
aF0.0
aF0.023809523809523808
aF0.0
aF0.023809523809523808
aF0.023809523809523808
asI43
(lp47
F0.2558139534883721
aF0.20930232558139536
aF0.11627906976744186
aF0.09302325581395349
aF0.023255813953488372
aF0.046511627906976744
aF0.06976744186046512
aF0.023255813953488372
aF0.023255813953488372
aF0.0
aF0.0
aF0.0
aF0.023255813953488372
aF0.023255813953488372
aF0.0
aF0.023255813953488372
aF0.023255813953488372
aF0.0
aF0.0
aF0.0
aF0.0
aF0.0
aF0.0
aF0.0
aF0.0
aF0.0
aF0.0
aF0.023255813953488372
aF0.0
aF0.0
aF0.0
aF0.0
aF0.0
aF0.0
aF0.0
aF0.0
aF0.023255813953488372
asI44
(lp48
F0.2727272727272727
aF0.20454545454545456
aF0.06818181818181818
aF0.06818181818181818
aF0.045454545454545456
aF0.045454545454545456
aF0.022727272727272728
aF0.022727272727272728
aF0.0
aF0.0
aF0.045454545454545456
aF0.0
aF0.045454545454545456
aF0.0
aF0.0
aF0.0
aF0.0
aF0.0
aF0.022727272727272728
aF0.0
aF0.0
aF0.0
aF0.022727272727272728
aF0.022727272727272728
aF0.0
aF0.022727272727272728
aF0.0
aF0.022727272727272728
aF0.0
aF0.0
aF0.0
aF0.0
aF0.0
aF0.0
aF0.022727272727272728
aF0.0
aF0.022727272727272728
asI110
(lp49
F0.2727272727272727
aF0.19090909090909092
aF0.10909090909090909
aF0.08181818181818182
aF0.01818181818181818
aF0.02727272727272727
aF0.03636363636363636
aF0.06363636363636363
aF0.00909090909090909
aF0.0
aF0.0
aF0.01818181818181818
aF0.00909090909090909
aF0.01818181818181818
aF0.00909090909090909
aF0.00909090909090909
aF0.01818181818181818
aF0.00909090909090909
aF0.0
aF0.00909090909090909
aF0.0
aF0.0
aF0.0
aF0.01818181818181818
aF0.0
aF0.0
aF0.00909090909090909
aF0.0
aF0.0
aF0.00909090909090909
aF0.00909090909090909
aF0.00909090909090909
aF0.00909090909090909
aF0.01818181818181818
aF0.00909090909090909
aF0.0
aF0.0
asI94
(lp50
F0.20212765957446807
aF0.2127659574468085
aF0.1276595744680851
aF0.0425531914893617
aF0.07446808510638298
aF0.0425531914893617
aF0.010638297872340425
aF0.0425531914893617
aF0.010638297872340425
aF0.0
aF0.02127659574468085
aF0.02127659574468085
aF0.031914893617021274
aF0.031914893617021274
aF0.010638297872340425
aF0.010638297872340425
aF0.010638297872340425
aF0.0
aF0.0
aF0.0
aF0.0
aF0.0
aF0.010638297872340425
aF0.010638297872340425
aF0.0
aF0.0
aF0.010638297872340425
aF0.010638297872340425
aF0.0
aF0.010638297872340425
aF0.010638297872340425
aF0.0
aF0.0
aF0.02127659574468085
aF0.010638297872340425
aF0.0
aF0.0
asI54
(lp51
F0.2962962962962963
aF0.12037037037037036
aF0.1111111111111111
aF0.046296296296296294
aF0.09259259259259259
aF0.037037037037037035
aF0.009259259259259259
aF0.046296296296296294
aF0.018518518518518517
aF0.009259259259259259
aF0.027777777777777776
aF0.009259259259259259
aF0.018518518518518517
aF0.0
aF0.009259259259259259
aF0.0
aF0.009259259259259259
aF0.0
aF0.0
aF0.009259259259259259
aF0.0
aF0.018518518518518517
aF0.009259259259259259
aF0.0
aF0.018518518518518517
aF0.0
aF0.0
aF0.0
aF0.009259259259259259
aF0.0
aF0.009259259259259259
aF0.0
aF0.0
aF0.018518518518518517
aF0.009259259259259259
aF0.018518518518518517
aF0.018518518518518517
asI61
(lp52
F0.19672131147540983
aF0.11475409836065574
aF0.11475409836065574
aF0.04918032786885246
aF0.03278688524590164
aF0.08196721311475409
aF0.04918032786885246
aF0.06557377049180328
aF0.01639344262295082
aF0.01639344262295082
aF0.01639344262295082
aF0.01639344262295082
aF0.04918032786885246
aF0.01639344262295082
aF0.0
aF0.0
aF0.01639344262295082
aF0.01639344262295082
aF0.0
aF0.0
aF0.0
aF0.01639344262295082
aF0.01639344262295082
aF0.01639344262295082
aF0.0
aF0.0
aF0.0
aF0.0
aF0.0
aF0.01639344262295082
aF0.0
aF0.0
aF0.01639344262295082
aF0.01639344262295082
aF0.0
aF0.01639344262295082
aF0.01639344262295082
assS'popt'
p53
cnumpy.core.multiarray
_reconstruct
p54
(cnumpy
ndarray
p55
(I0
tp56
S'b'
p57
tp58
Rp59
(I1
(I3
tp60
g8
I00
S'\x9f\xb6*\xd9W3\x04@$\xc9d\ri3\x82@;\xbajo\t\xe5\x80@'
p61
tp62
bs.