(dp0
S'acumvotes'
p1
L8083950303270851062174139898244289793707260810354459794969186626915642731716259421148647946118774467035146851128503898169394126896756005084175256270455546113141544035258068680872955907255089487516732927281924344013116108257264553604389040383591444896026291852112054324960122601708792841424354469542526455700908886260053469650041293723656314383534455745296344404110045712403281927730786017581694220523915845590975773197303680637006878316030195062730245106315052874247259096269691237901800253117506989883133621620299021129016536738039625155211285631899036452292920770978730007846516140318065841623770493093789065010037262869757373318613503337316966781624405361666364298296034523520383871998059480049839381046600661731844553598545485503033346708157905838853324800000L
s.