(dp0
S'count'
p1
(lp2
F20001.543333333328
aF11426.779999999997
aF7143.79666666667
aF4760.496666666668
aF3330.879999999998
aF2422.4999999999977
aF1815.0433333333344
aF1399.7000000000007
aF1103.19
aF876.516666666667
aF717.7833333333334
aF586.9633333333337
aF491.89666666666653
aF413.69666666666643
aF352.0533333333334
aF302.3766666666665
aF259.71666666666664
aF225.40333333333317
aF198.08333333333348
aF173.31999999999982
aF152.88333333333338
aF136.2866666666667
aF120.99666666666671
aF109.59333333333339
aF98.46333333333335
aF89.19333333333336
aF80.86000000000007
aF73.45000000000003
aF67.0566666666666
aF61.45999999999999
aF55.400000000000006
aF52.28666666666663
aF47.623333333333285
aF43.14333333333334
aF40.34666666666668
aF37.906666666666666
aF35.35999999999998
aF31.92999999999998
aF30.17666666666665
aF28.579999999999973
aF26.566666666666634
aF24.6833333333333
aF23.313333333333315
aF21.506666666666675
aF20.203333333333315
aF18.9
aF17.730000000000008
aF17.21666666666667
aF16.363333333333326
aF15.569999999999983
aF14.379999999999992
aF13.496666666666668
aF12.626666666666654
aF12.243333333333329
aF11.646666666666665
aF11.31333333333333
aF10.463333333333336
aF10.136666666666661
aF9.83666666666666
aF9.136666666666658
aF9.196666666666669
aF8.466666666666658
aF7.8466666666666605
aF7.373333333333329
aF7.4466666666666566
aF7.063333333333329
aF6.83999999999999
aF6.279999999999995
aF6.066666666666663
aF5.939999999999994
aF5.64666666666666
aF5.43666666666666
aF4.946666666666661
aF5.366666666666657
aF5.059999999999992
aF4.623333333333332
aF4.4799999999999915
aF4.286666666666664
aF4.196666666666663
aF4.049999999999994
aF3.8433333333333266
aF3.9199999999999933
aF3.4999999999999973
aF3.6066666666666634
aF3.3399999999999963
aF3.1633333333333296
aF3.223333333333334
aF3.226666666666662
aF2.9899999999999998
aF2.836666666666664
aF2.819999999999999
aF2.790000000000002
aF2.710000000000001
aF2.6133333333333337
aF2.3933333333333358
aF2.460000000000002
aF2.2566666666666664
aF2.28
aF2.136666666666668
aF2.220000000000002
aF1.9300000000000024
aF2.076666666666668
aF1.9166666666666685
aF1.9400000000000022
aF1.906666666666667
aF1.8600000000000019
aF1.8666666666666678
aF1.6566666666666696
aF1.6466666666666674
aF1.6166666666666685
aF1.5233333333333345
aF1.5800000000000023
aF1.4966666666666681
aF1.5133333333333343
aF1.2700000000000007
aF1.4800000000000022
aF1.3633333333333348
aF1.4399999999999993
aF1.2266666666666675
aF1.1433333333333338
aF1.3233333333333341
aF1.2866666666666675
aF1.0333333333333334
aF1.2800000000000016
aF1.0800000000000005
aF1.0633333333333328
aF0.9999999999999997
aF1.02
aF1.1066666666666674
aF1.0366666666666668
aF0.9699999999999992
aF1.0199999999999994
aF0.8766666666666662
aF0.7999999999999999
aF0.8199999999999994
aF0.8199999999999998
aF0.799999999999999
aF0.9099999999999994
aF0.8333333333333331
aF0.8399999999999992
aF0.7633333333333331
aF0.8033333333333328
aF0.6833333333333329
aF0.7966666666666657
aF0.6299999999999999
aF0.7266666666666666
aF0.7399999999999998
aF0.6633333333333332
aF0.6733333333333338
aF0.6966666666666658
aF0.6366666666666669
aF0.5900000000000004
aF0.5866666666666667
aF0.5400000000000005
aF0.5900000000000002
aF0.6333333333333336
aF0.6166666666666667
aF0.5700000000000002
aF0.5333333333333338
aF0.5466666666666673
aF0.5200000000000004
aF0.5233333333333338
aF0.46333333333333376
aF0.5000000000000007
aF0.5066666666666669
aF0.4833333333333338
aF0.5200000000000007
aF0.5166666666666669
aF0.4333333333333337
aF0.4300000000000007
aF0.47000000000000036
aF0.4400000000000003
aF0.4433333333333339
aF0.4366666666666671
aF0.4033333333333336
aF0.41666666666666663
aF0.3966666666666668
aF0.3666666666666667
aF0.5066666666666672
aF0.3466666666666668
aF0.36333333333333356
aF0.40000000000000036
aF0.4400000000000006
aF0.376666666666667
aF0.39333333333333365
aF0.30999999999999994
aF0.33000000000000007
aF0.38333333333333375
aF0.37333333333333346
aF0.29999999999999993
aF0.3366666666666668
aF0.3133333333333333
aF0.36000000000000015
aF0.34000000000000025
aF0.2999999999999999
aF0.3766666666666668
aF0.32333333333333336
aF0.31
aF0.3400000000000001
aF0.2566666666666664
aF0.2766666666666665
aF0.2666666666666664
aF0.253333333333333
aF0.30666666666666653
aF0.31666666666666676
aF0.2299999999999997
aF0.2399999999999997
aF0.28999999999999987
aF0.23999999999999974
aF0.28999999999999987
aF0.28999999999999987
aF0.21333333333333307
aF0.23333333333333303
aF0.21666666666666642
aF0.19666666666666646
aF0.25999999999999973
aF0.2233333333333331
aF0.23666666666666636
aF0.21999999999999975
aF0.2533333333333331
aF0.1999999999999998
aF0.2166666666666664
aF0.18333333333333313
aF0.18666666666666648
aF0.26333333333333314
aF0.20999999999999977
aF0.18333333333333315
aF0.22666666666666643
aF0.1766666666666665
aF0.13333333333333322
aF0.18666666666666648
aF0.18666666666666648
aF0.1299999999999999
aF0.17666666666666647
aF0.18999999999999978
aF0.21999999999999972
aF0.20666666666666644
aF0.14666666666666656
aF0.16999999999999982
aF0.1899999999999998
aF0.20666666666666644
aF0.1533333333333332
aF0.12999999999999992
aF0.16333333333333316
aF0.1399999999999999
aF0.16666666666666652
aF0.17666666666666647
aF0.1566666666666665
aF0.1433333333333332
aF0.12666666666666657
aF0.13999999999999987
aF0.1433333333333332
aF0.13333333333333322
aF0.1399999999999999
aF0.14999999999999986
aF0.1299999999999999
aF0.14666666666666653
aF0.14999999999999988
aF0.16666666666666652
aF0.1299999999999999
aF0.14666666666666653
aF0.14666666666666656
aF0.12666666666666657
aF0.15999999999999986
aF0.11666666666666657
aF0.13666666666666655
aF0.12666666666666657
aF0.1166666666666666
aF0.11999999999999991
aF0.13333333333333322
aF0.11999999999999991
aF0.10999999999999993
aF0.09666666666666661
aF0.1166666666666666
aF0.10999999999999992
aF0.07999999999999999
aF0.10999999999999992
aF0.09666666666666661
aF0.10333333333333326
aF0.10999999999999992
aF0.09666666666666661
aF0.10666666666666659
aF0.0833333333333333
aF0.10666666666666659
aF0.10999999999999992
aF0.10333333333333326
aF0.11333333333333324
aF0.09999999999999994
aF0.08999999999999996
aF0.08666666666666663
aF0.09666666666666661
aF0.10666666666666659
aF0.10999999999999992
aF0.11999999999999991
aF0.10666666666666659
aF0.07999999999999997
aF0.07333333333333332
aF0.09999999999999995
aF0.09666666666666661
aF0.13999999999999987
aF0.0833333333333333
aF0.08333333333333331
aF0.09333333333333328
aF0.08666666666666663
aF0.08333333333333331
aF0.09333333333333328
aF0.0933333333333333
aF0.06666666666666667
aF0.10666666666666659
aF0.06999999999999999
aF0.07333333333333332
aF0.06999999999999999
aF0.08666666666666663
aF0.09666666666666662
aF0.06333333333333334
aF0.06333333333333334
aF0.10333333333333328
aF0.06666666666666667
aF0.10333333333333329
aF0.06999999999999999
aF0.06666666666666667
aF0.07333333333333332
aF0.06666666666666667
aF0.09666666666666662
aF0.06333333333333334
aF0.09333333333333328
aF0.06333333333333334
aF0.09999999999999995
aF0.10666666666666659
aF0.03666666666666667
aF0.06999999999999999
aF0.10999999999999993
aF0.09666666666666662
aF0.08666666666666664
aF0.08666666666666663
aF0.05666666666666667
aF0.07999999999999997
aF0.060000000000000005
aF0.06666666666666667
aF0.07333333333333332
aF0.060000000000000005
aF0.07333333333333332
aF0.06666666666666667
aF0.07999999999999997
aF0.07333333333333332
aF0.08999999999999996
aF0.03333333333333333
aF0.060000000000000005
aF0.08666666666666663
aF0.08999999999999996
aF0.06666666666666667
aF0.043333333333333335
aF0.09999999999999995
aF0.08666666666666663
aF0.06333333333333334
aF0.04666666666666667
aF0.03666666666666667
aF0.043333333333333335
aF0.07999999999999997
aF0.03333333333333333
aF0.06999999999999999
aF0.06333333333333334
aF0.05333333333333334
aF0.05666666666666667
aF0.04666666666666667
aF0.06666666666666667
aF0.05333333333333334
aF0.06666666666666667
aF0.04
aF0.07666666666666665
aF0.07
aF0.030000000000000002
aF0.04
aF0.05666666666666667
aF0.03666666666666667
aF0.04666666666666667
aF0.0833333333333333
aF0.06999999999999999
aF0.05333333333333334
aF0.04
aF0.04666666666666667
aF0.05333333333333334
aF0.05333333333333334
aF0.02666666666666667
aF0.05
aF0.043333333333333335
aF0.03666666666666667
aF0.030000000000000002
aF0.060000000000000005
aF0.043333333333333335
aF0.03333333333333333
aF0.06333333333333334
aF0.04666666666666667
aF0.05333333333333334
aF0.043333333333333335
aF0.060000000000000005
aF0.04
aF0.060000000000000005
aF0.04
aF0.05333333333333334
aF0.03333333333333333
aF0.060000000000000005
aF0.06999999999999999
aF0.04
aF0.043333333333333335
aF0.023333333333333334
aF0.07333333333333332
aF0.04
aF0.03666666666666667
aF0.04666666666666667
aF0.03666666666666667
aF0.03666666666666667
aF0.05333333333333334
aF0.03666666666666667
aF0.03666666666666667
aF0.02666666666666667
aF0.03666666666666667
aF0.060000000000000005
aF0.023333333333333334
aF0.030000000000000002
aF0.03333333333333333
aF0.05
aF0.04666666666666667
aF0.02666666666666667
aF0.04
aF0.023333333333333334
aF0.02666666666666667
aF0.016666666666666666
aF0.030000000000000002
aF0.06333333333333334
aF0.03333333333333333
aF0.030000000000000002
aF0.03333333333333333
aF0.02666666666666667
aF0.03666666666666667
aF0.02666666666666667
aF0.04666666666666667
aF0.04
aF0.02
aF0.043333333333333335
aF0.02666666666666667
aF0.02
aF0.04
aF0.043333333333333335
aF0.02666666666666667
aF0.03333333333333333
aF0.04
aF0.03666666666666667
aF0.02666666666666667
aF0.02
aF0.02666666666666667
aF0.02666666666666667
aF0.023333333333333334
aF0.030000000000000002
aF0.030000000000000002
aF0.03666666666666667
aF0.03333333333333333
aF0.030000000000000002
aF0.023333333333333334
aF0.03666666666666667
aF0.04666666666666667
aF0.03333333333333333
aF0.030000000000000002
aF0.02666666666666667
aF0.016666666666666666
aF0.023333333333333334
aF0.02
aF0.02666666666666667
aF0.04
aF0.030000000000000002
aF0.03333333333333333
aF0.02
aF0.023333333333333334
aF0.016666666666666666
aF0.030000000000000002
aF0.023333333333333334
aF0.023333333333333334
aF0.03333333333333333
aF0.043333333333333335
aF0.030000000000000002
aF0.013333333333333334
aF0.02
aF0.023333333333333334
aF0.04
aF0.013333333333333334
aF0.02666666666666667
aF0.016666666666666666
aF0.013333333333333334
aF0.023333333333333334
aF0.023333333333333334
aF0.023333333333333334
aF0.04
aF0.02666666666666667
aF0.02
aF0.016666666666666666
aF0.02666666666666667
aF0.03333333333333333
aF0.013333333333333334
aF0.01
aF0.023333333333333334
aF0.02
aF0.016666666666666666
aF0.02666666666666667
aF0.03666666666666667
aF0.05
aF0.02
aF0.01
aF0.023333333333333334
aF0.02
aF0.03666666666666667
aF0.02
aF0.02
aF0.02
aF0.030000000000000002
aF0.043333333333333335
aF0.03333333333333333
aF0.02
aF0.023333333333333334
aF0.03333333333333333
aF0.03333333333333333
aF0.023333333333333334
aF0.023333333333333334
aF0.02
aF0.016666666666666666
aF0.030000000000000002
aF0.02
aF0.023333333333333334
aF0.02666666666666667
aF0.030000000000000002
aF0.023333333333333334
aF0.03333333333333333
aF0.023333333333333334
aF0.02666666666666667
aF0.030000000000000002
aF0.023333333333333334
aF0.023333333333333334
aF0.02666666666666667
aF0.013333333333333334
aF0.02
aF0.02666666666666667
aF0.02
aF0.02666666666666667
aF0.02666666666666667
aF0.02
aF0.006666666666666667
aF0.016666666666666666
aF0.02666666666666667
aF0.030000000000000002
aF0.013333333333333334
aF0.016666666666666666
aF0.013333333333333334
aF0.023333333333333334
aF0.023333333333333334
aF0.02
aF0.02
aF0.02
aF0.013333333333333334
aF0.006666666666666667
aF0.02
aF0.016666666666666666
aF0.02666666666666667
aF0.023333333333333334
aF0.02
aF0.02
aF0.013333333333333334
aF0.013333333333333334
aF0.01
aF0.023333333333333334
aF0.01
aF0.016666666666666666
aF0.02
aF0.02666666666666667
aF0.013333333333333334
aF0.013333333333333334
aF0.01
aF0.006666666666666667
aF0.02666666666666667
aF0.013333333333333334
aF0.04
aF0.013333333333333334
aF0.013333333333333334
aF0.0033333333333333335
aF0.006666666666666667
aF0.0033333333333333335
aF0.016666666666666666
aF0.02
aF0.02
aF0.01
aF0.006666666666666667
aF0.01
aF0.01
aF0.01
aF0.03333333333333333
aF0.02
aF0.013333333333333334
aF0.023333333333333334
aF0.030000000000000002
aF0.013333333333333334
aF0.013333333333333334
aF0.02
aF0.016666666666666666
aF0.01
aF0.030000000000000002
aF0.02
aF0.016666666666666666
aF0.02666666666666667
aF0.006666666666666667
aF0.023333333333333334
aF0.016666666666666666
aF0.023333333333333334
aF0.02
aF0.02
aF0.016666666666666666
aF0.01
aF0.006666666666666667
aF0.02666666666666667
aF0.02
aF0.023333333333333334
aF0.013333333333333334
aF0.016666666666666666
aF0.013333333333333334
aF0.02666666666666667
aF0.016666666666666666
aF0.016666666666666666
aF0.016666666666666666
aF0.013333333333333334
aF0.0033333333333333335
aF0.016666666666666666
aF0.02
aF0.016666666666666666
aF0.0033333333333333335
aF0.023333333333333334
aF0.0033333333333333335
aF0.016666666666666666
aF0.023333333333333334
aF0.016666666666666666
aF0.02666666666666667
aF0.013333333333333334
aF0.01
aF0.02
aF0.023333333333333334
aF0.016666666666666666
aF0.02
aF0.006666666666666667
aF0.01
aF0.006666666666666667
aF0.0033333333333333335
aF0.01
aF0.0033333333333333335
aF0.013333333333333334
aF0.0033333333333333335
aF0.01
aF0.01
aF0.013333333333333334
aF0.01
aF0.013333333333333334
aF0.006666666666666667
aF0.023333333333333334
aF0.013333333333333334
aF0.02
aF0.01
aF0.023333333333333334
aF0.006666666666666667
aF0.0033333333333333335
aF0.016666666666666666
aF0.006666666666666667
aF0.006666666666666667
aF0.013333333333333334
aF0.006666666666666667
aF0.01
aF0.01
aF0.0033333333333333335
aF0.0033333333333333335
aF0.013333333333333334
aF0.0033333333333333335
aF0.02666666666666667
aF0.016666666666666666
aF0.016666666666666666
aF0.006666666666666667
aF0.01
aF0.01
aF0.006666666666666667
aF0.013333333333333334
aF0.0033333333333333335
aF0.01
aF0.0033333333333333335
aF0.006666666666666667
aF0.016666666666666666
aF0.023333333333333334
aF0.006666666666666667
aF0.02666666666666667
aF0.0033333333333333335
aF0.0033333333333333335
aF0.0033333333333333335
aF0.02
aF0.01
aF0.01
aF0.01
aF0.013333333333333334
aF0.01
aF0.0033333333333333335
aF0.01
aF0.02666666666666667
aF0.006666666666666667
aF0.013333333333333334
aF0.0033333333333333335
aF0.01
aF0.006666666666666667
aF0.0033333333333333335
aF0.0033333333333333335
aF0.006666666666666667
aF0.006666666666666667
aF0.01
aF0.016666666666666666
aF0.01
aF0.006666666666666667
aF0.013333333333333334
aF0.01
aF0.0033333333333333335
aF0.013333333333333334
aF0.013333333333333334
aF0.0033333333333333335
aF0.006666666666666667
aF0.01
aF0.006666666666666667
aF0.0033333333333333335
aF0.01
aF0.0033333333333333335
aF0.006666666666666667
aF0.0033333333333333335
aF0.013333333333333334
aF0.016666666666666666
aF0.006666666666666667
aF0.006666666666666667
aF0.006666666666666667
aF0.013333333333333334
aF0.0033333333333333335
aF0.01
aF0.013333333333333334
aF0.0033333333333333335
aF0.0033333333333333335
aF0.0033333333333333335
aF0.0033333333333333335
aF0.0033333333333333335
aF0.01
aF0.0033333333333333335
aF0.0033333333333333335
aF0.0033333333333333335
aF0.01
aF0.01
aF0.006666666666666667
aF0.013333333333333334
aF0.0033333333333333335
aF0.0033333333333333335
aF0.006666666666666667
aF0.016666666666666666
aF0.02
aF0.01
aF0.006666666666666667
aF0.01
aF0.0033333333333333335
aF0.013333333333333334
aF0.006666666666666667
aF0.013333333333333334
aF0.006666666666666667
aF0.006666666666666667
aF0.006666666666666667
aF0.01
aF0.01
aF0.006666666666666667
aF0.01
aF0.01
aF0.006666666666666667
aF0.006666666666666667
aF0.016666666666666666
aF0.006666666666666667
aF0.013333333333333334
aF0.0033333333333333335
aF0.01
aF0.01
aF0.0033333333333333335
aF0.0033333333333333335
aF0.01
aF0.006666666666666667
aF0.01
aF0.0033333333333333335
aF0.006666666666666667
aF0.0033333333333333335
aF0.02
aF0.0033333333333333335
aF0.01
aF0.006666666666666667
aF0.006666666666666667
aF0.013333333333333334
aF0.0033333333333333335
aF0.0033333333333333335
aF0.0033333333333333335
aF0.0033333333333333335
aF0.0033333333333333335
aF0.013333333333333334
aF0.006666666666666667
aF0.006666666666666667
aF0.006666666666666667
aF0.006666666666666667
aF0.006666666666666667
aF0.0033333333333333335
aF0.006666666666666667
aF0.013333333333333334
aF0.0033333333333333335
aF0.006666666666666667
aF0.013333333333333334
aF0.0033333333333333335
aF0.0033333333333333335
aF0.01
aF0.006666666666666667
aF0.006666666666666667
aF0.0033333333333333335
aF0.0033333333333333335
aF0.006666666666666667
aF0.01
aF0.006666666666666667
aF0.013333333333333334
aF0.01
aF0.006666666666666667
aF0.01
aF0.01
aF0.013333333333333334
aF0.0033333333333333335
aF0.01
aF0.0033333333333333335
aF0.0033333333333333335
aF0.006666666666666667
aF0.0033333333333333335
aF0.006666666666666667
aF0.01
aF0.0033333333333333335
aF0.01
aF0.006666666666666667
aF0.006666666666666667
aF0.0033333333333333335
aF0.0033333333333333335
aF0.01
aF0.01
aF0.0033333333333333335
aF0.0033333333333333335
aF0.006666666666666667
aF0.0033333333333333335
aF0.006666666666666667
aF0.006666666666666667
aF0.0033333333333333335
aF0.0033333333333333335
aF0.01
aF0.0033333333333333335
aF0.0033333333333333335
aF0.0033333333333333335
aF0.0033333333333333335
aF0.006666666666666667
aF0.013333333333333334
aF0.006666666666666667
aF0.006666666666666667
aF0.006666666666666667
aF0.006666666666666667
aF0.0033333333333333335
aF0.0033333333333333335
aF0.01
aF0.0033333333333333335
aF0.0033333333333333335
aF0.006666666666666667
aF0.006666666666666667
aF0.006666666666666667
aF0.006666666666666667
aF0.006666666666666667
aF0.006666666666666667
aF0.006666666666666667
aF0.016666666666666666
aF0.006666666666666667
aF0.0033333333333333335
aF0.0033333333333333335
aF0.006666666666666667
aF0.0033333333333333335
aF0.02
aF0.0033333333333333335
aF0.0033333333333333335
aF0.006666666666666667
aF0.0033333333333333335
aF0.0033333333333333335
aF0.01
aF0.006666666666666667
aF0.0033333333333333335
aF0.013333333333333334
aF0.0033333333333333335
aF0.0033333333333333335
aF0.0033333333333333335
aF0.006666666666666667
aF0.0033333333333333335
aF0.0033333333333333335
aF0.0033333333333333335
aF0.01
aF0.006666666666666667
aF0.0033333333333333335
aF0.01
aF0.006666666666666667
aF0.006666666666666667
aF0.006666666666666667
aF0.006666666666666667
aF0.006666666666666667
aF0.0033333333333333335
aF0.006666666666666667
aF0.006666666666666667
aF0.006666666666666667
aF0.0033333333333333335
aF0.006666666666666667
aF0.0033333333333333335
aF0.0033333333333333335
aF0.0033333333333333335
aF0.013333333333333334
aF0.0033333333333333335
aF0.0033333333333333335
aF0.006666666666666667
aF0.0033333333333333335
aF0.0033333333333333335
aF0.006666666666666667
aF0.013333333333333334
aF0.006666666666666667
aF0.0033333333333333335
aF0.006666666666666667
aF0.006666666666666667
aF0.0033333333333333335
aF0.0033333333333333335
aF0.0033333333333333335
aF0.006666666666666667
aF0.0033333333333333335
aF0.0033333333333333335
aF0.0033333333333333335
aF0.0033333333333333335
aF0.0033333333333333335
aF0.006666666666666667
aF0.0033333333333333335
aF0.0033333333333333335
aF0.01
aF0.0033333333333333335
aF0.0033333333333333335
aF0.006666666666666667
aF0.0033333333333333335
aF0.0033333333333333335
aF0.0033333333333333335
aF0.0033333333333333335
aF0.006666666666666667
aF0.0033333333333333335
aF0.006666666666666667
aF0.0033333333333333335
aF0.0033333333333333335
aF0.0033333333333333335
aF0.006666666666666667
aF0.0033333333333333335
aF0.006666666666666667
aF0.0033333333333333335
aF0.0033333333333333335
aF0.006666666666666667
aF0.0033333333333333335
aF0.0033333333333333335
aF0.0033333333333333335
aF0.006666666666666667
aF0.0033333333333333335
aF0.0033333333333333335
aF0.0033333333333333335
aF0.0033333333333333335
aF0.0033333333333333335
aF0.0033333333333333335
aF0.006666666666666667
aF0.0033333333333333335
aF0.0033333333333333335
aF0.0033333333333333335
aF0.0033333333333333335
aF0.0033333333333333335
aF0.0033333333333333335
aF0.0033333333333333335
aF0.0033333333333333335
aF0.0033333333333333335
aF0.0033333333333333335
aF0.0033333333333333335
aF0.0033333333333333335
aF0.006666666666666667
aF0.0033333333333333335
aF0.0033333333333333335
aF0.0033333333333333335
aF0.0033333333333333335
aF0.0033333333333333335
aF0.0033333333333333335
aF0.0033333333333333335
aF0.0033333333333333335
aF0.006666666666666667
aF0.006666666666666667
aF0.0033333333333333335
aF0.0033333333333333335
aF0.006666666666666667
aF0.0033333333333333335
aF0.0033333333333333335
aF0.0033333333333333335
aF0.0033333333333333335
aF0.0033333333333333335
aF0.006666666666666667
aF0.0033333333333333335
aF0.006666666666666667
aF0.0033333333333333335
aF0.0033333333333333335
aF0.0033333333333333335
aF0.0033333333333333335
aF0.0033333333333333335
aF0.0033333333333333335
aF0.0033333333333333335
aF0.0033333333333333335
aF0.0033333333333333335
aF0.0033333333333333335
aF0.0033333333333333335
aF0.0033333333333333335
aF0.0033333333333333335
aF0.0033333333333333335
aF0.0033333333333333335
aF0.0033333333333333335
aF0.0033333333333333335
aF0.0033333333333333335
aF0.0033333333333333335
aF0.0033333333333333335
aF0.0033333333333333335
aF0.006666666666666667
aF0.0033333333333333335
aF0.0033333333333333335
aF0.0033333333333333335
aF0.0033333333333333335
aF0.006666666666666667
aF0.0033333333333333335
aF0.0033333333333333335
aF0.0033333333333333335
aF0.0033333333333333335
aF0.0033333333333333335
aF0.0033333333333333335
aF0.0033333333333333335
aF0.0033333333333333335
aF0.0033333333333333335
aF0.0033333333333333335
aF0.0033333333333333335
aF0.0033333333333333335
aF0.0033333333333333335
aF0.0033333333333333335
aF0.0033333333333333335
aF0.0033333333333333335
aF0.0033333333333333335
aF0.0033333333333333335
aF0.0033333333333333335
aF0.0033333333333333335
aF0.0033333333333333335
aF0.0033333333333333335
aF0.0033333333333333335
aF0.0033333333333333335
aF0.0033333333333333335
aF0.0033333333333333335
aF0.0033333333333333335
asS'index'
p3
(lp4
I4
aI5
aI6
aI7
aI8
aI9
aI10
aI11
aI12
aI13
aI14
aI15
aI16
aI17
aI18
aI19
aI20
aI21
aI22
aI23
aI24
aI25
aI26
aI27
aI28
aI29
aI30
aI31
aI32
aI33
aI34
aI35
aI36
aI37
aI38
aI39
aI40
aI41
aI42
aI43
aI44
aI45
aI46
aI47
aI48
aI49
aI50
aI51
aI52
aI53
aI54
aI55
aI56
aI57
aI58
aI59
aI60
aI61
aI62
aI63
aI64
aI65
aI66
aI67
aI68
aI69
aI70
aI71
aI72
aI73
aI74
aI75
aI76
aI77
aI78
aI79
aI80
aI81
aI82
aI83
aI84
aI85
aI86
aI87
aI88
aI89
aI90
aI91
aI92
aI93
aI94
aI95
aI96
aI97
aI98
aI99
aI100
aI101
aI102
aI103
aI104
aI105
aI106
aI107
aI108
aI109
aI110
aI111
aI112
aI113
aI114
aI115
aI116
aI117
aI118
aI119
aI120
aI121
aI122
aI123
aI124
aI125
aI126
aI127
aI128
aI129
aI130
aI131
aI132
aI133
aI134
aI135
aI136
aI137
aI138
aI139
aI140
aI141
aI142
aI143
aI144
aI145
aI146
aI147
aI148
aI149
aI150
aI151
aI152
aI153
aI154
aI155
aI156
aI157
aI158
aI159
aI160
aI161
aI162
aI163
aI164
aI165
aI166
aI167
aI168
aI169
aI170
aI171
aI172
aI173
aI174
aI175
aI176
aI177
aI178
aI179
aI180
aI181
aI182
aI183
aI184
aI185
aI186
aI187
aI188
aI189
aI190
aI191
aI192
aI193
aI194
aI195
aI196
aI197
aI198
aI199
aI200
aI201
aI202
aI203
aI204
aI205
aI206
aI207
aI208
aI209
aI210
aI211
aI212
aI213
aI214
aI215
aI216
aI217
aI218
aI219
aI220
aI221
aI222
aI223
aI224
aI225
aI226
aI227
aI228
aI229
aI230
aI231
aI232
aI233
aI234
aI235
aI236
aI237
aI238
aI239
aI240
aI241
aI242
aI243
aI244
aI245
aI246
aI247
aI248
aI249
aI250
aI251
aI252
aI253
aI254
aI255
aI256
aI257
aI258
aI259
aI260
aI261
aI262
aI263
aI264
aI265
aI266
aI267
aI268
aI269
aI270
aI271
aI272
aI273
aI274
aI275
aI276
aI277
aI278
aI279
aI280
aI281
aI282
aI283
aI284
aI285
aI286
aI287
aI288
aI289
aI290
aI291
aI292
aI293
aI294
aI295
aI296
aI297
aI298
aI299
aI300
aI301
aI302
aI303
aI304
aI305
aI306
aI307
aI308
aI309
aI310
aI311
aI312
aI313
aI314
aI315
aI316
aI317
aI318
aI319
aI320
aI321
aI322
aI323
aI324
aI325
aI326
aI327
aI328
aI329
aI330
aI331
aI332
aI333
aI334
aI335
aI336
aI337
aI338
aI339
aI340
aI341
aI342
aI343
aI344
aI345
aI346
aI347
aI348
aI349
aI350
aI351
aI352
aI353
aI354
aI355
aI356
aI357
aI358
aI359
aI360
aI361
aI362
aI363
aI364
aI365
aI366
aI367
aI368
aI369
aI370
aI371
aI372
aI373
aI374
aI375
aI376
aI377
aI378
aI379
aI380
aI381
aI382
aI383
aI384
aI385
aI386
aI387
aI388
aI389
aI390
aI391
aI392
aI393
aI394
aI395
aI396
aI397
aI398
aI399
aI400
aI401
aI402
aI403
aI404
aI405
aI406
aI407
aI408
aI409
aI410
aI411
aI412
aI413
aI414
aI415
aI416
aI417
aI418
aI419
aI420
aI421
aI422
aI423
aI424
aI425
aI426
aI427
aI428
aI429
aI430
aI431
aI432
aI433
aI434
aI435
aI436
aI437
aI438
aI439
aI440
aI441
aI442
aI443
aI444
aI445
aI446
aI447
aI448
aI449
aI450
aI451
aI452
aI453
aI454
aI455
aI456
aI457
aI458
aI459
aI460
aI461
aI462
aI463
aI464
aI465
aI466
aI467
aI468
aI469
aI470
aI471
aI472
aI473
aI474
aI475
aI476
aI477
aI478
aI479
aI480
aI481
aI482
aI483
aI484
aI485
aI486
aI487
aI488
aI489
aI490
aI491
aI492
aI493
aI494
aI495
aI496
aI497
aI498
aI499
aI500
aI501
aI502
aI503
aI504
aI505
aI506
aI507
aI508
aI509
aI510
aI511
aI512
aI513
aI514
aI515
aI516
aI517
aI518
aI519
aI520
aI521
aI522
aI523
aI524
aI525
aI526
aI527
aI528
aI529
aI530
aI531
aI532
aI533
aI534
aI535
aI536
aI537
aI538
aI539
aI540
aI541
aI542
aI543
aI544
aI545
aI546
aI547
aI548
aI549
aI550
aI551
aI552
aI553
aI554
aI555
aI556
aI557
aI558
aI559
aI560
aI561
aI562
aI563
aI564
aI565
aI566
aI567
aI568
aI569
aI570
aI571
aI572
aI573
aI574
aI575
aI576
aI577
aI578
aI579
aI580
aI581
aI582
aI583
aI584
aI585
aI586
aI587
aI588
aI589
aI590
aI591
aI592
aI593
aI594
aI595
aI596
aI597
aI598
aI599
aI600
aI601
aI602
aI603
aI604
aI605
aI606
aI607
aI608
aI609
aI610
aI611
aI612
aI613
aI614
aI615
aI616
aI617
aI618
aI619
aI620
aI621
aI622
aI623
aI624
aI625
aI626
aI627
aI628
aI629
aI630
aI631
aI632
aI633
aI634
aI635
aI637
aI638
aI639
aI640
aI641
aI642
aI643
aI644
aI645
aI646
aI647
aI648
aI649
aI650
aI651
aI652
aI653
aI654
aI655
aI656
aI657
aI658
aI659
aI660
aI661
aI662
aI663
aI664
aI665
aI666
aI667
aI668
aI669
aI670
aI671
aI672
aI673
aI674
aI675
aI676
aI677
aI678
aI679
aI680
aI681
aI682
aI684
aI685
aI686
aI687
aI688
aI689
aI690
aI691
aI692
aI693
aI694
aI695
aI696
aI697
aI698
aI699
aI700
aI701
aI702
aI703
aI704
aI705
aI706
aI708
aI709
aI710
aI711
aI712
aI713
aI714
aI715
aI716
aI717
aI718
aI719
aI720
aI721
aI722
aI723
aI724
aI726
aI727
aI728
aI729
aI730
aI731
aI733
aI734
aI735
aI736
aI737
aI738
aI739
aI740
aI741
aI742
aI743
aI744
aI745
aI746
aI747
aI748
aI749
aI750
aI751
aI752
aI753
aI754
aI755
aI756
aI757
aI758
aI759
aI760
aI761
aI762
aI763
aI764
aI765
aI766
aI768
aI769
aI770
aI771
aI772
aI773
aI774
aI775
aI776
aI777
aI778
aI779
aI780
aI781
aI784
aI785
aI786
aI789
aI790
aI791
aI792
aI793
aI794
aI795
aI797
aI798
aI799
aI800
aI803
aI804
aI805
aI806
aI807
aI808
aI809
aI810
aI812
aI813
aI814
aI815
aI816
aI817
aI818
aI819
aI821
aI823
aI824
aI826
aI827
aI828
aI829
aI830
aI831
aI832
aI834
aI836
aI838
aI839
aI840
aI841
aI842
aI843
aI844
aI845
aI846
aI847
aI848
aI849
aI850
aI852
aI853
aI854
aI855
aI856
aI858
aI859
aI860
aI861
aI863
aI865
aI866
aI867
aI868
aI869
aI870
aI871
aI872
aI873
aI874
aI875
aI876
aI877
aI878
aI879
aI880
aI881
aI882
aI883
aI885
aI886
aI887
aI890
aI892
aI893
aI894
aI895
aI896
aI897
aI898
aI900
aI901
aI902
aI903
aI905
aI906
aI907
aI909
aI912
aI915
aI916
aI917
aI918
aI919
aI920
aI921
aI922
aI923
aI924
aI925
aI926
aI927
aI929
aI931
aI932
aI933
aI935
aI936
aI937
aI938
aI944
aI946
aI950
aI951
aI955
aI957
aI958
aI959
aI961
aI962
aI963
aI964
aI965
aI968
aI969
aI970
aI971
aI972
aI975
aI976
aI977
aI978
aI982
aI985
aI986
aI987
aI988
aI989
aI990
aI991
aI992
aI993
aI994
aI997
aI999
aI1000
aI1002
aI1004
aI1005
aI1012
aI1017
aI1018
aI1019
aI1020
aI1021
aI1023
aI1025
aI1026
aI1029
aI1030
aI1032
aI1033
aI1042
aI1044
aI1045
aI1046
aI1050
aI1051
aI1052
aI1053
aI1056
aI1062
aI1065
aI1067
aI1068
aI1070
aI1071
aI1072
aI1073
aI1074
aI1076
aI1078
aI1080
aI1083
aI1084
aI1085
aI1086
aI1087
aI1088
aI1090
aI1093
aI1094
aI1098
aI1100
aI1102
aI1103
aI1104
aI1107
aI1109
aI1110
aI1111
aI1115
aI1116
aI1121
aI1128
aI1130
aI1131
aI1135
aI1140
aI1141
aI1144
aI1145
aI1146
aI1154
aI1155
aI1160
aI1161
aI1164
aI1168
aI1169
aI1171
aI1178
aI1180
aI1182
aI1187
aI1190
aI1191
aI1196
aI1198
aI1199
aI1204
aI1209
aI1211
aI1216
aI1221
aI1226
aI1227
aI1230
aI1233
aI1237
aI1250
aI1267
aI1271
aI1275
aI1284
aI1292
aI1302
aI1304
aI1307
aI1320
aI1330
aI1332
aI1337
aI1340
aI1344
aI1352
aI1361
aI1372
aI1374
aI1393
aI1399
aI1406
aI1424
aI1439
aI1443
aI1447
aI1486
aI1487
aI1508
aI1603
aI1629
asS'prob'
p5
(lp6
F0.20001543333333327
aF0.11426779999999997
aF0.0714379666666667
aF0.04760496666666668
aF0.03330879999999998
aF0.024224999999999976
aF0.018150433333333344
aF0.013997000000000008
aF0.0110319
aF0.00876516666666667
aF0.007177833333333334
aF0.0058696333333333375
aF0.004918966666666666
aF0.004136966666666664
aF0.003520533333333334
aF0.003023766666666665
aF0.0025971666666666665
aF0.0022540333333333318
aF0.001980833333333335
aF0.0017331999999999983
aF0.0015288333333333339
aF0.0013628666666666669
aF0.0012099666666666672
aF0.001095933333333334
aF0.0009846333333333335
aF0.0008919333333333336
aF0.0008086000000000007
aF0.0007345000000000003
aF0.000670566666666666
aF0.0006145999999999999
aF0.000554
aF0.0005228666666666663
aF0.00047623333333333284
aF0.0004314333333333334
aF0.0004034666666666668
aF0.00037906666666666665
aF0.00035359999999999976
aF0.0003192999999999998
aF0.0003017666666666665
aF0.00028579999999999974
aF0.00026566666666666633
aF0.000246833333333333
aF0.00023313333333333314
aF0.00021506666666666675
aF0.00020203333333333317
aF0.00018899999999999999
aF0.00017730000000000008
aF0.00017216666666666669
aF0.00016363333333333326
aF0.00015569999999999983
aF0.00014379999999999992
aF0.00013496666666666668
aF0.00012626666666666655
aF0.0001224333333333333
aF0.00011646666666666665
aF0.00011313333333333331
aF0.00010463333333333336
aF0.00010136666666666662
aF9.83666666666666e-05
aF9.136666666666658e-05
aF9.196666666666669e-05
aF8.466666666666658e-05
aF7.84666666666666e-05
aF7.373333333333329e-05
aF7.446666666666656e-05
aF7.063333333333329e-05
aF6.83999999999999e-05
aF6.279999999999995e-05
aF6.0666666666666626e-05
aF5.939999999999994e-05
aF5.6466666666666605e-05
aF5.43666666666666e-05
aF4.946666666666661e-05
aF5.366666666666657e-05
aF5.0599999999999915e-05
aF4.623333333333332e-05
aF4.479999999999992e-05
aF4.286666666666665e-05
aF4.1966666666666625e-05
aF4.0499999999999934e-05
aF3.843333333333327e-05
aF3.919999999999993e-05
aF3.4999999999999977e-05
aF3.606666666666663e-05
aF3.3399999999999965e-05
aF3.1633333333333294e-05
aF3.223333333333334e-05
aF3.226666666666662e-05
aF2.99e-05
aF2.8366666666666637e-05
aF2.819999999999999e-05
aF2.7900000000000017e-05
aF2.7100000000000008e-05
aF2.6133333333333336e-05
aF2.3933333333333357e-05
aF2.4600000000000022e-05
aF2.2566666666666665e-05
aF2.28e-05
aF2.136666666666668e-05
aF2.220000000000002e-05
aF1.9300000000000025e-05
aF2.076666666666668e-05
aF1.9166666666666684e-05
aF1.940000000000002e-05
aF1.9066666666666668e-05
aF1.860000000000002e-05
aF1.866666666666668e-05
aF1.6566666666666696e-05
aF1.6466666666666673e-05
aF1.6166666666666686e-05
aF1.5233333333333346e-05
aF1.580000000000002e-05
aF1.4966666666666682e-05
aF1.5133333333333343e-05
aF1.2700000000000007e-05
aF1.4800000000000023e-05
aF1.3633333333333349e-05
aF1.4399999999999993e-05
aF1.2266666666666674e-05
aF1.1433333333333338e-05
aF1.3233333333333341e-05
aF1.2866666666666675e-05
aF1.0333333333333335e-05
aF1.2800000000000016e-05
aF1.0800000000000005e-05
aF1.0633333333333329e-05
aF9.999999999999997e-06
aF1.02e-05
aF1.1066666666666674e-05
aF1.0366666666666668e-05
aF9.699999999999992e-06
aF1.0199999999999994e-05
aF8.766666666666662e-06
aF8e-06
aF8.199999999999994e-06
aF8.199999999999998e-06
aF7.999999999999991e-06
aF9.099999999999994e-06
aF8.333333333333332e-06
aF8.399999999999992e-06
aF7.63333333333333e-06
aF8.033333333333328e-06
aF6.8333333333333295e-06
aF7.966666666666658e-06
aF6.299999999999999e-06
aF7.266666666666666e-06
aF7.399999999999998e-06
aF6.633333333333332e-06
aF6.733333333333338e-06
aF6.966666666666658e-06
aF6.3666666666666695e-06
aF5.9000000000000045e-06
aF5.866666666666667e-06
aF5.400000000000005e-06
aF5.900000000000002e-06
aF6.333333333333337e-06
aF6.166666666666667e-06
aF5.700000000000001e-06
aF5.333333333333338e-06
aF5.466666666666673e-06
aF5.2000000000000036e-06
aF5.233333333333338e-06
aF4.633333333333338e-06
aF5.000000000000006e-06
aF5.066666666666669e-06
aF4.833333333333338e-06
aF5.200000000000007e-06
aF5.166666666666669e-06
aF4.3333333333333365e-06
aF4.300000000000007e-06
aF4.700000000000003e-06
aF4.400000000000003e-06
aF4.433333333333339e-06
aF4.366666666666671e-06
aF4.033333333333336e-06
aF4.166666666666666e-06
aF3.966666666666668e-06
aF3.666666666666667e-06
aF5.066666666666672e-06
aF3.466666666666668e-06
aF3.6333333333333355e-06
aF4.000000000000003e-06
aF4.400000000000006e-06
aF3.76666666666667e-06
aF3.933333333333336e-06
aF3.0999999999999995e-06
aF3.3000000000000006e-06
aF3.833333333333338e-06
aF3.7333333333333346e-06
aF2.9999999999999992e-06
aF3.3666666666666677e-06
aF3.133333333333333e-06
aF3.6000000000000015e-06
aF3.4000000000000026e-06
aF2.999999999999999e-06
aF3.766666666666668e-06
aF3.2333333333333334e-06
aF3.1e-06
aF3.400000000000001e-06
aF2.566666666666664e-06
aF2.766666666666665e-06
aF2.666666666666664e-06
aF2.5333333333333304e-06
aF3.066666666666665e-06
aF3.1666666666666675e-06
aF2.299999999999997e-06
aF2.399999999999997e-06
aF2.8999999999999985e-06
aF2.3999999999999974e-06
aF2.8999999999999985e-06
aF2.8999999999999985e-06
aF2.133333333333331e-06
aF2.33333333333333e-06
aF2.1666666666666644e-06
aF1.9666666666666646e-06
aF2.599999999999997e-06
aF2.233333333333331e-06
aF2.3666666666666638e-06
aF2.1999999999999976e-06
aF2.533333333333331e-06
aF1.999999999999998e-06
aF2.166666666666664e-06
aF1.8333333333333312e-06
aF1.8666666666666647e-06
aF2.6333333333333316e-06
aF2.0999999999999977e-06
aF1.8333333333333316e-06
aF2.2666666666666643e-06
aF1.766666666666665e-06
aF1.3333333333333321e-06
aF1.8666666666666647e-06
aF1.8666666666666647e-06
aF1.299999999999999e-06
aF1.7666666666666646e-06
aF1.899999999999998e-06
aF2.199999999999997e-06
aF2.0666666666666645e-06
aF1.4666666666666656e-06
aF1.6999999999999981e-06
aF1.8999999999999981e-06
aF2.0666666666666645e-06
aF1.5333333333333321e-06
aF1.2999999999999992e-06
aF1.6333333333333316e-06
aF1.399999999999999e-06
aF1.6666666666666652e-06
aF1.7666666666666646e-06
aF1.566666666666665e-06
aF1.433333333333332e-06
aF1.2666666666666656e-06
aF1.3999999999999987e-06
aF1.433333333333332e-06
aF1.3333333333333321e-06
aF1.399999999999999e-06
aF1.4999999999999986e-06
aF1.299999999999999e-06
aF1.4666666666666652e-06
aF1.4999999999999988e-06
aF1.6666666666666652e-06
aF1.299999999999999e-06
aF1.4666666666666652e-06
aF1.4666666666666656e-06
aF1.2666666666666656e-06
aF1.5999999999999987e-06
aF1.1666666666666657e-06
aF1.3666666666666655e-06
aF1.2666666666666656e-06
aF1.166666666666666e-06
aF1.199999999999999e-06
aF1.3333333333333321e-06
aF1.199999999999999e-06
aF1.0999999999999992e-06
aF9.666666666666662e-07
aF1.166666666666666e-06
aF1.0999999999999992e-06
aF7.999999999999999e-07
aF1.0999999999999992e-06
aF9.666666666666662e-07
aF1.0333333333333327e-06
aF1.0999999999999992e-06
aF9.666666666666662e-07
aF1.0666666666666658e-06
aF8.33333333333333e-07
aF1.0666666666666658e-06
aF1.0999999999999992e-06
aF1.0333333333333327e-06
aF1.1333333333333324e-06
aF9.999999999999993e-07
aF8.999999999999995e-07
aF8.666666666666663e-07
aF9.666666666666662e-07
aF1.0666666666666658e-06
aF1.0999999999999992e-06
aF1.199999999999999e-06
aF1.0666666666666658e-06
aF7.999999999999998e-07
aF7.333333333333332e-07
aF9.999999999999995e-07
aF9.666666666666662e-07
aF1.3999999999999987e-06
aF8.33333333333333e-07
aF8.333333333333331e-07
aF9.333333333333328e-07
aF8.666666666666663e-07
aF8.333333333333331e-07
aF9.333333333333328e-07
aF9.33333333333333e-07
aF6.666666666666667e-07
aF1.0666666666666658e-06
aF7e-07
aF7.333333333333332e-07
aF7e-07
aF8.666666666666663e-07
aF9.666666666666662e-07
aF6.333333333333333e-07
aF6.333333333333333e-07
aF1.0333333333333327e-06
aF6.666666666666667e-07
aF1.033333333333333e-06
aF7e-07
aF6.666666666666667e-07
aF7.333333333333332e-07
aF6.666666666666667e-07
aF9.666666666666662e-07
aF6.333333333333333e-07
aF9.333333333333328e-07
aF6.333333333333333e-07
aF9.999999999999995e-07
aF1.0666666666666658e-06
aF3.6666666666666667e-07
aF7e-07
aF1.0999999999999992e-06
aF9.666666666666662e-07
aF8.666666666666664e-07
aF8.666666666666663e-07
aF5.666666666666667e-07
aF7.999999999999998e-07
aF6.000000000000001e-07
aF6.666666666666667e-07
aF7.333333333333332e-07
aF6.000000000000001e-07
aF7.333333333333332e-07
aF6.666666666666667e-07
aF7.999999999999998e-07
aF7.333333333333332e-07
aF8.999999999999995e-07
aF3.3333333333333335e-07
aF6.000000000000001e-07
aF8.666666666666663e-07
aF8.999999999999995e-07
aF6.666666666666667e-07
aF4.3333333333333335e-07
aF9.999999999999995e-07
aF8.666666666666663e-07
aF6.333333333333333e-07
aF4.6666666666666666e-07
aF3.6666666666666667e-07
aF4.3333333333333335e-07
aF7.999999999999998e-07
aF3.3333333333333335e-07
aF7e-07
aF6.333333333333333e-07
aF5.333333333333333e-07
aF5.666666666666667e-07
aF4.6666666666666666e-07
aF6.666666666666667e-07
aF5.333333333333333e-07
aF6.666666666666667e-07
aF4e-07
aF7.666666666666665e-07
aF7.000000000000001e-07
aF3.0000000000000004e-07
aF4e-07
aF5.666666666666667e-07
aF3.6666666666666667e-07
aF4.6666666666666666e-07
aF8.33333333333333e-07
aF7e-07
aF5.333333333333333e-07
aF4e-07
aF4.6666666666666666e-07
aF5.333333333333333e-07
aF5.333333333333333e-07
aF2.6666666666666667e-07
aF5e-07
aF4.3333333333333335e-07
aF3.6666666666666667e-07
aF3.0000000000000004e-07
aF6.000000000000001e-07
aF4.3333333333333335e-07
aF3.3333333333333335e-07
aF6.333333333333333e-07
aF4.6666666666666666e-07
aF5.333333333333333e-07
aF4.3333333333333335e-07
aF6.000000000000001e-07
aF4e-07
aF6.000000000000001e-07
aF4e-07
aF5.333333333333333e-07
aF3.3333333333333335e-07
aF6.000000000000001e-07
aF7e-07
aF4e-07
aF4.3333333333333335e-07
aF2.3333333333333333e-07
aF7.333333333333332e-07
aF4e-07
aF3.6666666666666667e-07
aF4.6666666666666666e-07
aF3.6666666666666667e-07
aF3.6666666666666667e-07
aF5.333333333333333e-07
aF3.6666666666666667e-07
aF3.6666666666666667e-07
aF2.6666666666666667e-07
aF3.6666666666666667e-07
aF6.000000000000001e-07
aF2.3333333333333333e-07
aF3.0000000000000004e-07
aF3.3333333333333335e-07
aF5e-07
aF4.6666666666666666e-07
aF2.6666666666666667e-07
aF4e-07
aF2.3333333333333333e-07
aF2.6666666666666667e-07
aF1.6666666666666668e-07
aF3.0000000000000004e-07
aF6.333333333333333e-07
aF3.3333333333333335e-07
aF3.0000000000000004e-07
aF3.3333333333333335e-07
aF2.6666666666666667e-07
aF3.6666666666666667e-07
aF2.6666666666666667e-07
aF4.6666666666666666e-07
aF4e-07
aF2e-07
aF4.3333333333333335e-07
aF2.6666666666666667e-07
aF2e-07
aF4e-07
aF4.3333333333333335e-07
aF2.6666666666666667e-07
aF3.3333333333333335e-07
aF4e-07
aF3.6666666666666667e-07
aF2.6666666666666667e-07
aF2e-07
aF2.6666666666666667e-07
aF2.6666666666666667e-07
aF2.3333333333333333e-07
aF3.0000000000000004e-07
aF3.0000000000000004e-07
aF3.6666666666666667e-07
aF3.3333333333333335e-07
aF3.0000000000000004e-07
aF2.3333333333333333e-07
aF3.6666666666666667e-07
aF4.6666666666666666e-07
aF3.3333333333333335e-07
aF3.0000000000000004e-07
aF2.6666666666666667e-07
aF1.6666666666666668e-07
aF2.3333333333333333e-07
aF2e-07
aF2.6666666666666667e-07
aF4e-07
aF3.0000000000000004e-07
aF3.3333333333333335e-07
aF2e-07
aF2.3333333333333333e-07
aF1.6666666666666668e-07
aF3.0000000000000004e-07
aF2.3333333333333333e-07
aF2.3333333333333333e-07
aF3.3333333333333335e-07
aF4.3333333333333335e-07
aF3.0000000000000004e-07
aF1.3333333333333334e-07
aF2e-07
aF2.3333333333333333e-07
aF4e-07
aF1.3333333333333334e-07
aF2.6666666666666667e-07
aF1.6666666666666668e-07
aF1.3333333333333334e-07
aF2.3333333333333333e-07
aF2.3333333333333333e-07
aF2.3333333333333333e-07
aF4e-07
aF2.6666666666666667e-07
aF2e-07
aF1.6666666666666668e-07
aF2.6666666666666667e-07
aF3.3333333333333335e-07
aF1.3333333333333334e-07
aF1e-07
aF2.3333333333333333e-07
aF2e-07
aF1.6666666666666668e-07
aF2.6666666666666667e-07
aF3.6666666666666667e-07
aF5e-07
aF2e-07
aF1e-07
aF2.3333333333333333e-07
aF2e-07
aF3.6666666666666667e-07
aF2e-07
aF2e-07
aF2e-07
aF3.0000000000000004e-07
aF4.3333333333333335e-07
aF3.3333333333333335e-07
aF2e-07
aF2.3333333333333333e-07
aF3.3333333333333335e-07
aF3.3333333333333335e-07
aF2.3333333333333333e-07
aF2.3333333333333333e-07
aF2e-07
aF1.6666666666666668e-07
aF3.0000000000000004e-07
aF2e-07
aF2.3333333333333333e-07
aF2.6666666666666667e-07
aF3.0000000000000004e-07
aF2.3333333333333333e-07
aF3.3333333333333335e-07
aF2.3333333333333333e-07
aF2.6666666666666667e-07
aF3.0000000000000004e-07
aF2.3333333333333333e-07
aF2.3333333333333333e-07
aF2.6666666666666667e-07
aF1.3333333333333334e-07
aF2e-07
aF2.6666666666666667e-07
aF2e-07
aF2.6666666666666667e-07
aF2.6666666666666667e-07
aF2e-07
aF6.666666666666667e-08
aF1.6666666666666668e-07
aF2.6666666666666667e-07
aF3.0000000000000004e-07
aF1.3333333333333334e-07
aF1.6666666666666668e-07
aF1.3333333333333334e-07
aF2.3333333333333333e-07
aF2.3333333333333333e-07
aF2e-07
aF2e-07
aF2e-07
aF1.3333333333333334e-07
aF6.666666666666667e-08
aF2e-07
aF1.6666666666666668e-07
aF2.6666666666666667e-07
aF2.3333333333333333e-07
aF2e-07
aF2e-07
aF1.3333333333333334e-07
aF1.3333333333333334e-07
aF1e-07
aF2.3333333333333333e-07
aF1e-07
aF1.6666666666666668e-07
aF2e-07
aF2.6666666666666667e-07
aF1.3333333333333334e-07
aF1.3333333333333334e-07
aF1e-07
aF6.666666666666667e-08
aF2.6666666666666667e-07
aF1.3333333333333334e-07
aF4e-07
aF1.3333333333333334e-07
aF1.3333333333333334e-07
aF3.3333333333333334e-08
aF6.666666666666667e-08
aF3.3333333333333334e-08
aF1.6666666666666668e-07
aF2e-07
aF2e-07
aF1e-07
aF6.666666666666667e-08
aF1e-07
aF1e-07
aF1e-07
aF3.3333333333333335e-07
aF2e-07
aF1.3333333333333334e-07
aF2.3333333333333333e-07
aF3.0000000000000004e-07
aF1.3333333333333334e-07
aF1.3333333333333334e-07
aF2e-07
aF1.6666666666666668e-07
aF1e-07
aF3.0000000000000004e-07
aF2e-07
aF1.6666666666666668e-07
aF2.6666666666666667e-07
aF6.666666666666667e-08
aF2.3333333333333333e-07
aF1.6666666666666668e-07
aF2.3333333333333333e-07
aF2e-07
aF2e-07
aF1.6666666666666668e-07
aF1e-07
aF6.666666666666667e-08
aF2.6666666666666667e-07
aF2e-07
aF2.3333333333333333e-07
aF1.3333333333333334e-07
aF1.6666666666666668e-07
aF1.3333333333333334e-07
aF2.6666666666666667e-07
aF1.6666666666666668e-07
aF1.6666666666666668e-07
aF1.6666666666666668e-07
aF1.3333333333333334e-07
aF3.3333333333333334e-08
aF1.6666666666666668e-07
aF2e-07
aF1.6666666666666668e-07
aF3.3333333333333334e-08
aF2.3333333333333333e-07
aF3.3333333333333334e-08
aF1.6666666666666668e-07
aF2.3333333333333333e-07
aF1.6666666666666668e-07
aF2.6666666666666667e-07
aF1.3333333333333334e-07
aF1e-07
aF2e-07
aF2.3333333333333333e-07
aF1.6666666666666668e-07
aF2e-07
aF6.666666666666667e-08
aF1e-07
aF6.666666666666667e-08
aF3.3333333333333334e-08
aF1e-07
aF3.3333333333333334e-08
aF1.3333333333333334e-07
aF3.3333333333333334e-08
aF1e-07
aF1e-07
aF1.3333333333333334e-07
aF1e-07
aF1.3333333333333334e-07
aF6.666666666666667e-08
aF2.3333333333333333e-07
aF1.3333333333333334e-07
aF2e-07
aF1e-07
aF2.3333333333333333e-07
aF6.666666666666667e-08
aF3.3333333333333334e-08
aF1.6666666666666668e-07
aF6.666666666666667e-08
aF6.666666666666667e-08
aF1.3333333333333334e-07
aF6.666666666666667e-08
aF1e-07
aF1e-07
aF3.3333333333333334e-08
aF3.3333333333333334e-08
aF1.3333333333333334e-07
aF3.3333333333333334e-08
aF2.6666666666666667e-07
aF1.6666666666666668e-07
aF1.6666666666666668e-07
aF6.666666666666667e-08
aF1e-07
aF1e-07
aF6.666666666666667e-08
aF1.3333333333333334e-07
aF3.3333333333333334e-08
aF1e-07
aF3.3333333333333334e-08
aF6.666666666666667e-08
aF1.6666666666666668e-07
aF2.3333333333333333e-07
aF6.666666666666667e-08
aF2.6666666666666667e-07
aF3.3333333333333334e-08
aF3.3333333333333334e-08
aF3.3333333333333334e-08
aF2e-07
aF1e-07
aF1e-07
aF1e-07
aF1.3333333333333334e-07
aF1e-07
aF3.3333333333333334e-08
aF1e-07
aF2.6666666666666667e-07
aF6.666666666666667e-08
aF1.3333333333333334e-07
aF3.3333333333333334e-08
aF1e-07
aF6.666666666666667e-08
aF3.3333333333333334e-08
aF3.3333333333333334e-08
aF6.666666666666667e-08
aF6.666666666666667e-08
aF1e-07
aF1.6666666666666668e-07
aF1e-07
aF6.666666666666667e-08
aF1.3333333333333334e-07
aF1e-07
aF3.3333333333333334e-08
aF1.3333333333333334e-07
aF1.3333333333333334e-07
aF3.3333333333333334e-08
aF6.666666666666667e-08
aF1e-07
aF6.666666666666667e-08
aF3.3333333333333334e-08
aF1e-07
aF3.3333333333333334e-08
aF6.666666666666667e-08
aF3.3333333333333334e-08
aF1.3333333333333334e-07
aF1.6666666666666668e-07
aF6.666666666666667e-08
aF6.666666666666667e-08
aF6.666666666666667e-08
aF1.3333333333333334e-07
aF3.3333333333333334e-08
aF1e-07
aF1.3333333333333334e-07
aF3.3333333333333334e-08
aF3.3333333333333334e-08
aF3.3333333333333334e-08
aF3.3333333333333334e-08
aF3.3333333333333334e-08
aF1e-07
aF3.3333333333333334e-08
aF3.3333333333333334e-08
aF3.3333333333333334e-08
aF1e-07
aF1e-07
aF6.666666666666667e-08
aF1.3333333333333334e-07
aF3.3333333333333334e-08
aF3.3333333333333334e-08
aF6.666666666666667e-08
aF1.6666666666666668e-07
aF2e-07
aF1e-07
aF6.666666666666667e-08
aF1e-07
aF3.3333333333333334e-08
aF1.3333333333333334e-07
aF6.666666666666667e-08
aF1.3333333333333334e-07
aF6.666666666666667e-08
aF6.666666666666667e-08
aF6.666666666666667e-08
aF1e-07
aF1e-07
aF6.666666666666667e-08
aF1e-07
aF1e-07
aF6.666666666666667e-08
aF6.666666666666667e-08
aF1.6666666666666668e-07
aF6.666666666666667e-08
aF1.3333333333333334e-07
aF3.3333333333333334e-08
aF1e-07
aF1e-07
aF3.3333333333333334e-08
aF3.3333333333333334e-08
aF1e-07
aF6.666666666666667e-08
aF1e-07
aF3.3333333333333334e-08
aF6.666666666666667e-08
aF3.3333333333333334e-08
aF2e-07
aF3.3333333333333334e-08
aF1e-07
aF6.666666666666667e-08
aF6.666666666666667e-08
aF1.3333333333333334e-07
aF3.3333333333333334e-08
aF3.3333333333333334e-08
aF3.3333333333333334e-08
aF3.3333333333333334e-08
aF3.3333333333333334e-08
aF1.3333333333333334e-07
aF6.666666666666667e-08
aF6.666666666666667e-08
aF6.666666666666667e-08
aF6.666666666666667e-08
aF6.666666666666667e-08
aF3.3333333333333334e-08
aF6.666666666666667e-08
aF1.3333333333333334e-07
aF3.3333333333333334e-08
aF6.666666666666667e-08
aF1.3333333333333334e-07
aF3.3333333333333334e-08
aF3.3333333333333334e-08
aF1e-07
aF6.666666666666667e-08
aF6.666666666666667e-08
aF3.3333333333333334e-08
aF3.3333333333333334e-08
aF6.666666666666667e-08
aF1e-07
aF6.666666666666667e-08
aF1.3333333333333334e-07
aF1e-07
aF6.666666666666667e-08
aF1e-07
aF1e-07
aF1.3333333333333334e-07
aF3.3333333333333334e-08
aF1e-07
aF3.3333333333333334e-08
aF3.3333333333333334e-08
aF6.666666666666667e-08
aF3.3333333333333334e-08
aF6.666666666666667e-08
aF1e-07
aF3.3333333333333334e-08
aF1e-07
aF6.666666666666667e-08
aF6.666666666666667e-08
aF3.3333333333333334e-08
aF3.3333333333333334e-08
aF1e-07
aF1e-07
aF3.3333333333333334e-08
aF3.3333333333333334e-08
aF6.666666666666667e-08
aF3.3333333333333334e-08
aF6.666666666666667e-08
aF6.666666666666667e-08
aF3.3333333333333334e-08
aF3.3333333333333334e-08
aF1e-07
aF3.3333333333333334e-08
aF3.3333333333333334e-08
aF3.3333333333333334e-08
aF3.3333333333333334e-08
aF6.666666666666667e-08
aF1.3333333333333334e-07
aF6.666666666666667e-08
aF6.666666666666667e-08
aF6.666666666666667e-08
aF6.666666666666667e-08
aF3.3333333333333334e-08
aF3.3333333333333334e-08
aF1e-07
aF3.3333333333333334e-08
aF3.3333333333333334e-08
aF6.666666666666667e-08
aF6.666666666666667e-08
aF6.666666666666667e-08
aF6.666666666666667e-08
aF6.666666666666667e-08
aF6.666666666666667e-08
aF6.666666666666667e-08
aF1.6666666666666668e-07
aF6.666666666666667e-08
aF3.3333333333333334e-08
aF3.3333333333333334e-08
aF6.666666666666667e-08
aF3.3333333333333334e-08
aF2e-07
aF3.3333333333333334e-08
aF3.3333333333333334e-08
aF6.666666666666667e-08
aF3.3333333333333334e-08
aF3.3333333333333334e-08
aF1e-07
aF6.666666666666667e-08
aF3.3333333333333334e-08
aF1.3333333333333334e-07
aF3.3333333333333334e-08
aF3.3333333333333334e-08
aF3.3333333333333334e-08
aF6.666666666666667e-08
aF3.3333333333333334e-08
aF3.3333333333333334e-08
aF3.3333333333333334e-08
aF1e-07
aF6.666666666666667e-08
aF3.3333333333333334e-08
aF1e-07
aF6.666666666666667e-08
aF6.666666666666667e-08
aF6.666666666666667e-08
aF6.666666666666667e-08
aF6.666666666666667e-08
aF3.3333333333333334e-08
aF6.666666666666667e-08
aF6.666666666666667e-08
aF6.666666666666667e-08
aF3.3333333333333334e-08
aF6.666666666666667e-08
aF3.3333333333333334e-08
aF3.3333333333333334e-08
aF3.3333333333333334e-08
aF1.3333333333333334e-07
aF3.3333333333333334e-08
aF3.3333333333333334e-08
aF6.666666666666667e-08
aF3.3333333333333334e-08
aF3.3333333333333334e-08
aF6.666666666666667e-08
aF1.3333333333333334e-07
aF6.666666666666667e-08
aF3.3333333333333334e-08
aF6.666666666666667e-08
aF6.666666666666667e-08
aF3.3333333333333334e-08
aF3.3333333333333334e-08
aF3.3333333333333334e-08
aF6.666666666666667e-08
aF3.3333333333333334e-08
aF3.3333333333333334e-08
aF3.3333333333333334e-08
aF3.3333333333333334e-08
aF3.3333333333333334e-08
aF6.666666666666667e-08
aF3.3333333333333334e-08
aF3.3333333333333334e-08
aF1e-07
aF3.3333333333333334e-08
aF3.3333333333333334e-08
aF6.666666666666667e-08
aF3.3333333333333334e-08
aF3.3333333333333334e-08
aF3.3333333333333334e-08
aF3.3333333333333334e-08
aF6.666666666666667e-08
aF3.3333333333333334e-08
aF6.666666666666667e-08
aF3.3333333333333334e-08
aF3.3333333333333334e-08
aF3.3333333333333334e-08
aF6.666666666666667e-08
aF3.3333333333333334e-08
aF6.666666666666667e-08
aF3.3333333333333334e-08
aF3.3333333333333334e-08
aF6.666666666666667e-08
aF3.3333333333333334e-08
aF3.3333333333333334e-08
aF3.3333333333333334e-08
aF6.666666666666667e-08
aF3.3333333333333334e-08
aF3.3333333333333334e-08
aF3.3333333333333334e-08
aF3.3333333333333334e-08
aF3.3333333333333334e-08
aF3.3333333333333334e-08
aF6.666666666666667e-08
aF3.3333333333333334e-08
aF3.3333333333333334e-08
aF3.3333333333333334e-08
aF3.3333333333333334e-08
aF3.3333333333333334e-08
aF3.3333333333333334e-08
aF3.3333333333333334e-08
aF3.3333333333333334e-08
aF3.3333333333333334e-08
aF3.3333333333333334e-08
aF3.3333333333333334e-08
aF3.3333333333333334e-08
aF6.666666666666667e-08
aF3.3333333333333334e-08
aF3.3333333333333334e-08
aF3.3333333333333334e-08
aF3.3333333333333334e-08
aF3.3333333333333334e-08
aF3.3333333333333334e-08
aF3.3333333333333334e-08
aF3.3333333333333334e-08
aF6.666666666666667e-08
aF6.666666666666667e-08
aF3.3333333333333334e-08
aF3.3333333333333334e-08
aF6.666666666666667e-08
aF3.3333333333333334e-08
aF3.3333333333333334e-08
aF3.3333333333333334e-08
aF3.3333333333333334e-08
aF3.3333333333333334e-08
aF6.666666666666667e-08
aF3.3333333333333334e-08
aF6.666666666666667e-08
aF3.3333333333333334e-08
aF3.3333333333333334e-08
aF3.3333333333333334e-08
aF3.3333333333333334e-08
aF3.3333333333333334e-08
aF3.3333333333333334e-08
aF3.3333333333333334e-08
aF3.3333333333333334e-08
aF3.3333333333333334e-08
aF3.3333333333333334e-08
aF3.3333333333333334e-08
aF3.3333333333333334e-08
aF3.3333333333333334e-08
aF3.3333333333333334e-08
aF3.3333333333333334e-08
aF3.3333333333333334e-08
aF3.3333333333333334e-08
aF3.3333333333333334e-08
aF3.3333333333333334e-08
aF3.3333333333333334e-08
aF3.3333333333333334e-08
aF6.666666666666667e-08
aF3.3333333333333334e-08
aF3.3333333333333334e-08
aF3.3333333333333334e-08
aF3.3333333333333334e-08
aF6.666666666666667e-08
aF3.3333333333333334e-08
aF3.3333333333333334e-08
aF3.3333333333333334e-08
aF3.3333333333333334e-08
aF3.3333333333333334e-08
aF3.3333333333333334e-08
aF3.3333333333333334e-08
aF3.3333333333333334e-08
aF3.3333333333333334e-08
aF3.3333333333333334e-08
aF3.3333333333333334e-08
aF3.3333333333333334e-08
aF3.3333333333333334e-08
aF3.3333333333333334e-08
aF3.3333333333333334e-08
aF3.3333333333333334e-08
aF3.3333333333333334e-08
aF3.3333333333333334e-08
aF3.3333333333333334e-08
aF3.3333333333333334e-08
aF3.3333333333333334e-08
aF3.3333333333333334e-08
aF3.3333333333333334e-08
aF3.3333333333333334e-08
aF3.3333333333333334e-08
aF3.3333333333333334e-08
aF3.3333333333333334e-08
asS'kmean'
p7
F4.799938533333334
sS'popt'
p8
cnumpy.core.multiarray
_reconstruct
p9
(cnumpy
ndarray
p10
(I0
tp11
S'b'
p12
tp13
Rp14
(I1
(I2
tp15
cnumpy
dtype
p16
(S'f8'
p17
I0
I1
tp18
Rp19
(I3
S'<'
p20
NNNI-1
I-1
I0
tp21
bI00
S'\x07\x8a\x86\x00\xa1\xbf\x04@\xf20\x1e\xb50M\x1d@'
p22
tp23
bs.