(dp0
S'count'
p1
(lp2
I39915
aI20129
aI11408
aI7150
aI4693
aI3331
aI2464
aI1783
aI1431
aI1090
aI830
aI746
aI609
aI499
aI394
aI343
aI316
aI305
aI227
aI197
aI159
aI147
aI130
aI112
aI102
aI97
aI89
aI82
aI74
aI63
aI63
aI55
aI64
aI39
aI45
aI42
aI36
aI30
aI40
aI30
aI28
aI25
aI22
aI19
aI25
aI15
aI20
aI11
aI16
aI18
aI19
aI11
aI18
aI21
aI12
aI8
aI17
aI12
aI9
aI10
aI8
aI11
aI10
aI7
aI6
aI4
aI9
aI7
aI6
aI9
aI5
aI11
aI3
aI6
aI4
aI4
aI1
aI2
aI4
aI3
aI5
aI2
aI3
aI3
aI2
aI10
aI2
aI3
aI2
aI5
aI3
aI4
aI2
aI4
aI3
aI2
aI2
aI4
aI2
aI3
aI5
aI1
aI5
aI2
aI1
aI2
aI2
aI2
aI2
aI1
aI2
aI3
aI1
aI2
aI1
aI1
aI1
aI1
aI2
aI1
aI1
aI1
aI1
aI2
aI1
aI1
aI2
aI1
aI1
aI1
aI1
aI2
aI2
aI1
aI2
aI1
aI2
aI2
aI1
aI2
aI1
aI1
aI1
aI1
aI1
aI1
aI1
aI1
aI1
aI2
aI1
aI1
aI1
aI2
aI1
aI1
aI1
aI1
aI1
aI1
aI1
aI1
aI2
aI2
aI1
aI1
aI1
aI1
aI2
aI1
aI1
aI1
aI1
aI1
aI1
aI1
aI1
aI1
aI1
aI1
aI1
aI1
aI1
aI1
aI1
aI1
aI1
aI1
asS'index'
p3
(lp4
I3
aI4
aI5
aI6
aI7
aI8
aI9
aI10
aI11
aI12
aI13
aI14
aI15
aI16
aI17
aI18
aI19
aI20
aI21
aI22
aI23
aI24
aI25
aI26
aI27
aI28
aI29
aI30
aI31
aI32
aI33
aI34
aI35
aI36
aI37
aI38
aI39
aI40
aI41
aI42
aI43
aI44
aI45
aI46
aI47
aI48
aI49
aI50
aI51
aI52
aI53
aI54
aI55
aI56
aI57
aI58
aI59
aI60
aI61
aI62
aI63
aI64
aI65
aI66
aI67
aI68
aI69
aI70
aI71
aI72
aI73
aI74
aI75
aI76
aI77
aI78
aI79
aI80
aI81
aI82
aI83
aI84
aI85
aI86
aI87
aI88
aI89
aI90
aI91
aI92
aI93
aI94
aI95
aI96
aI97
aI98
aI99
aI100
aI101
aI102
aI103
aI104
aI105
aI106
aI107
aI108
aI109
aI110
aI111
aI112
aI113
aI114
aI115
aI116
aI117
aI118
aI119
aI121
aI122
aI123
aI124
aI125
aI126
aI128
aI129
aI130
aI131
aI132
aI133
aI134
aI137
aI138
aI139
aI141
aI143
aI145
aI148
aI150
aI153
aI159
aI160
aI163
aI164
aI165
aI166
aI168
aI169
aI171
aI175
aI176
aI179
aI180
aI181
aI187
aI194
aI196
aI203
aI206
aI208
aI211
aI217
aI223
aI226
aI227
aI231
aI233
aI239
aI240
aI249
aI254
aI257
aI269
aI279
aI286
aI294
aI297
aI298
aI304
aI309
aI317
aI330
aI449
aI505
aI528
aI536
aI633
aI877
aI934
asS'prob'
p5
(lp6
F0.39915
aF0.20129
aF0.11408
aF0.0715
aF0.04693
aF0.03331
aF0.02464
aF0.01783
aF0.01431
aF0.0109
aF0.0083
aF0.00746
aF0.00609
aF0.00499
aF0.00394
aF0.00343
aF0.00316
aF0.00305
aF0.00227
aF0.00197
aF0.00159
aF0.00147
aF0.0013
aF0.00112
aF0.00102
aF0.00097
aF0.00089
aF0.00082
aF0.00074
aF0.00063
aF0.00063
aF0.00055
aF0.00064
aF0.00039
aF0.00045
aF0.00042
aF0.00036
aF0.0003
aF0.0004
aF0.0003
aF0.00028
aF0.00025
aF0.00022
aF0.00019
aF0.00025
aF0.00015
aF0.0002
aF0.00011
aF0.00016
aF0.00018
aF0.00019
aF0.00011
aF0.00018
aF0.00021
aF0.00012
aF8e-05
aF0.00017
aF0.00012
aF9e-05
aF0.0001
aF8e-05
aF0.00011
aF0.0001
aF7e-05
aF6e-05
aF4e-05
aF9e-05
aF7e-05
aF6e-05
aF9e-05
aF5e-05
aF0.00011
aF3e-05
aF6e-05
aF4e-05
aF4e-05
aF1e-05
aF2e-05
aF4e-05
aF3e-05
aF5e-05
aF2e-05
aF3e-05
aF3e-05
aF2e-05
aF0.0001
aF2e-05
aF3e-05
aF2e-05
aF5e-05
aF3e-05
aF4e-05
aF2e-05
aF4e-05
aF3e-05
aF2e-05
aF2e-05
aF4e-05
aF2e-05
aF3e-05
aF5e-05
aF1e-05
aF5e-05
aF2e-05
aF1e-05
aF2e-05
aF2e-05
aF2e-05
aF2e-05
aF1e-05
aF2e-05
aF3e-05
aF1e-05
aF2e-05
aF1e-05
aF1e-05
aF1e-05
aF1e-05
aF2e-05
aF1e-05
aF1e-05
aF1e-05
aF1e-05
aF2e-05
aF1e-05
aF1e-05
aF2e-05
aF1e-05
aF1e-05
aF1e-05
aF1e-05
aF2e-05
aF2e-05
aF1e-05
aF2e-05
aF1e-05
aF2e-05
aF2e-05
aF1e-05
aF2e-05
aF1e-05
aF1e-05
aF1e-05
aF1e-05
aF1e-05
aF1e-05
aF1e-05
aF1e-05
aF1e-05
aF2e-05
aF1e-05
aF1e-05
aF1e-05
aF2e-05
aF1e-05
aF1e-05
aF1e-05
aF1e-05
aF1e-05
aF1e-05
aF1e-05
aF1e-05
aF2e-05
aF2e-05
aF1e-05
aF1e-05
aF1e-05
aF1e-05
aF2e-05
aF1e-05
aF1e-05
aF1e-05
aF1e-05
aF1e-05
aF1e-05
aF1e-05
aF1e-05
aF1e-05
aF1e-05
aF1e-05
aF1e-05
aF1e-05
aF1e-05
aF1e-05
aF1e-05
aF1e-05
aF1e-05
aF1e-05
asS'kmean'
p7
F5.999820000000003
sS'popt'
p8
cnumpy.core.multiarray
_reconstruct
p9
(cnumpy
ndarray
p10
(I0
tp11
S'b'
p12
tp13
Rp14
(I1
(I2
tp15
cnumpy
dtype
p16
(S'f8'
p17
I0
I1
tp18
Rp19
(I3
S'<'
p20
NNNI-1
I-1
I0
tp21
bI00
S'\xb9\x8f\x10\\\xc9\xf2\x03@;L\xe7f\x17\xdb\x18@'
p22
tp23
bs.