(dp0
S'uncorrelated_prob'
p1
(lp2
F0.20060180541624875
aF0.13507188231360748
aF0.08441992644600468
aF0.0712136409227683
aF0.07606151788699432
aF0.034770979605483116
aF0.03009027081243731
aF0.021731862253426947
aF0.0367769976596456
aF0.024072216649949848
aF0.013039117352056168
aF0.028084252758274825
aF0.017552657973921765
aF0.010698762955533266
aF0.01420929455031762
aF0.012036108324974924
aF0.010030090270812437
aF0.01053159478435306
aF0.0036776997659645604
aF0.007689735874289535
aF0.012537612838515547
aF0.004513540621865597
aF0.009695753928452023
aF0.005182213306586426
aF0.005349381477766633
aF0.011033099297893681
aF0.006018054162487462
aF0.006352390504847877
aF0.013039117352056168
aF0.006853895018388499
aF0.014042126379137413
aF0.007689735874289535
aF0.007856904045469742
aF0.010865931126713474
aF0.01170177198261451
aF0.011868940153794718
aF0.013039117352056168
asS'assortativity'
p3
cnumpy.core.multiarray
scalar
p4
(cnumpy
dtype
p5
(S'f8'
p6
I0
I1
tp7
Rp8
(I3
S'<'
p9
NNNI-1
I-1
I0
tp10
bS'\xa4\xcb\x91\x1d\x17K\xb5\xbf'
p11
tp12
Rp13
sS'dgr_dgr_func'
p14
(dp15
I65
(lp16
F0.16923076923076924
aF0.16923076923076924
aF0.1076923076923077
aF0.046153846153846156
aF0.1076923076923077
aF0.03076923076923077
aF0.046153846153846156
aF0.046153846153846156
aF0.0
aF0.07692307692307693
aF0.015384615384615385
aF0.015384615384615385
aF0.0
aF0.015384615384615385
aF0.015384615384615385
aF0.0
aF0.0
aF0.0
aF0.0
aF0.015384615384615385
aF0.0
aF0.0
aF0.0
aF0.0
aF0.0
aF0.015384615384615385
aF0.0
aF0.015384615384615385
aF0.015384615384615385
aF0.0
aF0.03076923076923077
aF0.015384615384615385
aF0.015384615384615385
aF0.0
aF0.0
aF0.015384615384615385
aF0.0
asI3
(lp17
F0.0
aF0.1125
aF0.09666666666666666
aF0.1
aF0.1
aF0.05416666666666667
aF0.043333333333333335
aF0.023333333333333334
aF0.06333333333333334
aF0.03666666666666667
aF0.0225
aF0.03833333333333333
aF0.0275
aF0.009166666666666667
aF0.02
aF0.018333333333333333
aF0.01
aF0.0125
aF0.004166666666666667
aF0.009166666666666667
aF0.013333333333333334
aF0.005
aF0.015
aF0.009166666666666667
aF0.006666666666666667
aF0.0075
aF0.005833333333333334
aF0.01
aF0.018333333333333333
aF0.011666666666666667
aF0.013333333333333334
aF0.01
aF0.010833333333333334
aF0.009166666666666667
aF0.016666666666666666
aF0.015
aF0.020833333333333332
asI4
(lp18
F0.1670792079207921
aF0.10148514851485149
aF0.08044554455445545
aF0.0594059405940594
aF0.08044554455445545
aF0.027227722772277228
aF0.03712871287128713
aF0.03341584158415842
aF0.038366336633663366
aF0.03341584158415842
aF0.013613861386138614
aF0.03341584158415842
aF0.01608910891089109
aF0.01485148514851485
aF0.017326732673267328
aF0.013613861386138614
aF0.008663366336633664
aF0.008663366336633664
aF0.0012376237623762376
aF0.011138613861386138
aF0.022277227722772276
aF0.0049504950495049506
aF0.008663366336633664
aF0.008663366336633664
aF0.0049504950495049506
aF0.018564356435643563
aF0.011138613861386138
aF0.007425742574257425
aF0.01608910891089109
aF0.006188118811881188
aF0.02103960396039604
aF0.007425742574257425
aF0.0049504950495049506
aF0.013613861386138614
aF0.01485148514851485
aF0.01485148514851485
aF0.017326732673267328
asI5
(lp19
F0.2297029702970297
aF0.12871287128712872
aF0.0594059405940594
aF0.04950495049504951
aF0.07524752475247524
aF0.02574257425742574
aF0.019801980198019802
aF0.02574257425742574
aF0.04356435643564356
aF0.027722772277227723
aF0.007920792079207921
aF0.03564356435643564
aF0.013861386138613862
aF0.019801980198019802
aF0.01782178217821782
aF0.015841584158415842
aF0.013861386138613862
aF0.013861386138613862
aF0.0039603960396039604
aF0.009900990099009901
aF0.011881188118811881
aF0.005940594059405941
aF0.0039603960396039604
aF0.0039603960396039604
aF0.005940594059405941
aF0.015841584158415842
aF0.011881188118811881
aF0.005940594059405941
aF0.023762376237623763
aF0.013861386138613862
aF0.009900990099009901
aF0.0039603960396039604
aF0.009900990099009901
aF0.013861386138613862
aF0.0039603960396039604
aF0.005940594059405941
aF0.011881188118811881
asI6
(lp20
F0.28169014084507044
aF0.11267605633802817
aF0.05868544600938967
aF0.03286384976525822
aF0.07981220657276995
aF0.03286384976525822
aF0.035211267605633804
aF0.009389671361502348
aF0.02112676056338028
aF0.023474178403755867
aF0.025821596244131457
aF0.03051643192488263
aF0.028169014084507043
aF0.01643192488262911
aF0.01643192488262911
aF0.004694835680751174
aF0.011737089201877934
aF0.01643192488262911
aF0.002347417840375587
aF0.007042253521126761
aF0.02112676056338028
aF0.009389671361502348
aF0.007042253521126761
aF0.002347417840375587
aF0.007042253521126761
aF0.007042253521126761
aF0.011737089201877934
aF0.002347417840375587
aF0.014084507042253521
aF0.002347417840375587
aF0.01643192488262911
aF0.009389671361502348
aF0.002347417840375587
aF0.007042253521126761
aF0.01643192488262911
aF0.007042253521126761
aF0.009389671361502348
asI7
(lp21
F0.26373626373626374
aF0.14285714285714285
aF0.08351648351648351
aF0.07472527472527472
aF0.06153846153846154
aF0.02197802197802198
aF0.01978021978021978
aF0.02857142857142857
aF0.01978021978021978
aF0.01978021978021978
aF0.01098901098901099
aF0.024175824175824177
aF0.02197802197802198
aF0.008791208791208791
aF0.013186813186813187
aF0.008791208791208791
aF0.01098901098901099
aF0.008791208791208791
aF0.002197802197802198
aF0.006593406593406593
aF0.01098901098901099
aF0.0
aF0.013186813186813187
aF0.006593406593406593
aF0.008791208791208791
aF0.015384615384615385
aF0.004395604395604396
aF0.002197802197802198
aF0.008791208791208791
aF0.004395604395604396
aF0.015384615384615385
aF0.002197802197802198
aF0.004395604395604396
aF0.015384615384615385
aF0.017582417582417582
aF0.008791208791208791
aF0.008791208791208791
asI8
(lp22
F0.3125
aF0.10576923076923077
aF0.0625
aF0.0673076923076923
aF0.04807692307692308
aF0.028846153846153848
aF0.038461538461538464
aF0.019230769230769232
aF0.038461538461538464
aF0.009615384615384616
aF0.009615384615384616
aF0.028846153846153848
aF0.014423076923076924
aF0.009615384615384616
aF0.014423076923076924
aF0.019230769230769232
aF0.004807692307692308
aF0.004807692307692308
aF0.0
aF0.0
aF0.009615384615384616
aF0.009615384615384616
aF0.014423076923076924
aF0.004807692307692308
aF0.0
aF0.02403846153846154
aF0.009615384615384616
aF0.009615384615384616
aF0.014423076923076924
aF0.014423076923076924
aF0.004807692307692308
aF0.004807692307692308
aF0.014423076923076924
aF0.009615384615384616
aF0.009615384615384616
aF0.009615384615384616
aF0.0
asI9
(lp23
F0.28888888888888886
aF0.16666666666666666
aF0.05555555555555555
aF0.08333333333333333
aF0.05
aF0.044444444444444446
aF0.011111111111111112
aF0.022222222222222223
aF0.027777777777777776
aF0.011111111111111112
aF0.005555555555555556
aF0.03333333333333333
aF0.016666666666666666
aF0.005555555555555556
aF0.011111111111111112
aF0.016666666666666666
aF0.011111111111111112
aF0.005555555555555556
aF0.016666666666666666
aF0.005555555555555556
aF0.0
aF0.0
aF0.016666666666666666
aF0.0
aF0.0
aF0.016666666666666666
aF0.005555555555555556
aF0.011111111111111112
aF0.0
aF0.0
aF0.011111111111111112
aF0.005555555555555556
aF0.0
aF0.016666666666666666
aF0.0
aF0.022222222222222223
aF0.005555555555555556
asI10
(lp24
F0.2153846153846154
aF0.2076923076923077
aF0.1
aF0.03076923076923077
aF0.1
aF0.03076923076923077
aF0.03076923076923077
aF0.0
aF0.03076923076923077
aF0.007692307692307693
aF0.015384615384615385
aF0.007692307692307693
aF0.0
aF0.007692307692307693
aF0.007692307692307693
aF0.007692307692307693
aF0.0
aF0.007692307692307693
aF0.0
aF0.015384615384615385
aF0.015384615384615385
aF0.007692307692307693
aF0.007692307692307693
aF0.007692307692307693
aF0.023076923076923078
aF0.007692307692307693
aF0.007692307692307693
aF0.007692307692307693
aF0.007692307692307693
aF0.015384615384615385
aF0.015384615384615385
aF0.007692307692307693
aF0.007692307692307693
aF0.023076923076923078
aF0.007692307692307693
aF0.007692307692307693
aF0.0
asI11
(lp25
F0.34545454545454546
aF0.1409090909090909
aF0.1
aF0.04090909090909091
aF0.04090909090909091
aF0.03636363636363636
aF0.022727272727272728
aF0.01818181818181818
aF0.00909090909090909
aF0.013636363636363636
aF0.00909090909090909
aF0.013636363636363636
aF0.013636363636363636
aF0.00909090909090909
aF0.0
aF0.01818181818181818
aF0.004545454545454545
aF0.004545454545454545
aF0.0
aF0.00909090909090909
aF0.00909090909090909
aF0.013636363636363636
aF0.004545454545454545
aF0.0
aF0.004545454545454545
aF0.013636363636363636
aF0.0
aF0.013636363636363636
aF0.02727272727272727
aF0.004545454545454545
aF0.01818181818181818
aF0.004545454545454545
aF0.00909090909090909
aF0.0
aF0.00909090909090909
aF0.00909090909090909
aF0.00909090909090909
asI12
(lp26
F0.3055555555555556
aF0.1875
aF0.09722222222222222
aF0.06944444444444445
aF0.0625
aF0.013888888888888888
aF0.013888888888888888
aF0.006944444444444444
aF0.020833333333333332
aF0.027777777777777776
aF0.0
aF0.013888888888888888
aF0.0
aF0.013888888888888888
aF0.0
aF0.0
aF0.006944444444444444
aF0.006944444444444444
aF0.0
aF0.0
aF0.006944444444444444
aF0.006944444444444444
aF0.013888888888888888
aF0.006944444444444444
aF0.006944444444444444
aF0.006944444444444444
aF0.0
aF0.0
aF0.006944444444444444
aF0.0
aF0.013888888888888888
aF0.013888888888888888
aF0.0
aF0.034722222222222224
aF0.013888888888888888
aF0.020833333333333332
aF0.0
asI13
(lp27
F0.34615384615384615
aF0.14102564102564102
aF0.05128205128205128
aF0.14102564102564102
aF0.0641025641025641
aF0.02564102564102564
aF0.01282051282051282
aF0.02564102564102564
aF0.02564102564102564
aF0.0
aF0.02564102564102564
aF0.01282051282051282
aF0.0
aF0.0
aF0.0
aF0.01282051282051282
aF0.02564102564102564
aF0.0
aF0.0
aF0.0
aF0.0
aF0.0
aF0.0
aF0.0
aF0.0
aF0.0
aF0.01282051282051282
aF0.0
aF0.0
aF0.0
aF0.01282051282051282
aF0.0
aF0.01282051282051282
aF0.01282051282051282
aF0.0
aF0.01282051282051282
aF0.02564102564102564
asI14
(lp28
F0.27380952380952384
aF0.16071428571428573
aF0.10714285714285714
aF0.07738095238095238
aF0.06547619047619048
aF0.03571428571428571
aF0.03571428571428571
aF0.005952380952380952
aF0.017857142857142856
aF0.011904761904761904
aF0.005952380952380952
aF0.011904761904761904
aF0.011904761904761904
aF0.0
aF0.0
aF0.005952380952380952
aF0.005952380952380952
aF0.011904761904761904
aF0.0
aF0.005952380952380952
aF0.011904761904761904
aF0.0
aF0.011904761904761904
aF0.005952380952380952
aF0.0
aF0.0
aF0.005952380952380952
aF0.005952380952380952
aF0.0
aF0.005952380952380952
aF0.023809523809523808
aF0.017857142857142856
aF0.011904761904761904
aF0.005952380952380952
aF0.017857142857142856
aF0.005952380952380952
aF0.017857142857142856
asI15
(lp29
F0.3142857142857143
aF0.12380952380952381
aF0.06666666666666667
aF0.11428571428571428
aF0.09523809523809523
aF0.02857142857142857
aF0.02857142857142857
aF0.0
aF0.02857142857142857
aF0.0
aF0.0
aF0.01904761904761905
aF0.0
aF0.0
aF0.01904761904761905
aF0.009523809523809525
aF0.009523809523809525
aF0.009523809523809525
aF0.0
aF0.0
aF0.009523809523809525
aF0.0
aF0.0
aF0.0
aF0.009523809523809525
aF0.009523809523809525
aF0.0
aF0.0
aF0.0
aF0.009523809523809525
aF0.009523809523809525
aF0.009523809523809525
aF0.0
aF0.0
aF0.01904761904761905
aF0.02857142857142857
aF0.02857142857142857
asI16
(lp30
F0.171875
aF0.1875
aF0.15625
aF0.109375
aF0.0625
aF0.03125
aF0.015625
aF0.015625
aF0.03125
aF0.03125
aF0.0
aF0.0
aF0.0
aF0.0
aF0.0
aF0.0
aF0.015625
aF0.015625
aF0.0
aF0.015625
aF0.0
aF0.0
aF0.015625
aF0.0
aF0.015625
aF0.0
aF0.0
aF0.0
aF0.03125
aF0.0
aF0.0
aF0.0
aF0.015625
aF0.015625
aF0.0
aF0.03125
aF0.015625
asI17
(lp31
F0.2823529411764706
aF0.16470588235294117
aF0.10588235294117647
aF0.08235294117647059
aF0.07058823529411765
aF0.03529411764705882
aF0.023529411764705882
aF0.011764705882352941
aF0.0
aF0.0
aF0.0
aF0.0
aF0.023529411764705882
aF0.0
aF0.0
aF0.0
aF0.011764705882352941
aF0.023529411764705882
aF0.011764705882352941
aF0.011764705882352941
aF0.011764705882352941
aF0.011764705882352941
aF0.023529411764705882
aF0.0
aF0.0
aF0.0
aF0.0
aF0.011764705882352941
aF0.0
aF0.011764705882352941
aF0.03529411764705882
aF0.0
aF0.0
aF0.011764705882352941
aF0.0
aF0.011764705882352941
aF0.011764705882352941
asI18
(lp32
F0.3055555555555556
aF0.1527777777777778
aF0.1111111111111111
aF0.027777777777777776
aF0.05555555555555555
aF0.05555555555555555
aF0.041666666666666664
aF0.013888888888888888
aF0.05555555555555555
aF0.0
aF0.013888888888888888
aF0.013888888888888888
aF0.013888888888888888
aF0.0
aF0.0
aF0.0
aF0.013888888888888888
aF0.013888888888888888
aF0.0
aF0.0
aF0.0
aF0.0
aF0.0
aF0.0
aF0.0
aF0.0
aF0.0
aF0.0
aF0.0
aF0.0
aF0.027777777777777776
aF0.041666666666666664
aF0.0
aF0.0
aF0.013888888888888888
aF0.0
aF0.027777777777777776
asI20
(lp33
F0.2
aF0.11666666666666667
aF0.11666666666666667
aF0.08333333333333333
aF0.08333333333333333
aF0.016666666666666666
aF0.03333333333333333
aF0.0
aF0.016666666666666666
aF0.016666666666666666
aF0.03333333333333333
aF0.016666666666666666
aF0.016666666666666666
aF0.016666666666666666
aF0.016666666666666666
aF0.016666666666666666
aF0.0
aF0.016666666666666666
aF0.03333333333333333
aF0.0
aF0.0
aF0.0
aF0.0
aF0.016666666666666666
aF0.0
aF0.016666666666666666
aF0.0
aF0.0
aF0.0
aF0.016666666666666666
aF0.0
aF0.0
aF0.03333333333333333
aF0.0
aF0.03333333333333333
aF0.016666666666666666
aF0.016666666666666666
asI21
(lp34
F0.23809523809523808
aF0.1111111111111111
aF0.1111111111111111
aF0.1111111111111111
aF0.06349206349206349
aF0.015873015873015872
aF0.015873015873015872
aF0.015873015873015872
aF0.015873015873015872
aF0.015873015873015872
aF0.0
aF0.031746031746031744
aF0.015873015873015872
aF0.015873015873015872
aF0.031746031746031744
aF0.015873015873015872
aF0.015873015873015872
aF0.031746031746031744
aF0.0
aF0.0
aF0.015873015873015872
aF0.0
aF0.031746031746031744
aF0.0
aF0.0
aF0.0
aF0.0
aF0.0
aF0.015873015873015872
aF0.0
aF0.0
aF0.015873015873015872
aF0.015873015873015872
aF0.0
aF0.0
aF0.015873015873015872
aF0.015873015873015872
asI22
(lp35
F0.22727272727272727
aF0.045454545454545456
aF0.09090909090909091
aF0.045454545454545456
aF0.045454545454545456
aF0.0
aF0.13636363636363635
aF0.0
aF0.0
aF0.0
aF0.0
aF0.0
aF0.0
aF0.0
aF0.045454545454545456
aF0.0
aF0.09090909090909091
aF0.0
aF0.0
aF0.0
aF0.0
aF0.0
aF0.0
aF0.0
aF0.045454545454545456
aF0.0
aF0.0
aF0.0
aF0.0
aF0.0
aF0.045454545454545456
aF0.045454545454545456
aF0.0
aF0.0
aF0.045454545454545456
aF0.045454545454545456
aF0.045454545454545456
asI23
(lp36
F0.2391304347826087
aF0.1956521739130435
aF0.10869565217391304
aF0.06521739130434782
aF0.06521739130434782
aF0.0
aF0.021739130434782608
aF0.043478260869565216
aF0.043478260869565216
aF0.0
aF0.0
aF0.021739130434782608
aF0.0
aF0.021739130434782608
aF0.021739130434782608
aF0.0
aF0.0
aF0.0
aF0.0
aF0.0
aF0.043478260869565216
aF0.0
aF0.0
aF0.0
aF0.0
aF0.0
aF0.0
aF0.0
aF0.0
aF0.0
aF0.043478260869565216
aF0.0
aF0.021739130434782608
aF0.021739130434782608
aF0.0
aF0.0
aF0.021739130434782608
asI25
(lp37
F0.21333333333333335
aF0.24
aF0.08
aF0.12
aF0.06666666666666667
aF0.02666666666666667
aF0.0
aF0.02666666666666667
aF0.02666666666666667
aF0.013333333333333334
aF0.0
aF0.02666666666666667
aF0.013333333333333334
aF0.0
aF0.013333333333333334
aF0.0
aF0.0
aF0.013333333333333334
aF0.0
aF0.02666666666666667
aF0.0
aF0.0
aF0.0
aF0.0
aF0.013333333333333334
aF0.013333333333333334
aF0.0
aF0.013333333333333334
aF0.013333333333333334
aF0.0
aF0.0
aF0.0
aF0.013333333333333334
aF0.0
aF0.013333333333333334
aF0.013333333333333334
aF0.0
asI27
(lp38
F0.2222222222222222
aF0.14814814814814814
aF0.1111111111111111
aF0.14814814814814814
aF0.0
aF0.07407407407407407
aF0.0
aF0.037037037037037035
aF0.1111111111111111
aF0.037037037037037035
aF0.0
aF0.0
aF0.0
aF0.0
aF0.037037037037037035
aF0.0
aF0.0
aF0.0
aF0.0
aF0.0
aF0.0
aF0.0
aF0.0
aF0.0
aF0.0
aF0.037037037037037035
aF0.0
aF0.0
aF0.0
aF0.0
aF0.0
aF0.0
aF0.037037037037037035
aF0.0
aF0.0
aF0.0
aF0.0
asI29
(lp39
F0.3103448275862069
aF0.1206896551724138
aF0.034482758620689655
aF0.05172413793103448
aF0.10344827586206896
aF0.05172413793103448
aF0.05172413793103448
aF0.017241379310344827
aF0.017241379310344827
aF0.034482758620689655
aF0.0
aF0.034482758620689655
aF0.0
aF0.017241379310344827
aF0.034482758620689655
aF0.0
aF0.0
aF0.034482758620689655
aF0.0
aF0.0
aF0.0
aF0.0
aF0.0
aF0.0
aF0.0
aF0.017241379310344827
aF0.0
aF0.0
aF0.0
aF0.0
aF0.0
aF0.017241379310344827
aF0.0
aF0.0
aF0.017241379310344827
aF0.034482758620689655
aF0.0
asI31
(lp40
F0.3548387096774194
aF0.22580645161290322
aF0.06451612903225806
aF0.03225806451612903
aF0.0967741935483871
aF0.03225806451612903
aF0.0
aF0.03225806451612903
aF0.0
aF0.03225806451612903
aF0.0
aF0.03225806451612903
aF0.0
aF0.0
aF0.0
aF0.0
aF0.03225806451612903
aF0.0
aF0.0
aF0.0
aF0.0
aF0.0
aF0.0
aF0.0
aF0.0
aF0.0
aF0.0
aF0.0
aF0.0
aF0.0
aF0.0
aF0.0
aF0.03225806451612903
aF0.0
aF0.0
aF0.0
aF0.03225806451612903
asI32
(lp41
F0.25
aF0.125
aF0.09375
aF0.09375
aF0.125
aF0.0
aF0.0
aF0.09375
aF0.03125
aF0.03125
aF0.0
aF0.0
aF0.03125
aF0.03125
aF0.0
aF0.0
aF0.0
aF0.0
aF0.03125
aF0.0
aF0.03125
aF0.0
aF0.0
aF0.0
aF0.0
aF0.0
aF0.0
aF0.0
aF0.0
aF0.0
aF0.0
aF0.0
aF0.0
aF0.0
aF0.0
aF0.03125
aF0.0
asI33
(lp42
F0.13636363636363635
aF0.22727272727272727
aF0.12121212121212122
aF0.045454545454545456
aF0.10606060606060606
aF0.07575757575757576
aF0.045454545454545456
aF0.015151515151515152
aF0.045454545454545456
aF0.015151515151515152
aF0.0
aF0.0
aF0.015151515151515152
aF0.0
aF0.0
aF0.0
aF0.015151515151515152
aF0.0
aF0.0
aF0.0
aF0.015151515151515152
aF0.015151515151515152
aF0.015151515151515152
aF0.0
aF0.0
aF0.030303030303030304
aF0.015151515151515152
aF0.015151515151515152
aF0.0
aF0.0
aF0.0
aF0.0
aF0.0
aF0.015151515151515152
aF0.015151515151515152
aF0.0
aF0.0
asI36
(lp43
F0.19444444444444445
aF0.25
aF0.16666666666666666
aF0.1388888888888889
aF0.05555555555555555
aF0.05555555555555555
aF0.027777777777777776
aF0.027777777777777776
aF0.0
aF0.0
aF0.027777777777777776
aF0.027777777777777776
aF0.0
aF0.0
aF0.0
aF0.0
aF0.0
aF0.0
aF0.0
aF0.0
aF0.0
aF0.0
aF0.0
aF0.0
aF0.0
aF0.027777777777777776
aF0.0
aF0.0
aF0.0
aF0.0
aF0.0
aF0.0
aF0.0
aF0.0
aF0.0
aF0.0
aF0.0
asI70
(lp44
F0.2857142857142857
aF0.17142857142857143
aF0.02857142857142857
aF0.1
aF0.11428571428571428
aF0.02857142857142857
aF0.0
aF0.014285714285714285
aF0.02857142857142857
aF0.02857142857142857
aF0.0
aF0.04285714285714286
aF0.02857142857142857
aF0.0
aF0.0
aF0.014285714285714285
aF0.02857142857142857
aF0.0
aF0.014285714285714285
aF0.0
aF0.014285714285714285
aF0.0
aF0.014285714285714285
aF0.0
aF0.0
aF0.014285714285714285
aF0.0
aF0.0
aF0.0
aF0.0
aF0.014285714285714285
aF0.0
aF0.0
aF0.0
aF0.0
aF0.014285714285714285
aF0.0
asI38
(lp45
F0.3157894736842105
aF0.15789473684210525
aF0.07894736842105263
aF0.02631578947368421
aF0.02631578947368421
aF0.05263157894736842
aF0.05263157894736842
aF0.02631578947368421
aF0.07894736842105263
aF0.0
aF0.0
aF0.02631578947368421
aF0.0
aF0.0
aF0.02631578947368421
aF0.0
aF0.0
aF0.0
aF0.0
aF0.0
aF0.02631578947368421
aF0.0
aF0.0
aF0.0
aF0.0
aF0.02631578947368421
aF0.0
aF0.0
aF0.0
aF0.02631578947368421
aF0.0
aF0.02631578947368421
aF0.0
aF0.02631578947368421
aF0.0
aF0.0
aF0.0
asI39
(lp46
F0.28205128205128205
aF0.16666666666666666
aF0.15384615384615385
aF0.07692307692307693
aF0.05128205128205128
aF0.038461538461538464
aF0.0
aF0.01282051282051282
aF0.07692307692307693
aF0.01282051282051282
aF0.0
aF0.0
aF0.0
aF0.02564102564102564
aF0.0
aF0.0
aF0.0
aF0.01282051282051282
aF0.0
aF0.0
aF0.01282051282051282
aF0.0
aF0.0
aF0.0
aF0.0
aF0.0
aF0.0
aF0.0
aF0.0
aF0.0
aF0.0
aF0.01282051282051282
aF0.02564102564102564
aF0.01282051282051282
aF0.0
aF0.01282051282051282
aF0.01282051282051282
asI41
(lp47
F0.34146341463414637
aF0.12195121951219512
aF0.17073170731707318
aF0.024390243902439025
aF0.04878048780487805
aF0.07317073170731707
aF0.0
aF0.04878048780487805
aF0.024390243902439025
aF0.0
aF0.0
aF0.024390243902439025
aF0.024390243902439025
aF0.0
aF0.024390243902439025
aF0.0
aF0.024390243902439025
aF0.0
aF0.0
aF0.0
aF0.0
aF0.0
aF0.0
aF0.0
aF0.0
aF0.0
aF0.0
aF0.024390243902439025
aF0.0
aF0.0
aF0.0
aF0.0
aF0.0
aF0.0
aF0.0
aF0.0
aF0.024390243902439025
asI42
(lp48
F0.19047619047619047
aF0.20238095238095238
aF0.05952380952380952
aF0.08333333333333333
aF0.08333333333333333
aF0.011904761904761904
aF0.023809523809523808
aF0.023809523809523808
aF0.047619047619047616
aF0.023809523809523808
aF0.011904761904761904
aF0.047619047619047616
aF0.011904761904761904
aF0.0
aF0.03571428571428571
aF0.023809523809523808
aF0.0
aF0.0
aF0.011904761904761904
aF0.023809523809523808
aF0.0
aF0.0
aF0.0
aF0.0
aF0.0
aF0.0
aF0.0
aF0.0
aF0.0
aF0.0
aF0.0
aF0.011904761904761904
aF0.023809523809523808
aF0.023809523809523808
aF0.011904761904761904
aF0.0
aF0.011904761904761904
asI71
(lp49
F0.2535211267605634
aF0.16901408450704225
aF0.04225352112676056
aF0.04225352112676056
aF0.056338028169014086
aF0.028169014084507043
aF0.056338028169014086
aF0.014084507042253521
aF0.028169014084507043
aF0.04225352112676056
aF0.014084507042253521
aF0.014084507042253521
aF0.04225352112676056
aF0.028169014084507043
aF0.014084507042253521
aF0.0
aF0.014084507042253521
aF0.014084507042253521
aF0.014084507042253521
aF0.0
aF0.014084507042253521
aF0.0
aF0.028169014084507043
aF0.0
aF0.014084507042253521
aF0.0
aF0.0
aF0.0
aF0.014084507042253521
aF0.0
aF0.0
aF0.0
aF0.0
aF0.014084507042253521
aF0.014084507042253521
aF0.0
aF0.014084507042253521
asI78
(lp50
F0.32051282051282054
aF0.1794871794871795
aF0.07692307692307693
aF0.05128205128205128
aF0.05128205128205128
aF0.0
aF0.01282051282051282
aF0.0
aF0.02564102564102564
aF0.0
aF0.02564102564102564
aF0.038461538461538464
aF0.038461538461538464
aF0.01282051282051282
aF0.01282051282051282
aF0.02564102564102564
aF0.01282051282051282
aF0.01282051282051282
aF0.01282051282051282
aF0.01282051282051282
aF0.0
aF0.0
aF0.0
aF0.01282051282051282
aF0.0
aF0.0
aF0.0
aF0.0
aF0.01282051282051282
aF0.01282051282051282
aF0.01282051282051282
aF0.01282051282051282
aF0.0
aF0.0
aF0.0
aF0.01282051282051282
aF0.0
asI46
(lp51
F0.2608695652173913
aF0.13043478260869565
aF0.043478260869565216
aF0.08695652173913043
aF0.021739130434782608
aF0.021739130434782608
aF0.021739130434782608
aF0.021739130434782608
aF0.021739130434782608
aF0.043478260869565216
aF0.0
aF0.06521739130434782
aF0.021739130434782608
aF0.0
aF0.0
aF0.06521739130434782
aF0.0
aF0.021739130434782608
aF0.021739130434782608
aF0.0
aF0.0
aF0.0
aF0.021739130434782608
aF0.0
aF0.0
aF0.0
aF0.0
aF0.021739130434782608
aF0.021739130434782608
aF0.0
aF0.021739130434782608
aF0.0
aF0.0
aF0.021739130434782608
aF0.0
aF0.0
aF0.021739130434782608
asI47
(lp52
F0.2765957446808511
aF0.0851063829787234
aF0.10638297872340426
aF0.02127659574468085
aF0.0425531914893617
aF0.06382978723404255
aF0.0
aF0.02127659574468085
aF0.0425531914893617
aF0.0
aF0.02127659574468085
aF0.0425531914893617
aF0.0
aF0.02127659574468085
aF0.0
aF0.0
aF0.0425531914893617
aF0.02127659574468085
aF0.0
aF0.02127659574468085
aF0.02127659574468085
aF0.02127659574468085
aF0.0
aF0.02127659574468085
aF0.0
aF0.0
aF0.0
aF0.0
aF0.0425531914893617
aF0.0
aF0.0425531914893617
aF0.0
aF0.0
aF0.02127659574468085
aF0.0
aF0.0
aF0.0
assS'popt'
p53
cnumpy.core.multiarray
_reconstruct
p54
(cnumpy
ndarray
p55
(I0
tp56
S'b'
p57
tp58
Rp59
(I1
(I3
tp60
g8
I00
S'\x8d\x9c\xdcty\n\x04@\xba;\xd4\x1b\x83v\xc7@J\x9d\x8a\xa8\xda^\xc6@'
p61
tp62
bs.