ccopy_reg
_reconstructor
p0
(cutils.paillier
PrivateKey
p1
c__builtin__
object
p2
Ntp3
Rp4
(dp5
S'm'
p6
L172825928486694364652717793249541401970233351624592656251718899276068713196465697910243813896088832620922068838014766029868115601688228693206458618010870L
sS'l'
p7
L4508554361792473637431575413337287792325229749534634964246666684339536991005830374459807337604309994868092600511429714130821527768232990892290840125869528L
sb.