ccopy_reg
_reconstructor
p0
(cutils.paillier
PrivateKey
p1
c__builtin__
object
p2
Ntp3
Rp4
(dp5
S'm'
p6
L2305504367208595814360691029141829258402506590153829069971840304724379062694827782209737258255792051727473712777151161981765716886748198400303986891679252L
sS'l'
p7
L10334999414827640958863789479165946390286473164344248711845763675112053178526095384220097023370279619672868324369399301455570006858776846714142217843889280L
sb.